 iecgoose_ld

 Timestamp is 4f8c1c15 (Mon Apr 16 21:18:13 2012)

 Preferred load address is 00400000

 Start         Length     Name                   Class
 0001:00000000 000ddc77H .text                   CODE
 0002:00000000 00000104H .CRT$XCA                DATA
 0002:00000104 00000104H .CRT$XCZ                DATA
 0002:00000208 00000104H .CRT$XIA                DATA
 0002:0000030c 00000113H .CRT$XIC                DATA
 0002:00000420 00000104H .CRT$XIY                DATA
 0002:00000524 00000104H .CRT$XIZ                DATA
 0002:00000628 00000104H .CRT$XPA                DATA
 0002:0000072c 00000104H .CRT$XPX                DATA
 0002:00000830 00000104H .CRT$XPXA               DATA
 0002:00000934 00000104H .CRT$XPZ                DATA
 0002:00000a38 00000104H .CRT$XTA                DATA
 0002:00000b3c 00000104H .CRT$XTZ                DATA
 0002:00000c40 00002c84H .rdata                  DATA
 0002:000038c4 00000175H .rdata$debug            DATA
 0002:00003a40 0000010eH .rdata$sxdata           DATA
 0002:00003b50 00000104H .rtc$IAA                DATA
 0002:00003c54 00000104H .rtc$IZZ                DATA
 0002:00003d58 00000104H .rtc$TAA                DATA
 0002:00003e5c 00000104H .rtc$TZZ                DATA
 0002:00003f60 00000cb8H .xdata$x                DATA
 0002:00004c18 00000000H .edata                  DATA
 0003:00000000 0002dd03H .data                   DATA
 0003:0002dd20 0000c324H .bss                    DATA
 0004:00000000 00000078H .idata$2                DATA
 0004:00000078 00000014H .idata$3                DATA
 0004:0000008c 000003e0H .idata$4                DATA
 0004:0000046c 000003e0H .idata$5                DATA
 0004:0000084c 00000bcdH .idata$6                DATA

  Address         Publics by Value              Rva+Base       Lib:Object

 0000:00000000       __except_list              00000000     <absolute>
 0000:00000003       ___safe_se_handler_count   00000003     <absolute>
 0000:00000000       ___ImageBase               00400000     <linker-defined>
 0001:00000460       _wait_any_event            00401460 f   event.obj
 0001:000004e0       _add_sending_goose         004014e0 f   iec_comn.obj
 0001:00000530       _delete_sending_goose      00401530 f   iec_comn.obj
 0001:00000570       _convert_reference_to_mms_obj 00401570 f   iec_comn.obj
 0001:00000740       _init_retrans_curve        00401740 f   iec_demo.obj
 0001:000007f0       _display_to_screen_log_fun 004017f0 f   iec_demo.obj
 0001:00000810       _callback_function         00401810 f   iec_demo.obj
 0001:00000ae0       _create_subscription_from_nvl 00401ae0 f   iec_demo.obj
 0001:00000c10       _io_scan_simulator@4       00401c10 f   iec_demo.obj
 0001:00000c40       _execute_as_publisher@4    00401c40 f   iec_demo.obj
 0001:00000de0       _execute_as_subscriber@4   00401de0 f   iec_demo.obj
 0001:00000e90       _demo_init                 00401e90 f   iec_demo.obj
 0001:00001130       _read_scl_file             00402130 f   iec_main.obj
 0001:00001210       _iecGoosePubCreateAll      00402210 f   iec_main.obj
 0001:000015a0       _iecGooseSubscribeAll      004025a0 f   iec_main.obj
 0001:00001810       _u_set_all_leaf_functions  00402810 f   iec_main.obj
 0001:000018e0       _u_mvlu_resolve_leaf_ref   004028e0 f   iec_main.obj
 0001:00001910       _main                      00402910 f   iec_main.obj
 0001:00001b10       _u_mmsl_goose_received     00402b10 f   iec_main.obj
 0001:00001b50       _u_mvlu_rpt_time_get       00402b50 f   iec_main.obj
 0001:00001ba0       _u_mvl_connect_ind_ex      00402ba0 f   iec_main.obj
 0001:00001e90       _ctrlCfun                  00402e90 f   iec_main.obj
 0001:00001ea0       _u_mvl61850_ctl_oper_begin 00402ea0 f   iec_main.obj
 0001:00001eb0       _u_mvl61850_ctl_oper_end   00402eb0 f   iec_main.obj
 0001:00001ec0       _u_mvl_scl_set_initial_value 00402ec0 f   iec_main.obj
 0001:00002260       _set_multicast_filters     00403260 f   iec_rx.obj
 0001:000023d0       _chk_iec_goose_timeout     004033d0 f   iec_rx.obj
 0001:00002450       _iecGooseSubscribe         00403450 f   iec_rx.obj
 0001:000025b0       _iecGooseUnSubscribe       004035b0 f   iec_rx.obj
 0001:00002650       _iecGooseLastRxDecode      00403650 f   iec_rx.obj
 0001:00002b40       _chk_for_goose_msg         00403b40 f   iec_rx.obj
 0001:00002e90       _get_goose_messages        00403e90 f   iec_rx.obj
 0001:000031f0       _iecGooseSubscribe2        004041f0 f   iec_rx.obj
 0001:000037c0       _retrans_goose             004047c0 f   iec_tx.obj
 0001:00003af0       _start_trans_goose         00404af0 f   iec_tx.obj
 0001:00003da0       _iecGoosePubCreate         00404da0 f   iec_tx.obj
 0001:00003f10       _iecGoosePubDestroy        00404f10 f   iec_tx.obj
 0001:00003f50       _iecGoosePublish           00404f50 f   iec_tx.obj
 0001:00004310       _logCfgAddMaskGroup        00405310 f   logcfgx.obj
 0001:00004340       _logCfgRemoveMaskGroup     00405340 f   logcfgx.obj
 0001:00004370       _logCfgRemoveAllMaskGroups 00405370 f   logcfgx.obj
 0001:00004380       __logcfg_save_logmasks     00405380 f   logcfgx.obj
 0001:00004440       __logcfg_get_logmasks      00405440 f   logcfgx.obj
 0001:00004630       __logcfg_get_logmasks_size 00405630 f   logcfgx.obj
 0001:00004720       _logCfgFindTagValPath      00405720 f   logcfgx.obj
 0001:00004770       _logCfgFindTagVal          00405770 f   logcfgx.obj
 0001:000047e0       _logCfgClearTagVals        004057e0 f   logcfgx.obj
 0001:00004860       _logcfgx_ex                00405860 f   logcfgx.obj
 0001:00004890       _logcfgx_exx               00405890 f   logcfgx.obj
 0001:00006730       _slog_ipc_std_cmd_service  00407730 f   logcfgx.obj
 0001:00006760       _slog_ipc_std_cmd_service_ex 00407760 f   logcfgx.obj
 0001:000075b0       _ms_process_arb_data       004085b0 f   mms_arb.obj
 0001:00008420       __mvl_net_service          00409420 f   Mvl_acse.obj
 0001:00008510       __mvl_free_comm_event      00409510 f   Mvl_acse.obj
 0001:000085b0       _mvl_set_max_msg_size      004095b0 f   Mvl_acse.obj
 0001:00008610       _mvl_start_acse            00409610 f   Mvl_acse.obj
 0001:00008b90       _mvl_end_acse              00409b90 f   Mvl_acse.obj
 0001:00008db0       __mvl_send_msg             00409db0 f   Mvl_acse.obj
 0001:00008f10       _find_loc_dib_entry        00409f10 f   Mvl_acse.obj
 0001:00008f70       _find_rem_dib_entry        00409f70 f   Mvl_acse.obj
 0001:00008fd0       _mvl_dib_entry_to_app_ref  00409fd0 f   Mvl_acse.obj
 0001:00009090       _mvla_set_init_ar          0040a090 f   Mvl_acse.obj
 0001:00009110       _mvl_abort_req             0040a110 f   Mvl_acse.obj
 0001:00009130       _mvl_abort_req_ex          0040a130 f   Mvl_acse.obj
 0001:00009230       _mvl_release_req           0040a230 f   Mvl_acse.obj
 0001:00009270       _mvla_release_req          0040a270 f   Mvl_acse.obj
 0001:000092b0       __mvl_release              0040a2b0 f   Mvl_acse.obj
 0001:00009390       _mvl_add_bind_ctrl         0040a390 f   Mvl_acse.obj
 0001:00009920       _u_copp_bind_cnf           0040a920 f   Mvl_acse.obj
 0001:00009960       _u_copp_unbind_cnf         0040a960 f   Mvl_acse.obj
 0001:00009980       _u_a_associate_ind         0040a980 f   Mvl_acse.obj
 0001:0000a120       _u_a_associate_cnf         0040b120 f   Mvl_acse.obj
 0001:0000a130       _u_a_data_ind              0040b130 f   Mvl_acse.obj
 0001:0000a380       _u_a_release_ind           0040b380 f   Mvl_acse.obj
 0001:0000a470       _u_a_abort_ind             0040b470 f   Mvl_acse.obj
 0001:0000a590       _u_a_release_cnf           0040b590 f   Mvl_acse.obj
 0001:0000a690       _u_a_except                0040b690 f   Mvl_acse.obj
 0001:0000a7a0       _mvl_init_audt_addr        0040b7a0 f   Mvl_acse.obj
 0001:0000aac0       _mvl_aa_resize             0040bac0 f   Mvl_acse.obj
 0001:0000ac00       __mvl_clear_aa_objs        0040bc00 f   Mvl_acse.obj
 0001:0000ad00       _mvl_aa_resize_conn        0040bd00 f   Mvl_acse.obj
 0001:0000ae30       _mvl_match_remote_ar       0040be30 f   Mvl_acse.obj
 0001:0000ae50       _mvl_match_local_ar        0040be50 f   Mvl_acse.obj
 0001:0000ae70       _mvl_cmp_local_addr        0040be70 f   Mvl_acse.obj
 0001:0000ae90       _mvl_cmp_remote_addr       0040be90 f   Mvl_acse.obj
 0001:0000aeb0       _mvl_net_info_to_chan      0040beb0 f   Mvl_acse.obj
 0001:0000b960       _mvl_cancel_ind_rcvd       0040c960 f   Mvlop_en.obj
 0001:0000b980       _mvl_concl_ind_rcvd        0040c980 f   Mvlop_en.obj
 0001:0000b9a0       _mvl_concl_conf_rcvd       0040c9a0 f   Mvlop_en.obj
 0001:0000b9c0       _mvl_ind_rcvd              0040c9c0 f   Mvlop_en.obj
 0001:0000bb20       _mvl_conf_rcvd             0040cb20 f   Mvlop_en.obj
 0001:0000bd00       _u_mvl_sbo_operate         0040cd00 f   Rdwrind.obj
 0001:0000bd30       _mvlu_null_rd_ind          0040cd30 f   Rdwrind.obj
 0001:0000bff0       _mvlu_null_wr_ind          0040cff0 f   Rdwrind.obj
 0001:0000c0d0       _u_mvl_reject_ind          0040d0d0 f   reject.obj
 0001:0000c210       _slogIpcInit               0040d210 f   slogipc.obj
 0001:0000c490       _slogIpcStop               0040d490 f   slogipc.obj
 0001:0000c610       _slogIpcEvent              0040d610 f   slogipc.obj
 0001:0000c630       _slogIpcEventEx            0040d630 f   slogipc.obj
 0001:0000c640       _slogIpc                   0040d640 f   slogipc.obj
 0001:0000cbd0       _slogIpcSendData           0040dbd0 f   slogipc.obj
 0001:0000ccb0       _slogIpcSendRawData        0040dcb0 f   slogipc.obj
 0001:0000cff0       _slog_ipc_std_cmd_fun      0040dff0 f   slogipc.obj
 0001:0000d0d0       _slogIpcCallingEnable      0040e0d0 f   slogipc.obj
 0001:0000d0f0       _slogIpcCallingEnableEx    0040e0f0 f   slogipc.obj
 0001:0000da10       _slogIpcActiveCount        0040ea10 f   slogipc.obj
 0001:0000da90       __slogIpcInitHdr           0040ea90 f   slogipc.obj
 0001:0000e130       _startup_cfg_read          0040f130 f   startup.obj
 0001:0000e690       _mvl_init_mms_objs         0040f690 f   uca_obj.obj
 0001:0000e8f0       _mvl_init_type_ctrl        0040f8f0 f   uca_obj.obj
 0001:0000e9ec       _htonl@4                   0040f9ec f   ws2_32:WS2_32.dll
 0001:0000e9f2       _ntohl@4                   0040f9f2 f   ws2_32:WS2_32.dll
 0001:0000ea00       _init_mem_chk              0040fa00 f   mem_ld:mem_chks.obj
 0001:0000ec20       _x_chk_malloc              0040fc20 f   mem_ld:mem_chks.obj
 0001:0000ef70       _x_chk_calloc              0040ff70 f   mem_ld:mem_chks.obj
 0001:0000f300       _x_chk_realloc             00410300 f   mem_ld:mem_chks.obj
 0001:0000f7f0       _x_chk_free                004107f0 f   mem_ld:mem_chks.obj
 0001:0000fb60       _x_chk_strdup              00410b60 f   mem_ld:mem_chks.obj
 0001:0000fba0       _dyn_mem_ptr_status        00410ba0 f   mem_ld:mem_chks.obj
 0001:0000fbb0       _dyn_mem_ptr_status2       00410bb0 f   mem_ld:mem_chks.obj
 0001:0000fd80       _dyn_mem_ptr_statistics    00410d80 f   mem_ld:mem_chks.obj
 0001:0000fef0       _chk_hp                    00410ef0 f   mem_ld:mem_chks.obj
 0001:0000ff10       _msoft_heap_check          00410f10 f   mem_ld:mem_chks.obj
 0001:0000ff20       _chk_alloc_ptr             00410f20 f   mem_ld:mem_chks.obj
 0001:000101a0       _check_mem_list            004111a0 f   mem_ld:mem_chks.obj
 0001:00010670       _mvl_obj_insert            00411670 f   mvlu_ld:mvl_objb.obj
 0001:000107b0       _mvl_obj_delete            004117b0 f   mvlu_ld:mvl_objb.obj
 0001:00010830       _mvl_obj_find              00411830 f   mvlu_ld:mvl_objb.obj
 0001:00010860       _mvl_obj_find_key          00411860 f   mvlu_ld:mvl_objb.obj
 0001:000108b0       _mvl_vmd_dom_insert        004118b0 f   mvlu_ld:mvl_objb.obj
 0001:000108e0       _mvl_vmd_var_insert        004118e0 f   mvlu_ld:mvl_objb.obj
 0001:00010a70       _mvl_vmd_nvl_insert        00411a70 f   mvlu_ld:mvl_objb.obj
 0001:00010c30       _mvl_vmd_jou_insert        00411c30 f   mvlu_ld:mvl_objb.obj
 0001:00010dc0       _mvl_vmd_dom_delete        00411dc0 f   mvlu_ld:mvl_objb.obj
 0001:00010df0       _mvl_vmd_var_delete        00411df0 f   mvlu_ld:mvl_objb.obj
 0001:00010f70       _mvl_vmd_nvl_delete        00411f70 f   mvlu_ld:mvl_objb.obj
 0001:000110f0       _mvl_vmd_jou_delete        004120f0 f   mvlu_ld:mvl_objb.obj
 0001:00011270       _mvl_vmd_find_dom          00412270 f   mvlu_ld:mvl_objb.obj
 0001:000112a0       _mvl_vmd_dom_find_last     004122a0 f   mvlu_ld:mvl_objb.obj
 0001:000112d0       _mvl_vmd_find_var          004122d0 f   mvlu_ld:mvl_objb.obj
 0001:00011440       _mvl_vmd_find_nvl          00412440 f   mvlu_ld:mvl_objb.obj
 0001:000115b0       _mvl_vmd_find_jou          004125b0 f   mvlu_ld:mvl_objb.obj
 0001:00011730       _mvl_sort_objs             00412730 f   mvlu_ld:mvl_objb.obj
 0001:00011840       __mvl_obj_compare          00412840 f   mvlu_ld:mvl_objb.obj
 0001:00011870       _special_type_name         00412870 f   mvlu_ld:sclproc.obj
 0001:00011980       _simple_type_name          00412980 f   mvlu_ld:sclproc.obj
 0001:00011a10       _scl2_find_enumtype        00412a10 f   mvlu_ld:sclproc.obj
 0001:00011a70       _scl2_add_btype            00412a70 f   mvlu_ld:sclproc.obj
 0001:00011b60       _find_scl_lntype           00412b60 f   mvlu_ld:sclproc.obj
 0001:00011bc0       _scl2_datatype_create_all  00412bc0 f   mvlu_ld:sclproc.obj
 0001:000143a0       _init_rpt_ctrl             004153a0 f   mvlu_ld:sclproc.obj
 0001:000149a0       _convert_initial_value     004159a0 f   mvlu_ld:sclproc.obj
 0001:00014d60       _scl2_ld_create_all        00415d60 f   mvlu_ld:sclproc.obj
 0001:000170e0       _scl_gse_find              004180e0 f   mvlu_ld:sclproc.obj
 0001:00017200       _mvl_comm_serve            00418200 f   mvlu_ld:MVL_SERV.obj
 0001:00017b10       _mvl_clr_ind_que           00418b10 f   mvlu_ld:MVL_SERV.obj
 0001:00017d90       __mvl_ind_reject           00418d90 f   mvlu_ld:MVL_SERV.obj
 0001:00017df0       __mvl_conf_reject          00418df0 f   mvlu_ld:MVL_SERV.obj
 0001:00017e20       __mvl_send_reject          00418e20 f   mvlu_ld:MVL_SERV.obj
 0001:000180e0       __mplas_err_resp           004190e0 f   mvlu_ld:MVL_SERV.obj
 0001:00018160       __mvl_send_err_f           00419160 f   mvlu_ld:MVL_SERV.obj
 0001:00018190       __mvl_send_error           00419190 f   mvlu_ld:MVL_SERV.obj
 0001:000182a0       _mvl_wait_req_done         004192a0 f   mvlu_ld:MVL_SERV.obj
 0001:00018320       __mvl_get_req_ctrl         00419320 f   mvlu_ld:MVL_SERV.obj
 0001:00018410       __mvl_find_req_ctrl        00419410 f   mvlu_ld:MVL_SERV.obj
 0001:000184a0       __mvl_set_net_req_done     004194a0 f   mvlu_ld:MVL_SERV.obj
 0001:00018520       __mvl_set_req_done         00419520 f   mvlu_ld:MVL_SERV.obj
 0001:00018550       _mvl_free_req_ctrl         00419550 f   mvlu_ld:MVL_SERV.obj
 0001:00018660       __mvl_concat_filename      00419660 f   mvlu_ld:MVL_SERV.obj
 0001:00018710       __mvl_calloc_os            00419710 f   mvlu_ld:MVL_SERV.obj
 0001:00018730       __mvl_realloc_os           00419730 f   mvlu_ld:MVL_SERV.obj
 0001:00018750       __mvl_free_os              00419750 f   mvlu_ld:MVL_SERV.obj
 0001:00018770       _mvl_req_bufs_avail        00419770 f   mvlu_ld:MVL_SERV.obj
 0001:00018840       _mvl_ureq_bufs_avail       00419840 f   mvlu_ld:MVL_SERV.obj
 0001:00018920       _mvlu_load_xml_leaf_file   00419920 f   mvlu_ld:mvluleaf.obj
 0001:00018d10       _mvlu_set_leaf_param_name  00419d10 f   mvlu_ld:mvluleaf.obj
 0001:00018f20       _mvlu_find_rd_ind_fun_index 00419f20 f   mvlu_ld:mvluleaf.obj
 0001:00018fc0       _mvlu_find_wr_ind_fun_index 00419fc0 f   mvlu_ld:mvluleaf.obj
 0001:00019060       _mvlu_set_leaf_param       0041a060 f   mvlu_ld:mvluleaf.obj
 0001:00019260       _mvlu_set_leaf_param_name2 0041a260 f   mvlu_ld:mvluleaf.obj
 0001:00019620       _mvl_vmd_resize            0041a620 f   mvlu_ld:Mvl_obj.obj
 0001:000197a0       _mvl_dom_resize            0041a7a0 f   mvlu_ld:Mvl_obj.obj
 0001:000198d0       __mvl_resize_ptr_tbl       0041a8d0 f   mvlu_ld:Mvl_obj.obj
 0001:00019960       _mvl_nvl_remove_all        0041a960 f   mvlu_ld:Mvl_obj.obj
 0001:00019ad0       _mvl_var_in_nvl            0041aad0 f   mvlu_ld:Mvl_obj.obj
 0001:00019b30       _mvl_var_deletable         0041ab30 f   mvlu_ld:Mvl_obj.obj
 0001:00019cb0       _mvl_nvl_deletable         0041acb0 f   mvlu_ld:Mvl_obj.obj
 0001:00019db0       _mvl_vmd_dom_add           0041adb0 f   mvlu_ld:Mvl_obj.obj
 0001:00019e10       _mvl_dom_create            0041ae10 f   mvlu_ld:Mvl_obj.obj
 0001:00019eb0       _mvl_dom_cleanup           0041aeb0 f   mvlu_ld:Mvl_obj.obj
 0001:0001a090       _mvl_vmd_dom_remove        0041b090 f   mvlu_ld:Mvl_obj.obj
 0001:0001a150       _mvl_dom_destroy           0041b150 f   mvlu_ld:Mvl_obj.obj
 0001:0001a1f0       _mvl_vmd_var_add           0041b1f0 f   mvlu_ld:Mvl_obj.obj
 0001:0001a2d0       _mvl_var_create            0041b2d0 f   mvlu_ld:Mvl_obj.obj
 0001:0001a3e0       _mvl_var_add_alloc         0041b3e0 f   mvlu_ld:Mvl_obj.obj
 0001:0001a4b0       _mvl_var_create_alloc      0041b4b0 f   mvlu_ld:Mvl_obj.obj
 0001:0001a590       _mvl_var_create_derived    0041b590 f   mvlu_ld:Mvl_obj.obj
 0001:0001a6a0       _mvl_vmd_var_remove        0041b6a0 f   mvlu_ld:Mvl_obj.obj
 0001:0001a750       _mvl_var_destroy           0041b750 f   mvlu_ld:Mvl_obj.obj
 0001:0001a7b0       _mvl_vmd_nvl_add           0041b7b0 f   mvlu_ld:Mvl_obj.obj
 0001:0001a8b0       _mvl_nvl_create            0041b8b0 f   mvlu_ld:Mvl_obj.obj
 0001:0001aa80       _mvl_vmd_nvl_remove        0041ba80 f   mvlu_ld:Mvl_obj.obj
 0001:0001ab30       _mvl_nvl_destroy           0041bb30 f   mvlu_ld:Mvl_obj.obj
 0001:0001abf0       _mvl_vmd_jou_add           0041bbf0 f   mvlu_ld:Mvl_obj.obj
 0001:0001ac50       _mvl_jou_create            0041bc50 f   mvlu_ld:Mvl_obj.obj
 0001:0001ace0       _mvl_vmd_jou_remove        0041bce0 f   mvlu_ld:Mvl_obj.obj
 0001:0001ad20       _mvl_jou_destroy           0041bd20 f   mvlu_ld:Mvl_obj.obj
 0001:0001ad60       _mvl_vmd_create            0041bd60 f   mvlu_ld:Mvl_obj.obj
 0001:0001ae60       _mvl_vmd_destroy           0041be60 f   mvlu_ld:Mvl_obj.obj
 0001:0001b010       _mvl_mod_arr_size          0041c010 f   mvlu_ld:MVL_TYPE.obj
 0001:0001b060       _mvl_get_runtime           0041c060 f   mvlu_ld:MVL_TYPE.obj
 0001:0001b0b0       _mvl_get_runtime_dyn       0041c0b0 f   mvlu_ld:MVL_TYPE.obj
 0001:0001b110       _mvl_type_ctrl_find        0041c110 f   mvlu_ld:MVL_TYPE.obj
 0001:0001b160       _mvl_type_ctrl_find_dyn    0041c160 f   mvlu_ld:MVL_TYPE.obj
 0001:0001b1a0       _mvl_typeid_to_typename    0041c1a0 f   mvlu_ld:MVL_TYPE.obj
 0001:0001b1d0       _mvl_typename_to_typeid    0041c1d0 f   mvlu_ld:MVL_TYPE.obj
 0001:0001b250       _mvlu_add_rt_type          0041c250 f   mvlu_ld:MVL_TYPE.obj
 0001:0001b340       _mvlu_free_rt_type         0041c340 f   mvlu_ld:MVL_TYPE.obj
 0001:0001b380       _mvlu_sbo_select_rd_ind    0041c380 f   mvlu_ld:MVLU_SBO.obj
 0001:0001b470       _mvlu_sbo_operate_wr_ind   0041c470 f   mvlu_ld:MVLU_SBO.obj
 0001:0001b510       _mvlu_clr_pend_sbo         0041c510 f   mvlu_ld:MVLU_SBO.obj
 0001:0001b560       _mvlu_sbo_chk_timers       0041c560 f   mvlu_ld:MVLU_SBO.obj
 0001:0001b630       _initSboCtrl               0041c630 f   mvlu_ld:MVLU_SBO.obj
 0001:0001b7d0       _mvlu_sbo_chk_state        0041c7d0 f   mvlu_ld:MVLU_SBO.obj
 0001:0001b940       _mvlu_sbo_ctrl_free        0041c940 f   mvlu_ld:MVLU_SBO.obj
 0001:0001b960       _init_prim_info            0041c960 f   mvlu_ld:mvl_uca.obj
 0001:0001b990       _u_mvl_get_va_aa           0041c990 f   mvlu_ld:mvl_uca.obj
 0001:0001c550       _mvlu_find_uca_var         0041d550 f   mvlu_ld:mvl_uca.obj
 0001:0001c870       _u_mvl_free_va             0041d870 f   mvlu_ld:mvl_uca.obj
 0001:0001c970       _u_gnl_ind_vars            0041d970 f   mvlu_ld:mvl_uca.obj
 0001:0001ccb0       _getGnlVarNames            0041dcb0 f   mvlu_ld:mvl_uca.obj
 0001:0001d420       _u_gnl_done                0041e420 f   mvlu_ld:mvl_uca.obj
 0001:0001d450       _u_gnl_ind_nvls            0041e450 f   mvlu_ld:mvl_uca.obj
 0001:0001d6a0       _u_mvl_read_ind            0041e6a0 f   mvlu_ld:mvl_uca.obj
 0001:0001d8d0       _mvlu_trim_branch_name     0041e8d0 f   mvlu_ld:mvl_uca.obj
 0001:0001dbc0       _mvlu_rd_prim_done         0041ebc0 f   mvlu_ld:mvl_uca.obj
 0001:0001dd40       _u_mvl_write_ind           0041ed40 f   mvlu_ld:mvl_uca.obj
 0001:0001e4b0       _mvlu_wr_prim_done         0041f4b0 f   mvlu_ld:mvl_uca.obj
 0001:0001e6d0       _mvlu_find_rt_leaf         0041f6d0 f   mvlu_ld:mvl_uca.obj
 0001:0001e7f0       _mvlu_find_comp_type       0041f7f0 f   mvlu_ld:mvl_uca.obj
 0001:0001e850       _mvlu_get_leaf_val_int8    0041f850 f   mvlu_ld:mvl_uca.obj
 0001:0001e930       _mvlu_get_leaf_val_int32   0041f930 f   mvlu_ld:mvl_uca.obj
 0001:0001ea10       _mvlu_get_leaf_val_int_any 0041fa10 f   mvlu_ld:mvl_uca.obj
 0001:0001eb90       _mvlu_get_leaf_val_uint32  0041fb90 f   mvlu_ld:mvl_uca.obj
 0001:0001ec70       _mvlu_get_leaf_val_boolean 0041fc70 f   mvlu_ld:mvl_uca.obj
 0001:0001ed50       _mvlu_get_leaf_val_bvstring 0041fd50 f   mvlu_ld:mvl_uca.obj
 0001:0001ee80       _mvlu_get_leaf_data_ptr    0041fe80 f   mvlu_ld:mvl_uca.obj
 0001:0001f360       _mvlu_derive_rpt_ds        00420360 f   mvlu_ld:mvlu_rpt.obj
 0001:0001f400       _mvlu_derive_ds_va_names   00420400 f   mvlu_ld:mvlu_rpt.obj
 0001:0001fa50       _mvlu_create_rpt_ctrl      00420a50 f   mvlu_ld:mvlu_rpt.obj
 0001:0001fe40       _mvlu_free_rpt_ctrl        00420e40 f   mvlu_ld:mvlu_rpt.obj
 0001:0001fef0       _mvlu_rpt_service          00420ef0 f   mvlu_ld:mvlu_rpt.obj
 0001:0001ffa0       _mvlu_rpt_va_scan          00420fa0 f   mvlu_ld:mvlu_rpt.obj
 0001:00020030       _mvlu_rpt_scan_read        00421030 f   mvlu_ld:mvlu_rpt.obj
 0001:00020300       _mvlu_rpt_va_change        00421300 f   mvlu_ld:mvlu_rpt.obj
 0001:000208f0       _mvlu_rpt_get_va_index     004218f0 f   mvlu_ld:mvlu_rpt.obj
 0001:00020950       _mvlu_send_report          00421950 f   mvlu_ld:mvlu_rpt.obj
 0001:00020f30       __mvlu_rpt_disconnect_rcvd 00421f30 f   mvlu_ld:mvlu_rpt.obj
 0001:00021090       _mvlu_rpt_create_scan_ctrl2 00422090 f   mvlu_ld:mvlu_rpt.obj
 0001:000212c0       _mvlu_rpt_create_scan_ctrl 004222c0 f   mvlu_ld:mvlu_rpt.obj
 0001:000213b0       _mvlu_rpt_destroy_scan_ctrl 004223b0 f   mvlu_ld:mvlu_rpt.obj
 0001:000213e0       __mvlu_get_rd_rcb          004223e0 f   mvlu_ld:mvlu_rpt.obj
 0001:000215d0       __mvlu_get_wr_rcb          004225d0 f   mvlu_ld:mvlu_rpt.obj
 0001:000216a0       __rcb_writable             004226a0 f   mvlu_ld:mvlu_rpt.obj
 0001:00021860       _mvlu_rptid_rd_ind_fun     00422860 f   mvlu_ld:mvlu_rpt.obj
 0001:000218c0       _mvlu_rptena_rd_ind_fun    004228c0 f   mvlu_ld:mvlu_rpt.obj
 0001:00021920       _mvlu_resv_rd_ind_fun      00422920 f   mvlu_ld:mvlu_rpt.obj
 0001:00021980       _mvlu_datsetna_rd_ind_fun  00422980 f   mvlu_ld:mvlu_rpt.obj
 0001:00021a20       _mvlu_optflds_rd_ind_fun   00422a20 f   mvlu_ld:mvlu_rpt.obj
 0001:00021aa0       _mvlu_buftim_rd_ind_fun    00422aa0 f   mvlu_ld:mvlu_rpt.obj
 0001:00021b00       _mvlu_trgs_rd_ind_fun      00422b00 f   mvlu_ld:mvlu_rpt.obj
 0001:00021b60       _mvlu_sqnum_rd_ind_fun     00422b60 f   mvlu_ld:mvlu_rpt.obj
 0001:00021bc0       _mvlu_trgops_rd_ind_fun    00422bc0 f   mvlu_ld:mvlu_rpt.obj
 0001:00021c40       _mvlu_rbepd_rd_ind_fun     00422c40 f   mvlu_ld:mvlu_rpt.obj
 0001:00021ca0       _mvlu_intgpd_rd_ind_fun    00422ca0 f   mvlu_ld:mvlu_rpt.obj
 0001:00021d00       _mvlu_rptid_wr_ind_fun     00422d00 f   mvlu_ld:mvlu_rpt.obj
 0001:00021dd0       _mvl61850_brcb_handle_rptena_wr 00422dd0 f   mvlu_ld:mvlu_rpt.obj
 0001:00021e40       _mvl61850_urcb_handle_rptena_wr 00422e40 f   mvlu_ld:mvlu_rpt.obj
 0001:00021ea0       _mvlu_rptena_wr_ind_fun    00422ea0 f   mvlu_ld:mvlu_rpt.obj
 0001:00021fe0       _mvlu_resv_wr_ind_fun      00422fe0 f   mvlu_ld:mvlu_rpt.obj
 0001:00022100       _mvlu_optflds_wr_ind_fun   00423100 f   mvlu_ld:mvlu_rpt.obj
 0001:00022240       _mvlu_buftim_wr_ind_fun    00423240 f   mvlu_ld:mvlu_rpt.obj
 0001:00022300       _mvlu_trgs_wr_ind_fun      00423300 f   mvlu_ld:mvlu_rpt.obj
 0001:00022380       _mvlu_sqnum_wr_ind_fun     00423380 f   mvlu_ld:mvlu_rpt.obj
 0001:00022400       _mvlu_trgops_wr_ind_fun    00423400 f   mvlu_ld:mvlu_rpt.obj
 0001:00022510       _mvlu_rbepd_wr_ind_fun     00423510 f   mvlu_ld:mvlu_rpt.obj
 0001:00022590       _mvlu_intgpd_wr_ind_fun    00423590 f   mvlu_ld:mvlu_rpt.obj
 0001:00022650       _mvlu_seqnum_rd_ind_fun    00423650 f   mvlu_ld:mvlu_rpt.obj
 0001:00022670       _mvlu_seqnum_wr_ind_fun    00423670 f   mvlu_ld:mvlu_rpt.obj
 0001:00022690       _mvlu_integrity_scan_destroy 00423690 f   mvlu_ld:mvlu_rpt.obj
 0001:000226b0       _mvlu_integrity_scan_read  004236b0 f   mvlu_ld:mvlu_rpt.obj
 0001:000226f0       _mvlu_setup_scan_read      004236f0 f   mvlu_ld:mvlu_rpt.obj
 0001:000227d0       _mvlu_integrity_scan_va_done 004237d0 f   mvlu_ld:mvlu_rpt.obj
 0001:00022810       _mvlu_integrity_scan_done  00423810 f   mvlu_ld:mvlu_rpt.obj
 0001:000228f0       _mvlu_rpt_find_typeids     004238f0 f   mvlu_ld:mvlu_rpt.obj
 0001:00022bf0       _mvlu_integrity_timeout    00423bf0 f   mvlu_ld:mvlu_rpt.obj
 0001:00022cd0       _mvlu_rpt_rcb_type_find    00423cd0 f   mvlu_ld:mvlu_rpt.obj
 0001:00022df0       _mvlu_rpt_ready            00423df0 f   mvlu_ld:mvlu_rpt.obj
 0001:00022e70       _mvlu_rpt_ctrl_destroy_all 00423e70 f   mvlu_ld:mvlu_rpt.obj
 0001:00022ed0       __mvl_process_write_ind    00423ed0 f   mvlu_ld:S_WRITE.obj
 0001:00023000       _mvlas_write_resp          00424000 f   mvlu_ld:S_WRITE.obj
 0001:00023860       __mvl_process_read_ind     00424860 f   mvlu_ld:S_READ.obj
 0001:00023c80       _mvlas_read_resp           00424c80 f   mvlu_ld:S_READ.obj
 0001:00024060       _mvl_type_id_create        00425060 f   mvlu_ld:mvl_typ2.obj
 0001:000240c0       _mvl_type_id_destroy       004250c0 f   mvlu_ld:mvl_typ2.obj
 0001:00024130       _mvl_type_id_destroy_all_dyn 00425130 f   mvlu_ld:mvl_typ2.obj
 0001:00024190       _mvl_vmd_type_id_create    00425190 f   mvlu_ld:mvl_typ2.obj
 0001:000243e0       _mvl_type_id_create_from_tdl 004253e0 f   mvlu_ld:mvl_typ2.obj
 0001:00024520       _mvl_vmd_type_id_destroy   00425520 f   mvlu_ld:mvl_typ2.obj
 0001:00024590       _mvl_vmd_type_id_destroy_all 00425590 f   mvlu_ld:mvl_typ2.obj
 0001:00024620       _mvl_type_count            00425620 f   mvlu_ld:mvl_typ2.obj
 0001:00024670       _mvl_vmd_type_ctrl_find    00425670 f   mvlu_ld:mvl_typ2.obj
 0001:000246d0       _mvl61850_mk_rptid         004256d0 f   mvlu_ld:mvl61850_rpt.obj
 0001:00024790       _mvl61850_mk_dataref       00425790 f   mvlu_ld:mvl61850_rpt.obj
 0001:00024820       _mvl61850_rcb_cleanup      00425820 f   mvlu_ld:mvl61850_rpt.obj
 0001:00024890       _mvl61850_brcb_rpt_set_entryid 00425890 f   mvlu_ld:mvl61850_rpt.obj
 0001:000249e0       _buflist_entry_create      004259e0 f   mvlu_ld:mvl61850_rpt.obj
 0001:00024d20       _buflist_entry_destroy     00425d20 f   mvlu_ld:mvl61850_rpt.obj
 0001:00024e20       _buflist_discard_old_gi    00425e20 f   mvlu_ld:mvl61850_rpt.obj
 0001:00024e80       _buflist_discard_old       00425e80 f   mvlu_ld:mvl61850_rpt.obj
 0001:00024f20       _mvl61850_brcb_rpt_lists_clean 00425f20 f   mvlu_ld:mvl61850_rpt.obj
 0001:00024ff0       _mvl61850_brcb_rpt_save    00425ff0 f   mvlu_ld:mvl61850_rpt.obj
 0001:00025050       _mvl61850_brcb_rpt_send    00426050 f   mvlu_ld:mvl61850_rpt.obj
 0001:00025c10       _mvl61850_brcb_enable_all  00426c10 f   mvlu_ld:mvl61850_rpt.obj
 0001:00025c60       _mvl61850_brcb_entryid_init 00426c60 f   mvlu_ld:mvl61850_rpt.obj
 0001:00025c80       _mvl61850_rpt_change_scan_va_done 00426c80 f   mvlu_ld:mvl61850_rpt.obj
 0001:00025cb0       _mvl61850_rpt_change_scan_done 00426cb0 f   mvlu_ld:mvl61850_rpt.obj
 0001:00025cd0       _mvl61850_rpt_change_scan  00426cd0 f   mvlu_ld:mvl61850_rpt.obj
 0001:00025e30       _mvl61850_get_rcb          00426e30 f   mvlu_ld:mvl61850_rpt.obj
 0001:00025ed0       _mvl61850_rpt_dataset_create 00426ed0 f   mvlu_ld:mvl61850_rpt.obj
 0001:00026110       _mvl61850_rpt_dataset_destroy 00427110 f   mvlu_ld:mvl61850_rpt.obj
 0001:00026190       _mvl61850_create_rpt_ctrl  00427190 f   mvlu_ld:mvl61850_rpt.obj
 0001:000263c0       _mvl61850_free_rpt_ctrl    004273c0 f   mvlu_ld:mvl61850_rpt.obj
 0001:00026440       _mvl61850_brcb_client_service 00427440 f   mvlu_ld:mvl61850_rpt.obj
 0001:00026590       _mvl61850_urcb_client_service 00427590 f   mvlu_ld:mvl61850_rpt.obj
 0001:000265d0       _mvl61850_rpt_service      004275d0 f   mvlu_ld:mvl61850_rpt.obj
 0001:00026690       _mvl61850_rpt_ctrl_destroy_all 00427690 f   mvlu_ld:mvl61850_rpt.obj
 0001:000266c0       _mvl61850_integrity_timeout 004276c0 f   mvlu_ld:mvl61850_rpt.obj
 0001:00026830       _mvl61850_sbo_create_sboname 00427830 f   mvlu_ld:mvl61850_ctl.obj
 0001:00026910       _mvl61850_mkname_ctlmodel  00427910 f   mvlu_ld:mvl61850_ctl.obj
 0001:000269c0       _mvl61850_mkname_sbotimeout 004279c0 f   mvlu_ld:mvl61850_ctl.obj
 0001:00026a70       _mvl61850_mkname_sboclass  00427a70 f   mvlu_ld:mvl61850_ctl.obj
 0001:00026b20       _mvl61850_ctl_chk_sbo      00427b20 f   mvlu_ld:mvl61850_ctl.obj
 0001:00026f70       _mvl61850_ctl_chk_sbow     00427f70 f   mvlu_ld:mvl61850_ctl.obj
 0001:000271a0       _mvl61850_ctl_chk_state    004281a0 f   mvlu_ld:mvl61850_ctl.obj
 0001:00027310       _mvl61850_ctl_command_termination 00428310 f   mvlu_ld:mvl61850_ctl.obj
 0001:00027540       _mvl61850_ctl_lastapplerror_create 00428540 f   mvlu_ld:mvl61850_ctl.obj
 0001:00027590       _mvl61850_ctl_lastapplerror_send 00428590 f   mvlu_ld:mvl61850_ctl.obj
 0001:000276c0       _mvl61850_ctl_req_done     004286c0 f   mvlu_ld:mvl61850_ctl.obj
 0001:00027880       __mvl_objname_to_va        00428880 f   mvlu_ld:MVL_VAR.obj
 0001:00027980       _mvl_scope_set             00428980 f   mvlu_ld:MVL_VAR.obj
 0001:00027a00       _mvl_get_va_asn1_data      00428a00 f   mvlu_ld:MVL_VAR.obj
 0001:00027c70       __mvl_get_asn1_aa          00428c70 f   mvlu_ld:MVL_VAR.obj
 0001:00027d40       __m_get_aa_asn1_buf        00428d40 f   mvlu_ld:MVL_VAR.obj
 0001:00027db0       __m_set_aa_asn1_buf_end    00428db0 f   mvlu_ld:MVL_VAR.obj
 0001:00027dc0       __m_free_aa_asn1_buf       00428dc0 f   mvlu_ld:MVL_VAR.obj
 0001:00027e00       _mvl_info_variables        00428e00 f   mvlu_ld:s_info.obj
 0001:00027f10       _mvl_encode_info_rpt       00428f10 f   mvlu_ld:s_info.obj
 0001:00028270       _mvl61850_rcb_chk_state    00429270 f   mvlu_ld:Mvl61850.obj
 0001:00028340       _mvlu_gi_scan_va_done      00429340 f   mvlu_ld:Mvl61850.obj
 0001:00028380       _mvlu_gi_scan_done         00429380 f   mvlu_ld:Mvl61850.obj
 0001:00028430       _mvl61850_urcb_rpt_send    00429430 f   mvlu_ld:Mvl61850.obj
 0001:00029090       _chk_seg_needed            0042a090 f   mvlu_ld:Mvl61850.obj
 0001:00029150       _mvlu_confrev_rd_ind       0042a150 f   mvlu_ld:Mvl61850.obj
 0001:000291c0       _mvlu_purgebuf_rd_ind      0042a1c0 f   mvlu_ld:Mvl61850.obj
 0001:00029220       _mvlu_gi_rd_ind            0042a220 f   mvlu_ld:Mvl61850.obj
 0001:00029280       _mvlu_entryid_rd_ind       0042a280 f   mvlu_ld:Mvl61850.obj
 0001:00029350       _mvlu_timeofentry_rd_ind   0042a350 f   mvlu_ld:Mvl61850.obj
 0001:00029430       _mvlu_purgebuf_wr_ind      0042a430 f   mvlu_ld:Mvl61850.obj
 0001:000294d0       _mvlu_gi_wr_ind            0042a4d0 f   mvlu_ld:Mvl61850.obj
 0001:00029640       _mvlu_entryid_wr_ind       0042a640 f   mvlu_ld:Mvl61850.obj
 0001:000296d0       _mvlu_sqnum_int16u_rd_ind_fun 0042a6d0 f   mvlu_ld:Mvl61850.obj
 0001:00029740       _mvl61850_beh_stval_rd_ind 0042a740 f   mvlu_ld:Mvl61850.obj
 0001:00029a20       _mvl61850_datset_wr_ind    0042aa20 f   mvlu_ld:Mvl61850.obj
 0001:00029ea0       _mvl61850_objref_create    0042aea0 f   mvlu_ld:Mvl61850.obj
 0001:00029f90       __mvl_send_resp_i          0042af90 f   mvlu_ld:mvl_send.obj
 0001:00029ff0       __mvl_send_resp            0042aff0 f   mvlu_ld:mvl_send.obj
 0001:0002a140       __mvl_send_req             0042b140 f   mvlu_ld:mvl_send.obj
 0001:0002a380       _mvlu_proc_rt_type         0042b380 f   mvlu_ld:mvlu_rt.obj
 0001:0002ac00       _asn1r_decode_asn1_seq     0042bc00 f   asn1_ld:asn1r.obj
 0001:0002ac70       _asn1r_decode_asn1         0042bc70 f   asn1_ld:asn1r.obj
 0001:0002b640       _asn1r_head_decode         0042c640 f   asn1_ld:asn1r.obj
 0001:0002c170       _asn1r_set_all_cstr_done   0042d170 f   asn1_ld:asn1r.obj
 0001:0002c1a0       _asn1r_tag_add             0042d1a0 f   asn1_ld:asn1r.obj
 0001:0002c230       _asn1r_tag_restore         0042d230 f   asn1_ld:asn1r.obj
 0001:0002c250       _asn1r_strt_asn1_bld       0042d250 f   asn1_ld:asn1r.obj
 0001:0002c2f0       _asn1r_strt_constr         0042d2f0 f   asn1_ld:asn1r.obj
 0001:0002c390       _asn1r_fin_constr          0042d390 f   asn1_ld:asn1r.obj
 0001:0002c520       _asn1r_fin_prim            0042d520 f   asn1_ld:asn1r.obj
 0001:0002c860       _asn1r_set_dec_err         0042d860 f   asn1_ld:asn1r.obj
 0001:0002c8b0       _asn1r_done_err            0042d8b0 f   asn1_ld:asn1r.obj
 0001:0002c920       _asn1r_class_err           0042d920 f   asn1_ld:asn1r.obj
 0001:0002c970       _asn1r_cstr_done_err       0042d970 f   asn1_ld:asn1r.obj
 0001:0002c9c0       _asn1r_chk_getcstr_done    0042d9c0 f   asn1_ld:asn1r.obj
 0001:0002ca00       _asn1_objidcmp             0042da00 f   asn1_ld:asn1r.obj
 0001:0002cc40       _asn1_convert_btod_to_utc  0042dc40 f   asn1_ld:asn1r.obj
 0001:0002cd20       _asn1_convert_utc_to_btod  0042dd20 f   asn1_ld:asn1r.obj
 0001:0002cdc0       _asn1_convert_timet_to_btime6 0042ddc0 f   asn1_ld:asn1r.obj
 0001:0002ce80       _bstrcpy                   0042de80 f   asn1_ld:asn1r.obj
 0001:0002cf30       _bvstrcpy                  0042df30 f   asn1_ld:asn1r.obj
 0001:0002cf60       _bstrcmp                   0042df60 f   asn1_ld:asn1r.obj
 0001:0002d000       _asn1r_skip_elmnt          0042e000 f   asn1_ld:asn1r.obj
 0001:0002d0c0       __slogc                    0042e0c0 f   slog_ld:slog.obj
 0001:0002d100       __slog                     0042e100 f   slog_ld:slog.obj
 0001:0002d140       _slog                      0042e140 f   slog_ld:slog.obj
 0001:0002d180       _slogx                     0042e180 f   slog_ld:slog.obj
 0001:0002d590       _slogSetTimeText           0042e590 f   slog_ld:slog.obj
 0001:0002d6c0       _slogTrimFileName          0042e6c0 f   slog_ld:slog.obj
 0001:0002d740       _slogSetHdr                0042e740 f   slog_ld:slog.obj
 0001:0002d920       _slogCallStack             0042e920 f   slog_ld:slog.obj
 0001:0002d950       _slogDelBuf                0042e950 f   slog_ld:slog.obj
 0001:0002d9a0       _slog_max_msg_size_set     0042e9a0 f   slog_ld:slog.obj
 0001:0002da40       _slog_start                0042ea40 f   slog_ld:slog.obj
 0001:0002da70       _slog_end                  0042ea70 f   slog_ld:slog.obj
 0001:0002db50       __slogXML                  0042eb50 f   slog_ld:slog.obj
 0001:0002e0a0       _slogHex                   0042f0a0 f   slog_ld:sloghex.obj
 0001:0002e0c0       __slogHex                  0042f0c0 f   slog_ld:sloghex.obj
 0001:0002e5b0       __slogStr                  0042f5b0 f   slog_ld:sloghex.obj
 0001:0002e960       _slogFile                  0042f960 f   slog_ld:slogfil.obj
 0001:0002ee50       _slogCloseFile             0042fe50 f   slog_ld:slogfil.obj
 0001:0002eec0       _slogCloneFile             0042fec0 f   slog_ld:slogfil.obj
 0001:0002f010       _slogCloneFileEx           00430010 f   slog_ld:slogfil.obj
 0001:0002f160       _slogDeleteFile            00430160 f   slog_ld:slogfil.obj
 0001:0002f3b0       _slog_get_index_file_name  004303b0 f   slog_ld:slogfil.obj
 0001:0002fa40       _slogMem                   00430a40 f   slog_ld:slogmem.obj
 0001:0002fbf0       _slogDumpMem               00430bf0 f   slog_ld:slogmem.obj
 0001:0002fee0       _slogResetMem              00430ee0 f   slog_ld:slogmem.obj
 0001:0002ff80       _slogMemInit               00430f80 f   slog_ld:slogmem.obj
 0001:00030070       _slogGetMemMsg             00431070 f   slog_ld:slogmem.obj
 0001:000302a0       _slogGetMemCount           004312a0 f   slog_ld:slogmem.obj
 0001:00030320       _qMemInit                  00431320 f   slog_ld:qmem.obj
 0001:00030410       _qMemAlloc                 00431410 f   slog_ld:qmem.obj
 0001:00030580       _qMemFree                  00431580 f   slog_ld:qmem.obj
 0001:000305e0       _ms_asn1_to_local          004315e0 f   mmsl_ld:mmsdata.obj
 0001:00031e20       _ms_local_to_asn1          00432e20 f   mmsl_ld:mmsdata.obj
 0001:00032900       _ms_local_to_asn1_easy     00433900 f   mmsl_ld:mmsdata.obj
 0001:00032970       _ms_local_to_asn1_2        00433970 f   mmsl_ld:mmsdata.obj
 0001:00032a70       __ms_mk_rt_aa_all          00433a70 f   mmsl_ld:mms_rtaa.obj
 0001:00032de0       __ms_mk_rt_aa              00433de0 f   mmsl_ld:mms_rtaa.obj
 0001:00033f60       __ms_get_rtaa_data_size    00434f60 f   mmsl_ld:mms_rtaa.obj
 0001:00033fb0       __ms_log_runtime_aa        00434fb0 f   mmsl_ld:mms_rtaa.obj
 0001:00034590       __ms_set_cs_check          00435590 f   mmsl_ld:mms_ced.obj
 0001:000345b0       __ms_set_cs_check2         004355b0 f   mmsl_ld:mms_ced.obj
 0001:000345f0       __ms_chk_for_extern        004355f0 f   mmsl_ld:mms_ced.obj
 0001:000346a0       _mms_req_not_supp          004356a0 f   mmsl_ld:mms_ced.obj
 0001:00034710       _mms_rsp_not_supp          00435710 f   mmsl_ld:mms_ced.obj
 0001:00034750       __mms_null_pdu_dec         00435750 f   mmsl_ld:mms_ced.obj
 0001:00034790       __mms_dec_done_ok          00435790 f   mmsl_ld:mms_ced.obj
 0001:000347c0       __mms_dec_buf_free         004357c0 f   mmsl_ld:mms_ced.obj
 0001:000347e0       __ms_fin_pdu               004357e0 f   mmsl_ld:mms_ced.obj
 0001:00034820       __ms_fin_pdu_log           00435820 f   mmsl_ld:mms_ced.obj
 0001:000348d0       _mms_init_req              004358d0 f   mmsl_ld:rs_init.obj
 0001:00034910       _mpl_init_resp             00435910 f   mmsl_ld:rs_init.obj
 0001:000349c0       _mms_write_req             004359c0 f   mmsl_ld:rs_write.obj
 0001:00034cb0       _mpl_write_resp            00435cb0 f   mmsl_ld:rs_write.obj
 0001:00034cd0       __ms_mk_write_resp         00435cd0 f   mmsl_ld:rs_write.obj
 0001:00034d80       _mms_read_req              00435d80 f   mmsl_ld:rs_read.obj
 0001:00034f90       _mpl_read_resp             00435f90 f   mmsl_ld:rs_read.obj
 0001:00034fb0       __ms_mk_read_resp          00435fb0 f   mmsl_ld:rs_read.obj
 0001:00035090       __ms_mms_decode            00436090 f   mmsl_ld:mmsdec.obj
 0001:00035ca0       __m_get_dec_buf            00436ca0 f   mmsl_ld:mmsdec.obj
 0001:00035ce0       _mpl_init_err              00436ce0 f   mmsl_ld:mms_err2.obj
 0001:00035d00       __mms_fin_null_resp        00436d00 f   mmsl_ld:mmsl_fin.obj
 0001:00035dd0       __mms_fin_null_req         00436dd0 f   mmsl_ld:mmsl_fin.obj
 0001:00035ec0       __mms_resp_fin             00436ec0 f   mmsl_ld:mmsl_fin.obj
 0001:00035f90       __mms_req_fin              00436f90 f   mmsl_ld:mmsl_fin.obj
 0001:00036070       __mms_unconf_req_fin       00437070 f   mmsl_ld:mmsl_fin.obj
 0001:00036100       _mpl_resp_log              00437100 f   mmsl_ld:mmsl_fin.obj
 0001:00036180       _mpl_req_log               00437180 f   mmsl_ld:mmsl_fin.obj
 0001:000361d0       _mpl_unsol_req_log         004371d0 f   mmsl_ld:mmsl_fin.obj
 0001:00036220       _ms_rt_size_calc           00437220 f   mmsl_ld:mms_tdef.obj
 0001:000363c0       __ms_m_get_rt_info         004373c0 f   mmsl_ld:mms_tdef.obj
 0001:000369d0       _ms_get_blocked_length     004379d0 f   mmsl_ld:mms_tdef.obj
 0001:00036b60       _ms_log_runtime            00437b60 f   mmsl_ld:mms_tdef.obj
 0001:00037140       _ms_runtime_create         00438140 f   mmsl_ld:mms_tdef.obj
 0001:00038d20       _ms_runtime_destroy        00439d20 f   mmsl_ld:mms_tdef.obj
 0001:00038da0       _ms_is_rt_prim             00439da0 f   mmsl_ld:mms_tdef.obj
 0001:00038df0       _ms_rt_el_tag_text         00439df0 f   mmsl_ld:mms_tdef.obj
 0001:00038f20       _ms_rt_bld_start           00439f20 f   mmsl_ld:mms_tdef.obj
 0001:00038ff0       _ms_rt_bld_cancel          00439ff0 f   mmsl_ld:mms_tdef.obj
 0001:00039060       _ms_rt_bld_finish          0043a060 f   mmsl_ld:mms_tdef.obj
 0001:00039220       _ms_rt_bld_remove_last     0043a220 f   mmsl_ld:mms_tdef.obj
 0001:000392f0       _ms_rt_bld_chk_state       0043a2f0 f   mmsl_ld:mms_tdef.obj
 0001:00039380       _ms_rt_bld_get_count       0043a380 f   mmsl_ld:mms_tdef.obj
 0001:000393b0       _ms_rt_bld_get_max_count   0043a3b0 f   mmsl_ld:mms_tdef.obj
 0001:000393f0       _ms_rt_bld_add_str_start   0043a3f0 f   mmsl_ld:mms_tdef.obj
 0001:00039540       _ms_rt_bld_add_str_end     0043a540 f   mmsl_ld:mms_tdef.obj
 0001:000396c0       _ms_rt_bld_add_arr_start   0043a6c0 f   mmsl_ld:mms_tdef.obj
 0001:00039770       _ms_rt_bld_add_arr_end     0043a770 f   mmsl_ld:mms_tdef.obj
 0001:00039900       _ms_rt_bld_add_bool        0043a900 f   mmsl_ld:mms_tdef.obj
 0001:00039990       _ms_rt_bld_add_int         0043a990 f   mmsl_ld:mms_tdef.obj
 0001:00039a20       _ms_rt_bld_add_uint        0043aa20 f   mmsl_ld:mms_tdef.obj
 0001:00039ab0       _ms_rt_bld_add_float       0043aab0 f   mmsl_ld:mms_tdef.obj
 0001:00039b40       _ms_rt_bld_add_bstring     0043ab40 f   mmsl_ld:mms_tdef.obj
 0001:00039bd0       _ms_rt_bld_add_bvstring    0043abd0 f   mmsl_ld:mms_tdef.obj
 0001:00039c60       _ms_rt_bld_add_vstring     0043ac60 f   mmsl_ld:mms_tdef.obj
 0001:00039cf0       _ms_rt_bld_add_utctime     0043acf0 f   mmsl_ld:mms_tdef.obj
 0001:00039d80       _ms_rt_bld_add_btime6      0043ad80 f   mmsl_ld:mms_tdef.obj
 0001:00039e10       _ms_rt_bld_add_ostring     0043ae10 f   mmsl_ld:mms_tdef.obj
 0001:00039ea0       _ms_rt_bld_add_ovstring    0043aea0 f   mmsl_ld:mms_tdef.obj
 0001:00039f30       _ms_rt_bld_add_utf8vstring 0043af30 f   mmsl_ld:mms_tdef.obj
 0001:00039fc0       _ms_rt_bld_add_special     0043afc0 f   mmsl_ld:mms_tdef.obj
 0001:0003a060       _ms_mk_asn1_type           0043b060 f   mmsl_ld:ms_tdef.obj
 0001:0003b400       _ms_asn1_to_tdl            0043c400 f   mmsl_ld:ms_tdef.obj
 0001:0003b520       _ms_runtime_to_tdl         0043c520 f   mmsl_ld:ms_tdef.obj
 0001:0003bc40       _ms_tdl_to_runtime         0043cc40 f   mmsl_ld:ms_tdef.obj
 0001:0003bc90       _mms_reject                0043cc90 f   mmsl_ld:mms_rej.obj
 0001:0003be40       _mpl_reject_resp           0043ce40 f   mmsl_ld:mms_rej.obj
 0001:0003bef0       __ms_mk_reject             0043cef0 f   mmsl_ld:mms_rej.obj
 0001:0003bfa0       _mms_err_invoke_fun        0043cfa0 f   mmsl_ld:mms_err.obj
 0001:0003c0b0       _mms_err_rsp               0043d0b0 f   mmsl_ld:mms_err.obj
 0001:0003c100       __mms_get_service_err      0043d100 f   mmsl_ld:mms_err.obj
 0001:0003c990       _mpl_err_resp              0043d990 f   mmsl_ld:mms_err.obj
 0001:0003caa0       __ms_mk_err_resp           0043daa0 f   mmsl_ld:mms_err.obj
 0001:0003cc10       __ms_wr_service_err        0043dc10 f   mmsl_ld:mms_err.obj
 0001:0003cf00       _ms_asn1_to_local_aa       0043df00 f   mmsl_ld:msdataas.obj
 0001:0003cf40       _ms_local_to_asn1_aa       0043df40 f   mmsl_ld:msdataas.obj
 0001:0003cf80       _ms_asn1_to_aa             0043df80 f   mmsl_ld:mms_alta.obj
 0001:0003dad0       _ms_aa_to_asn1             0043ead0 f   mmsl_ld:mms_alta.obj
 0001:0003e140       _ms_log_alt_access         0043f140 f   mmsl_ld:mms_alta.obj
 0001:0003e510       _ms_aa_to_asn1_2           0043f510 f   mmsl_ld:mms_alta.obj
 0001:0003e580       _mpl_info                  0043f580 f   mmsl_ld:rq_info.obj
 0001:0003e5a0       __ms_mk_info_req           0043f5a0 f   mmsl_ld:rq_info.obj
 0001:0003e650       __mms_init_dec             0043f650 f   mmsl_ld:mmsinit.obj
 0001:0003ec70       __ms_mk_init               0043fc70 f   mmsl_ld:mmsinit.obj
 0001:0003eed0       __ms_get_va_address        0043fed0 f   mmsl_ld:mms_ced4.obj
 0001:0003f190       __ms_get_va_access_rslt    00440190 f   mmsl_ld:mms_ced4.obj
 0001:0003f3d0       __ms_get_va_data           004403d0 f   mmsl_ld:mms_ced4.obj
 0001:0003f460       __ms_get_va_type_spec      00440460 f   mmsl_ld:mms_ced4.obj
 0001:0003f4f0       __ms_get_va_scat_access    004404f0 f   mmsl_ld:mms_ced4.obj
 0001:0003f560       __ms_get_va_alt_access     00440560 f   mmsl_ld:mms_ced4.obj
 0001:0003f610       __ms_get_va_var_spec       00440610 f   mmsl_ld:mms_ced4.obj
 0001:0003f8f0       __ms_get_va_var_list       004408f0 f   mmsl_ld:mms_ced4.obj
 0001:0003fb10       __ms_get_va_spec           00440b10 f   mmsl_ld:mms_ced4.obj
 0001:0003fc80       __ms_wr_va_address         00440c80 f   mmsl_ld:mms_ced4.obj
 0001:0003fd30       __ms_wr_va_access_rslt     00440d30 f   mmsl_ld:mms_ced4.obj
 0001:0003fd80       __ms_wr_va_data            00440d80 f   mmsl_ld:mms_ced4.obj
 0001:0003fda0       __ms_wr_va_type_spec       00440da0 f   mmsl_ld:mms_ced4.obj
 0001:0003fdc0       __ms_wr_va_scat_access     00440dc0 f   mmsl_ld:mms_ced4.obj
 0001:0003fde0       __ms_wr_va_alt_access      00440de0 f   mmsl_ld:mms_ced4.obj
 0001:0003fe00       __ms_wr_va_var_spec        00440e00 f   mmsl_ld:mms_ced4.obj
 0001:0003ff40       __ms_wr_va_var_list        00440f40 f   mmsl_ld:mms_ced4.obj
 0001:00040000       __ms_wr_va_spec            00441000 f   mmsl_ld:mms_ced4.obj
 0001:00040090       __ms_get_mms_objname       00441090 f   mmsl_ld:mms_ced3.obj
 0001:00040380       __ms_wr_mms_objname        00441380 f   mmsl_ld:mms_ced3.obj
 0001:000404b0       _u_ml_get_rt_type          004414b0 f   mmsl_ld:ms_tdef4.obj
 0001:000404f0       _m_log_address             004414f0 f   mlog_ld:mlogavar.obj
 0001:000405a0       _m_log_var_list            004415a0 f   mlog_ld:mlogavar.obj
 0001:000406c0       _m_log_vaspec              004416c0 f   mlog_ld:mlogavar.obj
 0001:00040720       _m_log_var_spec            00441720 f   mlog_ld:mlogavar.obj
 0001:000407f0       _mlogArrStart              004417f0 f   mlog_ld:mlogavar.obj
 0001:00040810       _mlogArrEnd                00441810 f   mlog_ld:mlogavar.obj
 0001:00040830       _mlogStrStart              00441830 f   mlog_ld:mlogavar.obj
 0001:00040850       _mlogStrEnd                00441850 f   mlog_ld:mlogavar.obj
 0001:00040870       _mlogInt8                  00441870 f   mlog_ld:mlogavar.obj
 0001:000408a0       _mlogInt16                 004418a0 f   mlog_ld:mlogavar.obj
 0001:000408d0       _mlogInt32                 004418d0 f   mlog_ld:mlogavar.obj
 0001:00040900       _mlogInt64                 00441900 f   mlog_ld:mlogavar.obj
 0001:00040930       _mlogUint8                 00441930 f   mlog_ld:mlogavar.obj
 0001:00040960       _mlogUint16                00441960 f   mlog_ld:mlogavar.obj
 0001:00040990       _mlogUint32                00441990 f   mlog_ld:mlogavar.obj
 0001:000409c0       _mlogUint64                004419c0 f   mlog_ld:mlogavar.obj
 0001:000409f0       _mlogFlt                   004419f0 f   mlog_ld:mlogavar.obj
 0001:00040a30       _mlogDbl                   00441a30 f   mlog_ld:mlogavar.obj
 0001:00040a60       _mlogOct                   00441a60 f   mlog_ld:mlogavar.obj
 0001:00040b10       _mlogBool                  00441b10 f   mlog_ld:mlogavar.obj
 0001:00040b50       _mlogBcd1                  00441b50 f   mlog_ld:mlogavar.obj
 0001:00040b90       _mlogBcd2                  00441b90 f   mlog_ld:mlogavar.obj
 0001:00040bd0       _mlogBcd4                  00441bd0 f   mlog_ld:mlogavar.obj
 0001:00040c00       _mlogBs                    00441c00 f   mlog_ld:mlogavar.obj
 0001:00040cd0       _mlogVis                   00441cd0 f   mlog_ld:mlogavar.obj
 0001:00040cf0       _mlogBt4                   00441cf0 f   mlog_ld:mlogavar.obj
 0001:00040d30       _mlogBt6                   00441d30 f   mlog_ld:mlogavar.obj
 0001:00040da0       _mlogGt                    00441da0 f   mlog_ld:mlogavar.obj
 0001:00040df0       _mlogUtc                   00441df0 f   mlog_ld:mlogavar.obj
 0001:00040e70       _mlogUtf8                  00441e70 f   mlog_ld:mlogavar.obj
 0001:00040eb0       _m_log_data                00441eb0 f   mlog_ld:mlogavar.obj
 0001:00041040       _m_log_tdl                 00442040 f   mlog_ld:mlogavar.obj
 0001:00041180       _m_log_external            00442180 f   mlog_ld:mlogmisc.obj
 0001:00041310       _m_log_objname             00442310 f   mlog_ld:mlogmisc.obj
 0001:000413c0       _m_log_modifier            004423c0 f   mlog_ld:mlogmisc.obj
 0001:000417c0       _m_log_error_info          004427c0 f   mlog_ld:mlogmisc.obj
 0001:00041930       _m_get_mms_err_text        00442930 f   mlog_ld:mlogmisc.obj
 0001:00041bb0       _m_get_mms_rej_text        00442bb0 f   mlog_ld:mlogmisc.obj
 0001:00041e20       _m_log_reject_info         00442e20 f   mlog_ld:mlogmisc.obj
 0001:00041f20       _m_no_log_resp             00442f20 f   mlog_ld:mlogmisc.obj
 0001:00041f30       _m_no_log_req              00442f30 f   mlog_ld:mlogmisc.obj
 0001:00041f40       _gs_mutex_create           00442f40 f   utility_ld:glbsem_w32.obj
 0001:00041f80       _gs_translate_name         00442f80 f   utility_ld:glbsem_w32.obj
 0001:00042030       _gs_named_mutex_create     00443030 f   utility_ld:glbsem_w32.obj
 0001:00042300       _gs_mutex_get_tm           00443300 f   utility_ld:glbsem_w32.obj
 0001:00042370       _gs_mutex_free             00443370 f   utility_ld:glbsem_w32.obj
 0001:00042420       _gs_mutex_destroy          00443420 f   utility_ld:glbsem_w32.obj
 0001:000424b0       _gs_get_event_sem          004434b0 f   utility_ld:glbsem_w32.obj
 0001:00042520       _gs_get_named_event_sem    00443520 f   utility_ld:glbsem_w32.obj
 0001:00042670       _gs_wait_event_sem         00443670 f   utility_ld:glbsem_w32.obj
 0001:00042760       _gs_wait_mult_event_sem    00443760 f   utility_ld:glbsem_w32.obj
 0001:00042890       _gs_signal_event_sem       00443890 f   utility_ld:glbsem_w32.obj
 0001:00042900       _gs_pulse_event_sem        00443900 f   utility_ld:glbsem_w32.obj
 0001:00042970       _gs_reset_event_sem        00443970 f   utility_ld:glbsem_w32.obj
 0001:000429e0       _gs_free_event_sem         004439e0 f   utility_ld:glbsem_w32.obj
 0001:00042a50       _gs_start_thread           00443a50 f   utility_ld:glbsem_w32.obj
 0001:00042b30       _gs_wait_thread            00443b30 f   utility_ld:glbsem_w32.obj
 0001:00042c20       _gs_close_thread           00443c20 f   utility_ld:glbsem_w32.obj
 0001:00042ce0       _gs_set_thread_name        00443ce0 f   utility_ld:glbsem_w32.obj
 0001:00042d70       _gs_is_win_ver             00443d70 f   utility_ld:glbsem_w32.obj
 0001:00043180       _list_unlink               00444180 f   utility_ld:genlists.obj
 0001:00043290       _list_add_first            00444290 f   utility_ld:genlists.obj
 0001:00043330       _list_add_last             00444330 f   utility_ld:genlists.obj
 0001:000433d0       _list_get_first            004443d0 f   utility_ld:genlists.obj
 0001:00043400       _list_get_last             00444400 f   utility_ld:genlists.obj
 0001:00043440       _list_move_to_first        00444440 f   utility_ld:genlists.obj
 0001:00043480       _list_find_node            00444480 f   utility_ld:genlists.obj
 0001:000434f0       _list_add_node_after       004444f0 f   utility_ld:genlists.obj
 0001:000435a0       _list_get_next             004445a0 f   utility_ld:genlists.obj
 0001:00043620       _list_get_sizeof           00444620 f   utility_ld:genlists.obj
 0001:00043660       _list_find_prev            00444660 f   utility_ld:genlists.obj
 0001:000436e0       _list_find_last            004446e0 f   utility_ld:genlists.obj
 0001:00043710       _sxd_get_runtime           00444710 f   utility_ld:sx_data.obj
 0001:00043770       _sxd_process_arb_data      00444770 f   utility_ld:sx_data.obj
 0001:00044c30       __sxd_wr_data              00445c30 f   utility_ld:sx_data.obj
 0001:00044c90       _sxd_wr_rtdata             00445c90 f   utility_ld:sx_data.obj
 0001:00044d00       __sxd_decode_data_el       00445d00 f   utility_ld:sx_data.obj
 0001:00044d70       _sxd_decode_rtdata_el      00445d70 f   utility_ld:sx_data.obj
 0001:00047b00       _stimeInit                 00448b00 f   utility_ld:stime.obj
 0001:00047c10       _sGetMsTime                00448c10 f   utility_ld:stime.obj
 0001:00047c70       _sGetSysMsTime             00448c70 f   utility_ld:stime.obj
 0001:00047cc0       _sResetMsTime              00448cc0 f   utility_ld:stime.obj
 0001:00047d00       _stimeExit                 00448d00 f   utility_ld:stime.obj
 0001:00047d40       _sMsSleep                  00448d40 f   utility_ld:stime.obj
 0001:00047d50       _construct_flattened       00448d50 f   utility_ld:sclparse.obj
 0001:00047e80       _scl_parse                 00448e80 f   utility_ld:sclparse.obj
 0001:0004b880       _scl_lntype_create         0044c880 f   utility_ld:sclstore.obj
 0001:0004b8c0       _scl_lntype_add_do         0044c8c0 f   utility_ld:sclstore.obj
 0001:0004b950       _scl_dotype_create         0044c950 f   utility_ld:sclstore.obj
 0001:0004b990       _scl_dotype_add_da         0044c990 f   utility_ld:sclstore.obj
 0001:0004ba30       _scl_dotype_add_sdo        0044ca30 f   utility_ld:sclstore.obj
 0001:0004bad0       _scl_datype_create         0044cad0 f   utility_ld:sclstore.obj
 0001:0004bb10       _scl_datype_add_bda        0044cb10 f   utility_ld:sclstore.obj
 0001:0004bba0       _scl_enumtype_create       0044cba0 f   utility_ld:sclstore.obj
 0001:0004bbe0       _scl_enumtype_add_enumval  0044cbe0 f   utility_ld:sclstore.obj
 0001:0004bc70       _scl_fcda_add              0044cc70 f   utility_ld:sclstore.obj
 0001:0004bd30       _scl_dai_add               0044cd30 f   utility_ld:sclstore.obj
 0001:0004bde0       _scl_dataset_add           0044cde0 f   utility_ld:sclstore.obj
 0001:0004be90       _scl_rcb_add               0044ce90 f   utility_ld:sclstore.obj
 0001:0004bf40       _scl_lcb_add               0044cf40 f   utility_ld:sclstore.obj
 0001:0004bff0       _scl_gcb_add               0044cff0 f   utility_ld:sclstore.obj
 0001:0004c0a0       _scl_sgcb_add              0044d0a0 f   utility_ld:sclstore.obj
 0001:0004c1a0       _scl_svcb_add              0044d1a0 f   utility_ld:sclstore.obj
 0001:0004c250       _scl_ln_add                0044d250 f   utility_ld:sclstore.obj
 0001:0004c2e0       _scl_ld_create             0044d2e0 f   utility_ld:sclstore.obj
 0001:0004c330       _scl_subnet_add            0044d330 f   utility_ld:sclstore.obj
 0001:0004c380       _scl_cap_add               0044d380 f   utility_ld:sclstore.obj
 0001:0004c410       _scl_gse_add               0044d410 f   utility_ld:sclstore.obj
 0001:0004c4b0       _scl_smv_add               0044d4b0 f   utility_ld:sclstore.obj
 0001:0004c550       _scl_info_destroy          0044d550 f   utility_ld:sclstore.obj
 0001:0004cc30       _sockStart                 0044dc30 f   utility_ld:gensock2.obj
 0001:0004cc50       _sockStartEx               0044dc50 f   utility_ld:gensock2.obj
 0001:0004cf40       _sockEnd                   0044df40 f   utility_ld:gensock2.obj
 0001:0004d120       _sockInitCalling           0044e120 f   utility_ld:gensock2.obj
 0001:0004d6a0       _sockInitListen            0044e6a0 f   utility_ld:gensock2.obj
 0001:0004dad0       _sockTxMsg                 0044ead0 f   utility_ld:gensock2.obj
 0001:0004db10       _sockTxQueueAdd            0044eb10 f   utility_ld:gensock2.obj
 0001:0004dbc0       _sockTxQueueDestroy        0044ebc0 f   utility_ld:gensock2.obj
 0001:0004dc50       _sockTxQueueProc           0044ec50 f   utility_ld:gensock2.obj
 0001:0004de10       _sockTxQueueGroupCntGet    0044ee10 f   utility_ld:gensock2.obj
 0001:0004de60       _sockTx                    0044ee60 f   utility_ld:gensock2.obj
 0001:0004df30       __sockTx                   0044ef30 f   utility_ld:gensock2.obj
 0001:0004e1f0       _sockClose                 0044f1f0 f   utility_ld:gensock2.obj
 0001:0004e2f0       _sockFree                  0044f2f0 f   utility_ld:gensock2.obj
 0001:0004e540       _sockServiceWakeAll        0044f540 f   utility_ld:gensock2.obj
 0001:0004e580       _sockServiceWake           0044f580 f   utility_ld:gensock2.obj
 0001:0004e6b0       _sockCtrlService           0044f6b0 f   utility_ld:gensock2.obj
 0001:0004e970       _sockInitFds               0044f970 f   utility_ld:gensock2.obj
 0001:0004eaa0       _sockAddReadFds            0044faa0 f   utility_ld:gensock2.obj
 0001:0004eb50       _sockAddWriteFds           0044fb50 f   utility_ld:gensock2.obj
 0001:0004ec10       _sockAddExceptFds          0044fc10 f   utility_ld:gensock2.obj
 0001:0004ecd0       _sockSelectResultProcess   0044fcd0 f   utility_ld:gensock2.obj
 0001:0004fd50       __sockRecv                 00450d50 f   utility_ld:gensock2.obj
 0001:0004ff10       __sockAllocSock            00450f10 f   utility_ld:gensock2.obj
 0001:00050210       __sockAddSock              00451210 f   utility_ld:gensock2.obj
 0001:000507c0       _sockCreateWakeupSockets   004517c0 f   utility_ld:gensock2.obj
 0001:00050f20       _sockLogState              00451f20 f   utility_ld:gensock2.obj
 0001:000510a0       _sockLogSockState          004520a0 f   utility_ld:gensock2.obj
 0001:000512b0       _sockGetRemAddrInfo        004522b0 f   utility_ld:gensock2.obj
 0001:00051350       _sockUsrFun                00452350 f   utility_ld:gensock2.obj
 0001:000514e0       _convertIPAddr             004524e0 f   utility_ld:gensock2.obj
 0001:00051750       _sockEventPut              00452750 f   utility_ld:gensock2.obj
 0001:000517a0       _sockEventGet              004527a0 f   utility_ld:gensock2.obj
 0001:000517f0       _sockEventQueueFlush       004527f0 f   utility_ld:gensock2.obj
 0001:00051880       _gs_init                   00452880 f   utility_ld:glbsem.obj
 0001:00051900       _gs_log_sem_state          00452900 f   utility_ld:glbsem.obj
 0001:000519c0       _gs_get_semx               004529c0 f   utility_ld:glbsem.obj
 0001:00051b70       _gs_free_semx              00452b70 f   utility_ld:glbsem.obj
 0001:00051e10       _sx_parseExx_mt            00452e10 f   utility_ld:sx_dec.obj
 0001:00052000       _sx_parse_mt               00453000 f   utility_ld:sx_dec.obj
 0001:00052160       _sx_parseEx_mt             00453160 f   utility_ld:sx_dec.obj
 0001:00052300       _sxStartElement            00453300 f   utility_ld:sx_dec.obj
 0001:00052630       _sxEndElement              00453630 f   utility_ld:sx_dec.obj
 0001:00052820       _sx_push                   00453820 f   utility_ld:sx_dec.obj
 0001:000528f0       _sx_pop                    004538f0 f   utility_ld:sx_dec.obj
 0001:00052a10       __uibed_find_element       00453a10 f   utility_ld:sx_dec.obj
 0001:00052aa0       _sx_get_element_contents   00453aa0 f   utility_ld:sx_dec.obj
 0001:00052b80       _sx_find_element_contents  00453b80 f   utility_ld:sx_dec.obj
 0001:00052cf0       _sx_get_entity             00453cf0 f   utility_ld:sx_dec.obj
 0001:00052e10       _sx_get_bool               00453e10 f   utility_ld:sx_dec.obj
 0001:00052e60       _sx_get_int                00453e60 f   utility_ld:sx_dec.obj
 0001:00052e80       _sx_get_float              00453e80 f   utility_ld:sx_dec.obj
 0001:00052ea0       _sx_get_double             00453ea0 f   utility_ld:sx_dec.obj
 0001:00052ec0       _sx_get_uchar              00453ec0 f   utility_ld:sx_dec.obj
 0001:00052ee0       _sx_get_int16              00453ee0 f   utility_ld:sx_dec.obj
 0001:00052f20       _sx_get_uint16             00453f20 f   utility_ld:sx_dec.obj
 0001:00052f40       _sx_get_uint32             00453f40 f   utility_ld:sx_dec.obj
 0001:00052f80       _sx_get_uint32_hex         00453f80 f   utility_ld:sx_dec.obj
 0001:00052fc0       _sx_get_int32              00453fc0 f   utility_ld:sx_dec.obj
 0001:00053000       _sx_get_long               00454000 f   utility_ld:sx_dec.obj
 0001:00053020       _sx_get_ulong              00454020 f   utility_ld:sx_dec.obj
 0001:00053040       _sx_get_uint               00454040 f   utility_ld:sx_dec.obj
 0001:00053060       _sx_get_value              00454060 f   utility_ld:sx_dec.obj
 0001:00053100       _sx_get_alloc_string       00454100 f   utility_ld:sx_dec.obj
 0001:00053160       _sx_get_string             00454160 f   utility_ld:sx_dec.obj
 0001:00053210       _sx_format_string_dec      00454210 f   utility_ld:sx_dec.obj
 0001:000533f0       _sx_get_bool_attr          004543f0 f   utility_ld:sx_dec.obj
 0001:00053440       _sx_get_int_attr           00454440 f   utility_ld:sx_dec.obj
 0001:00053460       _sx_get_float_attr         00454460 f   utility_ld:sx_dec.obj
 0001:00053480       _sx_get_double_attr        00454480 f   utility_ld:sx_dec.obj
 0001:000534a0       _sx_get_uchar_attr         004544a0 f   utility_ld:sx_dec.obj
 0001:000534c0       _sx_get_int16_attr         004544c0 f   utility_ld:sx_dec.obj
 0001:00053500       _sx_get_uint16_attr        00454500 f   utility_ld:sx_dec.obj
 0001:00053540       _sx_get_uint32_attr        00454540 f   utility_ld:sx_dec.obj
 0001:00053580       _sx_get_int32_attr         00454580 f   utility_ld:sx_dec.obj
 0001:000535c0       _sx_get_long_attr          004545c0 f   utility_ld:sx_dec.obj
 0001:000535e0       _sx_get_ulong_attr         004545e0 f   utility_ld:sx_dec.obj
 0001:00053600       _sx_get_uint_attr          00454600 f   utility_ld:sx_dec.obj
 0001:00053620       _XmlStringToDuration       00454620 f   utility_ld:sx_dec.obj
 0001:000539d0       _sx_get_duration_attr      004549d0 f   utility_ld:sx_dec.obj
 0001:00053a80       _sx_get_xtime_attr         00454a80 f   utility_ld:sx_dec.obj
 0001:00053b30       _sx_get_tm_attr            00454b30 f   utility_ld:sx_dec.obj
 0001:00053be0       _sx_get_attr_value         00454be0 f   utility_ld:sx_dec.obj
 0001:00053cc0       _sx_get_attr               00454cc0 f   utility_ld:sx_dec.obj
 0001:00053d40       _sx_get_attr_ptr           00454d40 f   utility_ld:sx_dec.obj
 0001:00053db0       _sx_get_bitstring          00454db0 f   utility_ld:sx_dec.obj
 0001:00053f60       _sx_get_string_ptr         00454f60 f   utility_ld:sx_dec.obj
 0001:00053fc0       _sx_get_string_YesNo       00454fc0 f   utility_ld:sx_dec.obj
 0001:00054080       _sx_get_string_OnOff_mask  00455080 f   utility_ld:sx_dec.obj
 0001:00054150       _sx_get_string_OnOff_bool  00455150 f   utility_ld:sx_dec.obj
 0001:00054210       _sx_get_time               00455210 f   utility_ld:sx_dec.obj
 0001:000542c0       _sx_get_tm                 004552c0 f   utility_ld:sx_dec.obj
 0001:00054360       _sx_get_tm_ex              00455360 f   utility_ld:sx_dec.obj
 0001:00054500       _sx_get_duration           00455500 f   utility_ld:sx_dec.obj
 0001:000545b0       _sx_get_xtime              004555b0 f   utility_ld:sx_dec.obj
 0001:00054660       _sx_get_time_ex            00455660 f   utility_ld:sx_dec.obj
 0001:00054820       _sx_rip_xml                00455820 f   utility_ld:sx_dec.obj
 0001:00056550       _sx_load_characters        00457550 f   utility_ld:sx_dec.obj
 0001:000565f0       _sxaLocalToText            004575f0 f   utility_ld:sx_axs4d.obj
 0001:00056620       _sxaLocalToText2           00457620 f   utility_ld:sx_axs4d.obj
 0001:00056f90       _sxaTextToLocal            00457f90 f   utility_ld:sx_axs4d.obj
 0001:00058d10       _sx_add_string             00459d10 f   utility_ld:sx_enc.obj
 0001:00058d40       _sx_add_buf                00459d40 f   utility_ld:sx_enc.obj
 0001:00058ea0       _sx_start_encode           00459ea0 f   utility_ld:sx_enc.obj
 0001:00058ee0       _sx_start_encodeEx         00459ee0 f   utility_ld:sx_enc.obj
 0001:00058f40       _sx_init_encode            00459f40 f   utility_ld:sx_enc.obj
 0001:00058fe0       _sx_init_encodeEx          00459fe0 f   utility_ld:sx_enc.obj
 0001:00059100       _sx_end_encode             0045a100 f   utility_ld:sx_enc.obj
 0001:00059200       _sx_end_element            0045a200 f   utility_ld:sx_enc.obj
 0001:00059250       _sx_write_element          0045a250 f   utility_ld:sx_enc.obj
 0001:0005a550       _sx_wr_string              0045b550 f   utility_ld:sx_enc.obj
 0001:0005a900       _sx_wrx_string_el          0045b900 f   utility_ld:sx_enc.obj
 0001:0005a960       _sx_wr_nstring             0045b960 f   utility_ld:sx_enc.obj
 0001:0005acc0       _sx_wrx_nstring_el         0045bcc0 f   utility_ld:sx_enc.obj
 0001:0005ad20       _sx_wr_bitstring           0045bd20 f   utility_ld:sx_enc.obj
 0001:0005b050       _sx_wrx_bitstring_el       0045c050 f   utility_ld:sx_enc.obj
 0001:0005b0b0       _sx_wr_int                 0045c0b0 f   utility_ld:sx_enc.obj
 0001:0005b2a0       _sx_wrx_int_el             0045c2a0 f   utility_ld:sx_enc.obj
 0001:0005b300       _sx_wr_uint                0045c300 f   utility_ld:sx_enc.obj
 0001:0005b4f0       _sx_wrx_uint_el            0045c4f0 f   utility_ld:sx_enc.obj
 0001:0005b550       _sx_wr_ulong               0045c550 f   utility_ld:sx_enc.obj
 0001:0005b740       _sx_wrx_ulong_el           0045c740 f   utility_ld:sx_enc.obj
 0001:0005b7a0       _sx_wr_uint32_hex          0045c7a0 f   utility_ld:sx_enc.obj
 0001:0005b990       _sx_wrx_uint32_hex_el      0045c990 f   utility_ld:sx_enc.obj
 0001:0005b9f0       _sx_wr_double              0045c9f0 f   utility_ld:sx_enc.obj
 0001:0005bbe0       _sx_wrx_double_el          0045cbe0 f   utility_ld:sx_enc.obj
 0001:0005bc40       _sx_wr_float               0045cc40 f   utility_ld:sx_enc.obj
 0001:0005be30       _sx_wrx_float_el           0045ce30 f   utility_ld:sx_enc.obj
 0001:0005be90       _sx_wr_long                0045ce90 f   utility_ld:sx_enc.obj
 0001:0005c080       _sx_wrx_long_el            0045d080 f   utility_ld:sx_enc.obj
 0001:0005c0e0       _sx_wr_bool                0045d0e0 f   utility_ld:sx_enc.obj
 0001:0005c3b0       _sx_wrx_bool_el            0045d3b0 f   utility_ld:sx_enc.obj
 0001:0005c410       _sx_wr_time                0045d410 f   utility_ld:sx_enc.obj
 0001:0005c630       _sx_wr_tm                  0045d630 f   utility_ld:sx_enc.obj
 0001:0005c830       _XmlDurationToString       0045d830 f   utility_ld:sx_enc.obj
 0001:0005cb80       _sx_wr_duration            0045db80 f   utility_ld:sx_enc.obj
 0001:0005cd70       _sx_wr_xtime               0045dd70 f   utility_ld:sx_enc.obj
 0001:0005cfe0       _sx_wrx_duration_el        0045dfe0 f   utility_ld:sx_enc.obj
 0001:0005d040       _sx_wrx_xtime_el           0045e040 f   utility_ld:sx_enc.obj
 0001:0005d0a0       _sx_wrx_time_el            0045e0a0 f   utility_ld:sx_enc.obj
 0001:0005d100       _sx_wrx_tm_el              0045e100 f   utility_ld:sx_enc.obj
 0001:0005d160       _sx_wr_cdata               0045e160 f   utility_ld:sx_enc.obj
 0001:0005d6b0       _sx_wrx_cdata_el           0045e6b0 f   utility_ld:sx_enc.obj
 0001:0005d710       _sx_wr_comment             0045e710 f   utility_ld:sx_enc.obj
 0001:0005df30       _sx_format_string_enc      0045ef30 f   utility_ld:sx_enc.obj
 0001:0005e080       _sx_format_nstring_enc     0045f080 f   utility_ld:sx_enc.obj
 0001:0005e1e0       _ascii_to_hex_str          0045f1e0 f   utility_ld:str_util.obj
 0001:0005e300       _hex_to_ascii_str          0045f300 f   utility_ld:str_util.obj
 0001:0005e400       _strnstr                   0045f400 f   utility_ld:str_util.obj
 0001:0005e4c0       _strncat_maxstrlen         0045f4c0 f   utility_ld:str_util.obj
 0001:0005e510       _strncpy_safe              0045f510 f   utility_ld:str_util.obj
 0001:0005e540       _asciiToSlong              0045f540 f   utility_ld:str_util.obj
 0001:0005e590       _asciiToUlong              0045f590 f   utility_ld:str_util.obj
 0001:0005e5e0       _asciiToSint               0045f5e0 f   utility_ld:str_util.obj
 0001:0005e640       _asciiToUint               0045f640 f   utility_ld:str_util.obj
 0001:0005e6a0       _asciiToSint32             0045f6a0 f   utility_ld:str_util.obj
 0001:0005e700       _asciiToUint32             0045f700 f   utility_ld:str_util.obj
 0001:0005e760       _asciiToSint16             0045f760 f   utility_ld:str_util.obj
 0001:0005e7e0       _asciiToUint16             0045f7e0 f   utility_ld:str_util.obj
 0001:0005e850       _asciiToUchar              0045f850 f   utility_ld:str_util.obj
 0001:0005e8c0       _asciiToSint8              0045f8c0 f   utility_ld:str_util.obj
 0001:0005e930       _asciiToUint8              0045f930 f   utility_ld:str_util.obj
 0001:0005e9a0       _asciiToFloat              0045f9a0 f   utility_ld:str_util.obj
 0001:0005ea20       _asciiToDouble             0045fa20 f   utility_ld:str_util.obj
 0001:0005ea70       _sInt8ToAscii              0045fa70 f   utility_ld:str_util.obj
 0001:0005ea90       _uInt8ToAscii              0045fa90 f   utility_ld:str_util.obj
 0001:0005eab0       _sInt16ToAscii             0045fab0 f   utility_ld:str_util.obj
 0001:0005ead0       _uInt16ToAscii             0045fad0 f   utility_ld:str_util.obj
 0001:0005eaf0       _sInt32ToAscii             0045faf0 f   utility_ld:str_util.obj
 0001:0005eb10       _uInt32ToAscii             0045fb10 f   utility_ld:str_util.obj
 0001:0005eb30       _sIntToAscii               0045fb30 f   utility_ld:str_util.obj
 0001:0005eb50       _uIntToAscii               0045fb50 f   utility_ld:str_util.obj
 0001:0005eb70       _sLongToAscii              0045fb70 f   utility_ld:str_util.obj
 0001:0005eb90       _uLongToAscii              0045fb90 f   utility_ld:str_util.obj
 0001:0005eca0       _getKeywordFromFile        0045fca0 f   utility_ld:str_util.obj
 0001:0005eee0       _get_next_string           0045fee0 f   utility_ld:str_util.obj
 0001:0005f010       _StdTimeRet                00460010 f   utility_ld:stdtime.obj
 0001:0005f040       _StdTimeYearIsLeap         00460040 f   utility_ld:stdtime.obj
 0001:0005f0c0       _StdTimeDaysInYearMon      004600c0 f   utility_ld:stdtime.obj
 0001:0005f120       _StdTimeToStdTimeFields    00460120 f   utility_ld:stdtime.obj
 0001:0005f310       _StdTimeFieldsToStdTime    00460310 f   utility_ld:stdtime.obj
 0001:0005f4f0       _StdTimeToStdTimeStringA   004604f0 f   utility_ld:stdtime.obj
 0001:0005f620       _StdTimeStringAToStdTime   00460620 f   utility_ld:stdtime.obj
 0001:0005f6b0       _StdTimeStringAToStdTimeFields 004606b0 f   utility_ld:stdtime.obj
 0001:0005fb80       _GetStdTime                00460b80 f   utility_ld:stdtime.obj
 0001:0005fbe0       _ValidStdTimeFields        00460be0 f   utility_ld:stdtime.obj
 0001:0005fdf0       _StdTimeFields_AddFraction 00460df0 f   utility_ld:stdtime.obj
 0001:00060030       _StdTime_AddSpan           00461030 f   utility_ld:stdtime.obj
 0001:00060080       _StdTimeFields_AddSpan     00461080 f   utility_ld:stdtime.obj
 0001:00060100       _StdTime_SubSpan           00461100 f   utility_ld:stdtime.obj
 0001:00060150       _StdTime_AddDelta          00461150 f   utility_ld:stdtime.obj
 0001:000601b0       _StdTimeFields_AddDelta    004611b0 f   utility_ld:stdtime.obj
 0001:00060210       _StdTime_SubDelta          00461210 f   utility_ld:stdtime.obj
 0001:00060270       _StdTime_GetSpan           00461270 f   utility_ld:stdtime.obj
 0001:000602e0       _StdTime_GetDelta          004612e0 f   utility_ld:stdtime.obj
 0001:00060350       _NormalizeStdTimeDelta     00461350 f   utility_ld:stdtime.obj
 0001:00060390       _TruncStdTimeDelta         00461390 f   utility_ld:stdtime.obj
 0001:000607f0       _RoundStdTimeDelta         004617f0 f   utility_ld:stdtime.obj
 0001:00060b20       _StdTimeDeltaToStdTimeSpan 00461b20 f   utility_ld:stdtime.obj
 0001:00060d20       _StdTimeSpanToStdTimeDelta 00461d20 f   utility_ld:stdtime.obj
 0001:00060f50       _ValidStdTimeDelta         00461f50 f   utility_ld:stdtime.obj
 0001:00060f90       _ValidStdTimeSpan          00461f90 f   utility_ld:stdtime.obj
 0001:00060fd0       _SgnStdTimeDelta           00461fd0 f   utility_ld:stdtime.obj
 0001:000610e0       _AbsStdTimeDelta           004620e0 f   utility_ld:stdtime.obj
 0001:00061150       _NegStdTimeDelta           00462150 f   utility_ld:stdtime.obj
 0001:000611f0       _SgnStdTimeSpan            004621f0 f   utility_ld:stdtime.obj
 0001:00061250       _AbsStdTimeSpan            00462250 f   utility_ld:stdtime.obj
 0001:000612e0       _NegStdTimeSpan            004622e0 f   utility_ld:stdtime.obj
 0001:00061330       _CompareStdTime            00462330 f   utility_ld:stdtime.obj
 0001:000613a0       _CompareStdTimeFields      004623a0 f   utility_ld:stdtime.obj
 0001:00061550       _StdTimeToFileTime         00462550 f   utility_ld:stdtime.obj
 0001:000615a0       _FileTimeToStdTime         004625a0 f   utility_ld:stdtime.obj
 0001:000615f0       _StdTimeFieldsToFileTime   004625f0 f   utility_ld:stdtime.obj
 0001:00061710       _FileTimeToStdTimeFields   00462710 f   utility_ld:stdtime.obj
 0001:00061930       _StdTimeToSystemTimeEx     00462930 f   utility_ld:stdtime.obj
 0001:000619e0       _SystemTimeExToStdTime     004629e0 f   utility_ld:stdtime.obj
 0001:00061a80       _StdTimeFieldsToSystemTimeEx 00462a80 f   utility_ld:stdtime.obj
 0001:00061c10       _SystemTimeExToStdTimeFields 00462c10 f   utility_ld:stdtime.obj
 0001:00061d20       _StdTimeToSystemTime       00462d20 f   utility_ld:stdtime.obj
 0001:00061d60       _SystemTimeToStdTime       00462d60 f   utility_ld:stdtime.obj
 0001:00061da0       _StdTimeApiZeroDbTimeStamp 00462da0 f   utility_ld:stdtime.obj
 0001:00061de0       _StdTimeToDbTimeStamp      00462de0 f   utility_ld:stdtime.obj
 0001:00061e90       _DbTimeStampToStdTime      00462e90 f   utility_ld:stdtime.obj
 0001:00061f20       _StdTimeFieldsToDbTimeStamp 00462f20 f   utility_ld:stdtime.obj
 0001:00062040       _DbTimeStampToStdTimeFields 00463040 f   utility_ld:stdtime.obj
 0001:00062170       _StdTimeToStructTmEx       00463170 f   utility_ld:stdtime.obj
 0001:000621f0       _StructTmExToStdTime       004631f0 f   utility_ld:stdtime.obj
 0001:00062270       _StdTimeToTimeTypeEx       00463270 f   utility_ld:stdtime.obj
 0001:00062360       _TimeTypeExToStdTime       00463360 f   utility_ld:stdtime.obj
 0001:00062450       _StdTimeFields             00463450 f   utility_ld:stdtime.obj
 0001:000624b0       _StdTimeDelta              004634b0 f   utility_ld:stdtime.obj
 0001:00062500       _StdTimeSpan               00463500 f   utility_ld:stdtime.obj
 0001:00062520       _ZeroStdTime               00463520 f   utility_ld:stdtime.obj
 0001:00062540       _ZeroStdTimeFields         00463540 f   utility_ld:stdtime.obj
 0001:00062580       _ZeroStdTimeStringA        00463580 f   utility_ld:stdtime.obj
 0001:000625f0       _ZeroStdTimeDelta          004635f0 f   utility_ld:stdtime.obj
 0001:00062630       _ZeroStdTimeSpan           00463630 f   utility_ld:stdtime.obj
 0001:00062650       _ZeroStdTimeTzoA           00463650 f   utility_ld:stdtime.obj
 0001:000626a0       _ZeroStdTimeErrMsgA        004636a0 f   utility_ld:stdtime.obj
 0001:00062730       _StdTimeApiZeroFileTime    00463730 f   utility_ld:stdtime.obj
 0001:00062750       _StdTimeApiZeroSystemTime  00463750 f   utility_ld:stdtime.obj
 0001:00062790       _StdTimeApiZeroStructTm    00463790 f   utility_ld:stdtime.obj
 0001:000627d0       _StdTimeGetDayofWeekAndYear 004637d0 f   utility_ld:stdtime.obj
 0001:00062820       _StdTimeToDate             00463820 f   utility_ld:stdtime.obj
 0001:000628f0       _DateToStdTime             004638f0 f   utility_ld:stdtime.obj
 0001:000629b0       _StdTimeFieldsToDate       004639b0 f   utility_ld:stdtime.obj
 0001:00062a00       _DateToStdTimeFields       00463a00 f   utility_ld:stdtime.obj
 0001:00062a50       _StdTimeToLocalStdTime     00463a50 f   utility_ld:stdtime.obj
 0001:00062ae0       _LocalStdTimeToStdTime     00463ae0 f   utility_ld:stdtime.obj
 0001:00062b70       _NormalizeStdTimeTzoA      00463b70 f   utility_ld:stdtime.obj
 0001:00062f40       _StdTimeRcToErrMsgA        00463f40 f   utility_ld:stdtime.obj
 0001:00063200       _StdTimeApiZeroMmsTimeOfDay6 00464200 f   utility_ld:stdtime_mms_btime.obj
 0001:00063220       _StdTimeToMmsTimeOfDay6Ex  00464220 f   utility_ld:stdtime_mms_btime.obj
 0001:00063340       _MmsTimeOfDay6ExToStdTime  00464340 f   utility_ld:stdtime_mms_btime.obj
 0001:00063440       _StdTimeToMmsTimeOfDay6    00464440 f   utility_ld:stdtime_mms_btime.obj
 0001:00063480       _MmsTimeOfDay6ToStdTime    00464480 f   utility_ld:stdtime_mms_btime.obj
 0001:000634c0       _StdTimeApiZeroMmsUtcTime  004644c0 f   utility_ld:stdtime_mms_utctime.obj
 0001:000634f0       _StdTimeToMmsUtcTime       004644f0 f   utility_ld:stdtime_mms_utctime.obj
 0001:000635f0       _MmsUtcTimeToStdTime       004645f0 f   utility_ld:stdtime_mms_utctime.obj
 0001:00063710       _tstrTimeToString          00464710 f   utility_ld:time_str.obj
 0001:00063760       _tstrTimeToStringGmt       00464760 f   utility_ld:time_str.obj
 0001:000637b0       _getDateOrder              004647b0 f   utility_ld:time_str.obj
 0001:00063810       _storeDateValue            00464810 f   utility_ld:time_str.obj
 0001:00063c90       _storeTimeValue            00464c90 f   utility_ld:time_str.obj
 0001:000641f0       _tstrStringToTm            004651f0 f   utility_ld:time_str.obj
 0001:00064a10       _tstrStringToTime          00465a10 f   utility_ld:time_str.obj
 0001:00064aa0       _tstrStringToTimeGmt       00465aa0 f   utility_ld:time_str.obj
 0001:00064b10       _tstrTmToString            00465b10 f   utility_ld:time_str.obj
 0001:00064b40       _Btime6StringToVals        00465b40 f   utility_ld:time_str.obj
 0001:00064ce0       _Btime6ValsToString        00465ce0 f   utility_ld:time_str.obj
 0001:00064e80       _Btime4StringToVals        00465e80 f   utility_ld:time_str.obj
 0001:000650a0       _Btime4ValsToString        004660a0 f   utility_ld:time_str.obj
 0001:00065250       _UtcStringToVals           00466250 f   utility_ld:time_str.obj
 0001:00065780       _UtcValsToString           00466780 f   utility_ld:time_str.obj
 0001:00065940       _XmlStringToUtcValue       00466940 f   utility_ld:time_str.obj
 0001:00065b20       _UtcValueToXmlString       00466b20 f   utility_ld:time_str.obj
 0001:00065cf0       _CalculateTimeZoneOffset   00466cf0 f   utility_ld:time_str.obj
 0001:00065db0       _GetTimeAndUsec            00466db0 f   utility_ld:time_str.obj
 0001:00065df0       _usr_mkgmtime              00466df0 f   utility_ld:time_str.obj
 0001:00066250       _QuadLibI64GetHi           00467250 f   utility_ld:stdtime_quadlib.obj
 0001:00066260       _QuadLibU64GetHi           00467260 f   utility_ld:stdtime_quadlib.obj
 0001:00066270       _QuadLibI64GetLo           00467270 f   utility_ld:stdtime_quadlib.obj
 0001:00066280       _QuadLibU64GetLo           00467280 f   utility_ld:stdtime_quadlib.obj
 0001:00066290       _QuadLibI64SetHi           00467290 f   utility_ld:stdtime_quadlib.obj
 0001:000662a0       _QuadLibU64SetHi           004672a0 f   utility_ld:stdtime_quadlib.obj
 0001:000662b0       _QuadLibI64SetLo           004672b0 f   utility_ld:stdtime_quadlib.obj
 0001:000662c0       _QuadLibU64SetLo           004672c0 f   utility_ld:stdtime_quadlib.obj
 0001:000662d0       _QuadLibU64Abs             004672d0 f   utility_ld:stdtime_quadlib.obj
 0001:00066300       _StrAToQuadLibU64          00467300 f   utility_ld:stdtime_quadlib.obj
 0001:00066490       _StrAToQuadLibI64          00467490 f   utility_ld:stdtime_quadlib.obj
 0001:00066680       _QuadLibU64ToFixedStrA     00467680 f   utility_ld:stdtime_quadlib.obj
 0001:000667d0       _QuadLibI64ToFixedStrA     004677d0 f   utility_ld:stdtime_quadlib.obj
 0001:00066820       _QuadLibU64ToStrA          00467820 f   utility_ld:stdtime_quadlib.obj
 0001:000668d0       _QuadLibI64ToStrA          004678d0 f   utility_ld:stdtime_quadlib.obj
 0001:000669b0       _QuadLibU64DivMod          004679b0 f   utility_ld:stdtime_quadlib.obj
 0001:000669f0       _QuadLibI64DivMod          004679f0 f   utility_ld:stdtime_quadlib.obj
 0001:00066a30       _Bool_StdTimeGmTimeR       00467a30 f   utility_ld:stdtime_w32.obj
 0001:00066a70       _Bool_StdTimeLocalTimeR    00467a70 f   utility_ld:stdtime_w32.obj
 0001:00066ab0       _StdTimeW32FileTimeToLocalFileTime 00467ab0 f   utility_ld:stdtime_w32.obj
 0001:00066ba0       _StdTimeW32LocalFileTimeToFileTime 00467ba0 f   utility_ld:stdtime_w32.obj
 0001:00066c90       _StdTimeW32_IsLeap         00467c90 f   utility_ld:stdtime_w32.obj
 0001:00066d10       _StdTimeW32_LeapYearDays   00467d10 f   utility_ld:stdtime_w32.obj
 0001:00066d90       _StdTimeW32SystemTimeToFileTimeEx 00467d90 f   utility_ld:stdtime_w32.obj
 0001:00067020       _StdTimeW32SystemTimeToFileTime 00468020 f   utility_ld:stdtime_w32.obj
 0001:00067040       _StdTimeW32FileTimeToSystemTime 00468040 f   utility_ld:stdtime_w32.obj
 0001:00067310       _StdTimeW32GetDayofWeekAndYear 00468310 f   utility_ld:stdtime_w32.obj
 0001:000674d0       _copp_initialize           004684d0 f   ositp4e_ld:Acse2enc.obj
 0001:000675a0       _copp_terminate            004685a0 f   ositp4e_ld:Acse2enc.obj
 0001:000675d0       _copp_event                004685d0 f   ositp4e_ld:Acse2enc.obj
 0001:000675e0       _a_associate_req           004685e0 f   ositp4e_ld:Acse2enc.obj
 0001:000681d0       _a_associate_rsp           004691d0 f   ositp4e_ld:Acse2enc.obj
 0001:00068910       _a_release_req             00469910 f   ositp4e_ld:Acse2enc.obj
 0001:00068ad0       _a_release_rsp             00469ad0 f   ositp4e_ld:Acse2enc.obj
 0001:00068cf0       _a_abort_req               00469cf0 f   ositp4e_ld:Acse2enc.obj
 0001:00068ee0       _a_data_req                00469ee0 f   ositp4e_ld:Acse2enc.obj
 0001:00069010       _a_buffers_avail           0046a010 f   ositp4e_ld:Acse2enc.obj
 0001:00069030       _a_get_event_handles       0046a030 f   ositp4e_ld:Acse2enc.obj
 0001:00069090       _a_get_security_info       0046a090 f   ositp4e_ld:Acse2enc.obj
 0001:00069100       _a_free_security_info      0046a100 f   ositp4e_ld:Acse2enc.obj
 0001:00069180       _a_free_part_security_info 0046a180 f   ositp4e_ld:Acse2enc.obj
 0001:000691c0       _osicfgx                   0046a1c0 f   ositp4e_ld:osicfgx.obj
 0001:0006b460       _clnp_snet_set_llc         0046c460 f   ositp4e_ld:clnp_pcap.obj
 0001:0006b5f0       _clnp_snet_init            0046c5f0 f   ositp4e_ld:clnp_pcap.obj
 0001:0006b8f0       _clnp_snet_term            0046c8f0 f   ositp4e_ld:clnp_pcap.obj
 0001:0006b900       _clnp_snet_read            0046c900 f   ositp4e_ld:clnp_pcap.obj
 0001:0006ba30       _clnp_snet_add_multicast_mac 0046ca30 f   ositp4e_ld:clnp_pcap.obj
 0001:0006ba40       _clnp_snet_free            0046ca40 f   ositp4e_ld:clnp_pcap.obj
 0001:0006ba60       _clnp_snet_set_multicast_filter 0046ca60 f   ositp4e_ld:clnp_pcap.obj
 0001:0006bc40       _clnp_snet_rx_all_multicast_start 0046cc40 f   ositp4e_ld:clnp_pcap.obj
 0001:0006bcf0       _clnp_snet_rx_all_multicast_stop 0046ccf0 f   ositp4e_ld:clnp_pcap.obj
 0001:0006bda0       _clnp_snet_rx_multicast_stop 0046cda0 f   ositp4e_ld:clnp_pcap.obj
 0001:0006be50       _clnp_snet_write_raw       0046ce50 f   ositp4e_ld:clnp_pcap.obj
 0001:0006bf70       _gse_iec_control_create    0046cf70 f   ositp4e_ld:gsei_enc.obj
 0001:0006c110       _gse_iec_control_destroy   0046d110 f   ositp4e_ld:gsei_enc.obj
 0001:0006c1c0       _gse_iec_data_init         0046d1c0 f   ositp4e_ld:gsei_enc.obj
 0001:0006c250       _gse_iec_data_update       0046d250 f   ositp4e_ld:gsei_enc.obj
 0001:0006c2b0       _gse_iec_encode            0046d2b0 f   ositp4e_ld:gsei_enc.obj
 0001:0006c670       _gse_iec_enc_part1         0046d670 f   ositp4e_ld:gsei_enc.obj
 0001:0006c8b0       _gse_iec_enc_part2         0046d8b0 f   ositp4e_ld:gsei_enc.obj
 0001:0006cb10       _gse_iec_hdr_decode        0046db10 f   ositp4e_ld:gsei_dec.obj
 0001:0006d180       _gse_iec_decode_done       0046e180 f   ositp4e_ld:gsei_dec.obj
 0001:0006d1d0       _etype_hdr_encode          0046e1d0 f   ositp4e_ld:ethertyp.obj
 0001:0006d300       _vlan_hdr_encode           0046e300 f   ositp4e_ld:ethertyp.obj
 0001:0006d360       _etype_hdr_decode          0046e360 f   ositp4e_ld:ethertyp.obj
 0001:0006d3e0       _clnp_init                 0046e3e0 f   ositp4e_ld:Clnp_usr.obj
 0001:0006d590       _clnp_end                  0046e590 f   ositp4e_ld:Clnp_usr.obj
 0001:0006d600       _clnp_alloc                0046e600 f   ositp4e_ld:Clnp_usr.obj
 0001:0006d680       _clnp_free                 0046e680 f   ositp4e_ld:Clnp_usr.obj
 0001:0006d6a0       _clnp_read                 0046e6a0 f   ositp4e_ld:Clnp_usr.obj
 0001:0006d890       _clnp_write                0046e890 f   ositp4e_ld:Clnp_usr.obj
 0001:0006db20       _clnp_timer_tick           0046eb20 f   ositp4e_ld:Clnp_usr.obj
 0001:0006db40       _clnp_status               0046eb40 f   ositp4e_ld:Clnp_usr.obj
 0001:0006e120       _clnpl_log_snsdu           0046f120 f   ositp4e_ld:Clnp_usr.obj
 0001:0006e3e0       _audt_set_msgsize          0046f3e0 f   ositp4e_ld:audt_enc.obj
 0001:0006e400       _clpp_initialize           0046f400 f   ositp4e_ld:audt_enc.obj
 0001:0006e470       _clpp_terminate            0046f470 f   ositp4e_ld:audt_enc.obj
 0001:0006e4a0       _a_unit_data_req           0046f4a0 f   ositp4e_ld:audt_enc.obj
 0001:0006f4a0       _copp_bind                 004704a0 f   ositp4e_ld:Copp_enc.obj
 0001:0006f620       _copp_unbind               00470620 f   ositp4e_ld:Copp_enc.obj
 0001:0006f670       _copp_con_req              00470670 f   ositp4e_ld:Copp_enc.obj
 0001:0006fb20       _copp_rel_req              00470b20 f   ositp4e_ld:Copp_enc.obj
 0001:0006fd40       _copp_con_rsp_pos          00470d40 f   ositp4e_ld:Copp_enc.obj
 0001:00070160       _copp_con_rsp_neg          00471160 f   ositp4e_ld:Copp_enc.obj
 0001:00070600       _copp_rel_rsp_pos          00471600 f   ositp4e_ld:Copp_enc.obj
 0001:00070830       _copp_u_abort_req          00471830 f   ositp4e_ld:Copp_enc.obj
 0001:00070b10       _copp_data_req             00471b10 f   ositp4e_ld:Copp_enc.obj
 0001:00070d20       _copp_p_abort_req          00471d20 f   ositp4e_ld:Copp_enc.obj
 0001:00070e60       _dib_match_remote_ar       00471e60 f   ositp4e_ld:acse2dib.obj
 0001:00070fb0       _dib_match_local_ar        00471fb0 f   ositp4e_ld:acse2dib.obj
 0001:00071100       _dib_cmp_local_addr        00472100 f   ositp4e_ld:acse2dib.obj
 0001:00071320       _dib_cmp_remote_addr       00472320 f   ositp4e_ld:acse2dib.obj
 0001:000717d0       _tp4_initialize            004727d0 f   ositp4e_ld:Tp4main.obj
 0001:00071d30       _tp4_terminate             00472d30 f   ositp4e_ld:Tp4main.obj
 0001:00071e90       _tp4_bind                  00472e90 f   ositp4e_ld:Tp4main.obj
 0001:00072020       _tp4_unbind                00473020 f   ositp4e_ld:Tp4main.obj
 0001:00072050       _tp4_session_timer         00473050 f   ositp4e_ld:Tp4main.obj
 0001:00072110       _tp4_timer_tick            00473110 f   ositp4e_ld:Tp4main.obj
 0001:00072590       _tp4_buffers_avail         00473590 f   ositp4e_ld:Tp4main.obj
 0001:000725f0       _tp4_data                  004735f0 f   ositp4e_ld:Tp4main.obj
 0001:00072970       _tp4_event                 00473970 f   ositp4e_ld:Tp4main.obj
 0001:00072ac0       _tp_process_dt             00473ac0 f   ositp4e_ld:Tp4main.obj
 0001:00072d00       _tp_process_ak             00473d00 f   ositp4e_ld:Tp4main.obj
 0001:00072fd0       _tp_setup_and_send_ak      00473fd0 f   ositp4e_ld:Tp4main.obj
 0001:00073060       _tp_setup_and_send_dr      00474060 f   ositp4e_ld:Tp4main.obj
 0001:000730d0       _tp_conn_clean             004740d0 f   ositp4e_ld:Tp4main.obj
 0001:00073140       _tp_free_spdu_all          00474140 f   ositp4e_ld:Tp4main.obj
 0001:000731b0       _cosp_bind                 004741b0 f   ositp4e_ld:Cospmain.obj
 0001:00073410       _tp4_bind_cnf              00474410 f   ositp4e_ld:Cospmain.obj
 0001:00073480       _cosp_unbind               00474480 f   ositp4e_ld:Cospmain.obj
 0001:00073520       _tp4_unbind_cnf            00474520 f   ositp4e_ld:Cospmain.obj
 0001:00073580       _acse_free_con             00474580 f   ositp4e_ld:Cospmain.obj
 0001:000735e0       _tp4_connect_ind           004745e0 f   ositp4e_ld:Cospmain.obj
 0001:00073710       _cosp_con_rsp_pos          00474710 f   ositp4e_ld:Cospmain.obj
 0001:000738e0       _cosp_con_rsp_neg          004748e0 f   ositp4e_ld:Cospmain.obj
 0001:00073b50       _cosp_con_req              00474b50 f   ositp4e_ld:Cospmain.obj
 0001:00073e80       _tp4_connect_cnf           00474e80 f   ositp4e_ld:Cospmain.obj
 0001:00073f80       _cosp_rel_rsp_pos          00474f80 f   ositp4e_ld:Cospmain.obj
 0001:00074200       _cosp_rel_req              00475200 f   ositp4e_ld:Cospmain.obj
 0001:000743e0       _tp4_disconnect_ind        004753e0 f   ositp4e_ld:Cospmain.obj
 0001:00074570       _tp4_session_timer_expired 00475570 f   ositp4e_ld:Cospmain.obj
 0001:000745f0       _cosp_u_abort_req          004755f0 f   ositp4e_ld:Cospmain.obj
 0001:00074930       _tp4_data_ind              00475930 f   ositp4e_ld:Cospmain.obj
 0001:00075180       _tp4_expdata_ind           00476180 f   ositp4e_ld:Cospmain.obj
 0001:000751a0       _cosp_data_req             004761a0 f   ositp4e_ld:Cospmain.obj
 0001:00075e20       _clnp_snet_timer_tick      00476e20 f   ositp4e_ld:clnp_eth.obj
 0001:00075e50       _clnp_snet_update_is       00476e50 f   ositp4e_ld:clnp_eth.obj
 0001:00075eb0       _clnp_snet_update_es       00476eb0 f   ositp4e_ld:clnp_eth.obj
 0001:00075ed0       _clnp_snet_lookup_is       00476ed0 f   ositp4e_ld:clnp_eth.obj
 0001:00075f10       _clnp_snet_lookup_es       00476f10 f   ositp4e_ld:clnp_eth.obj
 0001:00075f30       _clnp_snet_get_all_is_mac  00476f30 f   ositp4e_ld:clnp_eth.obj
 0001:00075f60       _clnp_snet_get_all_es_mac  00476f60 f   ositp4e_ld:clnp_eth.obj
 0001:00075f90       _clnp_snet_get_local_mac   00476f90 f   ositp4e_ld:clnp_eth.obj
 0001:00075fc0       _clnp_snet_get_max_udata_len 00476fc0 f   ositp4e_ld:clnp_eth.obj
 0001:00075fe0       _clnp_snet_get_type        00476fe0 f   ositp4e_ld:clnp_eth.obj
 0001:00075ff0       _clnp_snet_create_es_table 00476ff0 f   ositp4e_ld:clnp_eth.obj
 0001:00076010       _clnp_snet_check_mac       00477010 f   ositp4e_ld:clnp_eth.obj
 0001:000760a0       _clnp_snet_read_hook_add   004770a0 f   ositp4e_ld:clnp_eth.obj
 0001:000760d0       _clnp_snet_read_hook_remove 004770d0 f   ositp4e_ld:clnp_eth.obj
 0001:00076100       _clnp_snet_read_hook_process 00477100 f   ositp4e_ld:clnp_eth.obj
 0001:00076130       _clnp_snet_frame_to_udt    00477130 f   ositp4e_ld:clnp_eth.obj
 0001:00076350       _clnpl_init_esh            00477350 f   ositp4e_ld:Clnp_esh.obj
 0001:00076390       _clnpl_check_cfg_timer     00477390 f   ositp4e_ld:Clnp_esh.obj
 0001:000763e0       _clnpl_send_esh            004773e0 f   ositp4e_ld:Clnp_esh.obj
 0001:00076530       _clnpl_decode              00477530 f   ositp4e_ld:Clnp_dec.obj
 0001:00076e70       _clnpl_log_npdu            00477e70 f   ositp4e_ld:Clnp_dec.obj
 0001:00077280       _clnpl_llc_encode          00478280 f   ositp4e_ld:Clnp_llc.obj
 0001:00077340       _clnpl_llc_decode          00478340 f   ositp4e_ld:Clnp_llc.obj
 0001:00077400       _clnpl_encode_dt           00478400 f   ositp4e_ld:Clnp_enc.obj
 0001:00077650       _clnpl_encode_esh          00478650 f   ositp4e_ld:Clnp_enc.obj
 0001:00077750       _clpp_event                00478750 f   ositp4e_ld:audt_dec.obj
 0001:00077790       _cltp_decode_nsdu          00478790 f   ositp4e_ld:audt_dec.obj
 0001:000777f0       _cltp_decode_nsdu_2        004787f0 f   ositp4e_ld:audt_dec.obj
 0001:000790b0       _tp_decode_nsdu            0047a0b0 f   ositp4e_ld:Tp4_dec.obj
 0001:00079760       _tp4_init_timer            0047a760 f   ositp4e_ld:Tp4port.obj
 0001:00079770       _tp4_check_timer           0047a770 f   ositp4e_ld:Tp4port.obj
 0001:00079850       _tp4_connect               0047a850 f   ositp4e_ld:Tp4callg.obj
 0001:00079b10       _tp4_disconnect            0047ab10 f   ositp4e_ld:Tp4callg.obj
 0001:00079c60       _tp_process_cc             0047ac60 f   ositp4e_ld:Tp4callg.obj
 0001:0007a010       _u_copp_con_cnf            0047b010 f   ositp4e_ld:Acse2dec.obj
 0001:0007a3b0       _u_copp_rel_cnf_pos        0047b3b0 f   ositp4e_ld:Acse2dec.obj
 0001:0007a5f0       _u_copp_con_ind            0047b5f0 f   ositp4e_ld:Acse2dec.obj
 0001:0007ad70       _u_copp_rel_ind            0047bd70 f   ositp4e_ld:Acse2dec.obj
 0001:0007af90       _u_copp_p_abort_ind        0047bf90 f   ositp4e_ld:Acse2dec.obj
 0001:0007b030       _u_copp_u_abort_ind        0047c030 f   ositp4e_ld:Acse2dec.obj
 0001:0007b1b0       _u_copp_data_ind           0047c1b0 f   ositp4e_ld:Acse2dec.obj
 0001:0007c840       _asn1_skip_elmnt           0047d840 f   ositp4e_ld:Acse2dec.obj
 0001:0007c8e0       _tp4_except                0047d8e0 f   ositp4e_ld:Acse2dec.obj
 0001:0007c9a0       _a_get_rem_nsap            0047d9a0 f   ositp4e_ld:Acse2dec.obj
 0001:0007cde0       _tp_send_dt                0047dde0 f   ositp4e_ld:Tp4send.obj
 0001:0007cea0       _tp_send_ak                0047dea0 f   ositp4e_ld:Tp4send.obj
 0001:0007cf60       _tp_send_cr                0047df60 f   ositp4e_ld:Tp4send.obj
 0001:0007d010       _tp_send_cc                0047e010 f   ositp4e_ld:Tp4send.obj
 0001:0007d0d0       _tp_send_dr                0047e0d0 f   ositp4e_ld:Tp4send.obj
 0001:0007d190       _tp_send_dc                0047e190 f   ositp4e_ld:Tp4send.obj
 0001:0007d250       _tp_send_dt_and_ak         0047e250 f   ositp4e_ld:Tp4send.obj
 0001:0007d360       _u_cosp_bind_cnf           0047e360 f   ositp4e_ld:Copp_dec.obj
 0001:0007d3c0       _u_cosp_unbind_cnf         0047e3c0 f   ositp4e_ld:Copp_dec.obj
 0001:0007d410       _u_cosp_rel_cnf_pos        0047e410 f   ositp4e_ld:Copp_dec.obj
 0001:0007d680       _u_cosp_rel_ind            0047e680 f   ositp4e_ld:Copp_dec.obj
 0001:0007d910       _u_cosp_p_abort_ind        0047e910 f   ositp4e_ld:Copp_dec.obj
 0001:0007d9d0       _u_cosp_data_ind           0047e9d0 f   ositp4e_ld:Copp_dec.obj
 0001:0007dc30       _START_p_user_data         0047ec30 f   ositp4e_ld:Copp_dec.obj
 0001:0007dc60       _START_pdv_list            0047ec60 f   ositp4e_ld:Copp_dec.obj
 0001:0007de90       _tp4_accept                0047ee90 f   ositp4e_ld:Tp4calld.obj
 0001:0007df50       _tp_process_cr             0047ef50 f   ositp4e_ld:Tp4calld.obj
 0001:0007e570       _tp_process_dr             0047f570 f   ositp4e_ld:Tp4calld.obj
 0001:0007e710       _tp_process_dc             0047f710 f   ositp4e_ld:Tp4calld.obj
 0001:0007e870       _cosp_envelope_len         0047f870 f   ositp4e_ld:Cosp_enc.obj
 0001:0007ea50       _cosp_enc_cn_ac            0047fa50 f   ositp4e_ld:Cosp_enc.obj
 0001:0007ed50       _cosp_enc_rf               0047fd50 f   ositp4e_ld:Cosp_enc.obj
 0001:0007eef0       _cosp_enc_fn_dn            0047fef0 f   ositp4e_ld:Cosp_enc.obj
 0001:0007f070       _cosp_enc_u_ab             00480070 f   ositp4e_ld:Cosp_enc.obj
 0001:0007f220       _cosp_enc_p_ab             00480220 f   ositp4e_ld:Cosp_enc.obj
 0001:0007f280       _cosp_enc_dt               00480280 f   ositp4e_ld:Cosp_enc.obj
 0001:0007f410       _u_cosp_con_ind            00480410 f   ositp4e_ld:Coppdcp.obj
 0001:0007f850       _u_cosp_con_cnf_pos        00480850 f   ositp4e_ld:Coppdcp.obj
 0001:00080770       _cosp_dec_cn_ac            00481770 f   ositp4e_ld:Cosp_dec.obj
 0001:00081050       _cosp_dec_rf               00482050 f   ositp4e_ld:Cosp_dec.obj
 0001:00081480       _cosp_dec_fn_dn            00482480 f   ositp4e_ld:Cosp_dec.obj
 0001:000817a0       _cosp_dec_ab               004827a0 f   ositp4e_ld:Cosp_dec.obj
 0001:00081b50       _cosp_dec_dt               00482b50 f   ositp4e_ld:Cosp_dec.obj
 0001:00082080       _u_cosp_con_cnf_neg        00483080 f   ositp4e_ld:Coppdcpr.obj
 0001:000829a0       _u_cosp_u_abort_ind        004839a0 f   ositp4e_ld:Coppdaru.obj
 0001:00082f80       _checksum_insert           00483f80 f   ositp4e_ld:Checksum.obj
 0001:00083060       _checksum_verified         00484060 f   ositp4e_ld:Checksum.obj
 0001:000831c0       _mmsl_send_goose           004841c0 f   ositp4e_ld:Goose.obj
 0001:000835d0       _u_a_unit_data_ind         004845d0 f   ositp4e_ld:Goose.obj
 0001:00083ae0       _gse_uca_decode            00484ae0 f   ositp4e_ld:Goose.obj
 0001:00083ba0       _tp_decode_cx              00484ba0 f   ositp4e_ld:tpx_dec.obj
 0001:000841c0       _tp_decode_dr              004851c0 f   ositp4e_ld:tpx_dec.obj
 0001:00084370       _tp_decode_dc              00485370 f   ositp4e_ld:tpx_dec.obj
 0001:00084510       _tp_decode_dt              00485510 f   ositp4e_ld:tpx_dec.obj
 0001:00084740       _tp0_decode_dt             00485740 f   ositp4e_ld:tpx_dec.obj
 0001:00084860       _tp_decode_ak              00485860 f   ositp4e_ld:tpx_dec.obj
 0001:00084a60       _tp_decode_er              00485a60 f   ositp4e_ld:tpx_dec.obj
 0001:00084dd0       _tp_log_tsdu               00485dd0 f   ositp4e_ld:tpx_dec.obj
 0001:00085850       _tp_encode_cx              00486850 f   ositp4e_ld:Tp4_enc.obj
 0001:00085d00       _tp_encode_dr              00486d00 f   ositp4e_ld:Tp4_enc.obj
 0001:00085d80       _tp_encode_dc              00486d80 f   ositp4e_ld:Tp4_enc.obj
 0001:00085df0       _tp_encode_dt              00486df0 f   ositp4e_ld:Tp4_enc.obj
 0001:00085ea0       _tp0_encode_dt             00486ea0 f   ositp4e_ld:Tp4_enc.obj
 0001:00085f20       _tp_encode_ak              00486f20 f   ositp4e_ld:Tp4_enc.obj
 0001:00085ffa       __invoke_watson_if_error   00486ffa f i LIBCMT:wassert.obj
 0001:0008603c       __wassert                  0048703c f   LIBCMT:wassert.obj
 0001:00086790       _strncpy                   00487790 f   LIBCMT:strncpy.obj
 0001:000868c0       _strstr                    004878c0 f   LIBCMT:strstr.obj
 0001:00086950       _strcpy                    00487950 f   LIBCMT:strcat.obj
 0001:00086960       _strcat                    00487960 f   LIBCMT:strcat.obj
 0001:00086a50       _strlen                    00487a50 f   LIBCMT:strlen.obj
 0001:00086adb       @__security_check_cookie@4 00487adb f   LIBCMT:secchk.obj
 0001:00086aea       _printf                    00487aea f   LIBCMT:printf.obj
 0001:00086b99       __printf_l                 00487b99 f   LIBCMT:printf.obj
 0001:00086bb2       __printf_s_l               00487bb2 f   LIBCMT:printf.obj
 0001:00086bcb       _printf_s                  00487bcb f   LIBCMT:printf.obj
 0001:00086be3       __printf_p_l               00487be3 f   LIBCMT:printf.obj
 0001:00086bfc       __printf_p                 00487bfc f   LIBCMT:printf.obj
 0001:00086c14       __set_printf_count_output  00487c14 f   LIBCMT:printf.obj
 0001:00086c3e       __get_printf_count_output  00487c3e f   LIBCMT:printf.obj
 0001:00086c54       __fpclear                  00487c54 f   LIBCMT:_fpinit_.obj
 0001:00086c55       __cfltcvt_init             00487c55 f   LIBCMT:_fpinit_.obj
 0001:00086cb5       ___setfflag                00487cb5 f   LIBCMT:_fpinit_.obj
 0001:00086cca       __fpmath                   00487cca f   LIBCMT:_fpinit_.obj
 0001:00086cf0       __ftol2_sse                00487cf0 f   LIBCMT:ftol2.obj
 0001:00086cf9       __ftol2_pentium4           00487cf9 f   LIBCMT:ftol2.obj
 0001:00086d0c       __ftol2_sse_excpt          00487d0c f   LIBCMT:ftol2.obj
 0001:00086d26       __ftol2                    00487d26 f   LIBCMT:ftol2.obj
 0001:00086d9b       __time64                   00487d9b f   LIBCMT:time64.obj
 0001:00086dec       ??0_LocaleUpdate@@QAE@PAUlocaleinfo_struct@@@Z 00487dec f i LIBCMT:toupper.obj
 0001:00086e73       ??1_LocaleUpdate@@QAE@XZ   00487e73 f i LIBCMT:toupper.obj
 0001:00086e81       ?GetLocaleT@_LocaleUpdate@@QAEPAUlocaleinfo_struct@@XZ 00487e81 f i LIBCMT:toupper.obj
 0001:00086e84       __toupper                  00487e84 f   LIBCMT:toupper.obj
 0001:00086e91       __toupper_l                00487e91 f   LIBCMT:toupper.obj
 0001:00086fa7       _toupper                   00487fa7 f   LIBCMT:toupper.obj
 0001:00086fd3       _vscanf                    00487fd3 f   LIBCMT:scanf.obj
 0001:00087059       _scanf                     00488059 f   LIBCMT:scanf.obj
 0001:00087076       __scanf_l                  00488076 f   LIBCMT:scanf.obj
 0001:00087094       _scanf_s                   00488094 f   LIBCMT:scanf.obj
 0001:000870b1       __scanf_s_l                004880b1 f   LIBCMT:scanf.obj
 0001:000870d0       _memset                    004880d0 f   LIBCMT:memset.obj
 0001:0008714a       _sprintf                   0048814a f   LIBCMT:sprintf.obj
 0001:000871c7       __sprintf_l                004881c7 f   LIBCMT:sprintf.obj
 0001:000871e3       _sprintf_s                 004881e3 f   LIBCMT:sprintf.obj
 0001:00087201       __sprintf_s_l              00488201 f   LIBCMT:sprintf.obj
 0001:00087220       __snprintf_s               00488220 f   LIBCMT:sprintf.obj
 0001:00087241       __snprintf_s_l             00488241 f   LIBCMT:sprintf.obj
 0001:00087263       __sprintf_p                00488263 f   LIBCMT:sprintf.obj
 0001:00087281       __sprintf_p_l              00488281 f   LIBCMT:sprintf.obj
 0001:000872a0       __scprintf                 004882a0 f   LIBCMT:sprintf.obj
 0001:000872b5       __scprintf_p               004882b5 f   LIBCMT:sprintf.obj
 0001:000872ca       __scprintf_l               004882ca f   LIBCMT:sprintf.obj
 0001:000872e3       __scprintf_p_l             004882e3 f   LIBCMT:sprintf.obj
 0001:000872fc       __crt_waiting_on_module_handle 004882fc f   LIBCMT:crt0dat.obj
 0001:0008732c       __amsg_exit                0048832c f   LIBCMT:crt0dat.obj
 0001:00087355       ___crtCorExitProcess       00488355 f   LIBCMT:crt0dat.obj
 0001:00087380       ___crtExitProcess          00488380 f   LIBCMT:crt0dat.obj
 0001:00087398       __lockexit                 00488398 f   LIBCMT:crt0dat.obj
 0001:000873a1       __unlockexit               004883a1 f   LIBCMT:crt0dat.obj
 0001:000873c7       __initterm_e               004883c7 f   LIBCMT:crt0dat.obj
 0001:000873eb       __get_wpgmptr              004883eb f   LIBCMT:crt0dat.obj
 0001:00087427       __get_pgmptr               00488427 f   LIBCMT:crt0dat.obj
 0001:00087463       __cinit                    00488463 f   LIBCMT:crt0dat.obj
 0001:00087614       _exit                      00488614 f   LIBCMT:crt0dat.obj
 0001:0008762a       __exit                     0048862a f   LIBCMT:crt0dat.obj
 0001:00087640       __cexit                    00488640 f   LIBCMT:crt0dat.obj
 0001:0008764f       __c_exit                   0048864f f   LIBCMT:crt0dat.obj
 0001:0008765e       __init_pointers            0048865e f   LIBCMT:crt0dat.obj
 0001:000876ac       __initp_misc_winsig        004886ac f   LIBCMT:winsig.obj
 0001:0008779c       ___get_sigabrt             0048879c f   LIBCMT:winsig.obj
 0001:000877a9       ___fpecode                 004887a9 f   LIBCMT:winsig.obj
 0001:000877b2       ___pxcptinfoptrs           004887b2 f   LIBCMT:winsig.obj
 0001:000877bb       _signal                    004887bb f   LIBCMT:winsig.obj
 0001:000879f8       _raise                     004889f8 f   LIBCMT:winsig.obj
 0001:00087ba8       _puts                      00488ba8 f   LIBCMT:puts.obj
 0001:00087d07       _setbuf                    00488d07 f   LIBCMT:setbuf.obj
 0001:00087d2f       ___iob_func                00488d2f f   LIBCMT:_file.obj
 0001:00087d35       ___initstdio               00488d35 f   LIBCMT:_file.obj
 0001:00087de6       ___endstdio                00488de6 f   LIBCMT:_file.obj
 0001:00087e06       __lock_file                00488e06 f   LIBCMT:_file.obj
 0001:00087e47       __lock_file2               00488e47 f   LIBCMT:_file.obj
 0001:00087e79       __unlock_file              00488e79 f   LIBCMT:_file.obj
 0001:00087eb5       __unlock_file2             00488eb5 f   LIBCMT:_file.obj
 0001:00087ee4       _V6_HeapAlloc              00488ee4 f   LIBCMT:malloc.obj
 0001:00087f33       __heap_alloc               00488f33 f i LIBCMT:malloc.obj
 0001:00087fad       _malloc                    00488fad f   LIBCMT:malloc.obj
 0001:00088077       _free                      00489077 f   LIBCMT:free.obj
 0001:00088110       _memcpy                    00489110 f   LIBCMT:memcpy.obj
 0001:00088480       _strcmp                    00489480 f   LIBCMT:strcmp.obj
 0001:00089a7e       _memcmp                    0048aa7e f   LIBCMT:memcmp.obj
 0001:0008b0fe       __fclose_nolock            0048c0fe f   LIBCMT:fclose.obj
 0001:0008b175       _fclose                    0048c175 f   LIBCMT:fclose.obj
 0001:0008b1f1       __fwrite_nolock            0048c1f1 f   LIBCMT:fwrite.obj
 0001:0008b353       _fwrite                    0048c353 f   LIBCMT:fwrite.obj
 0001:0008b3d5       __fsopen                   0048c3d5 f   LIBCMT:fopen.obj
 0001:0008b499       _fopen                     0048c499 f   LIBCMT:fopen.obj
 0001:0008b4b0       _fopen_s                   0048c4b0 f   LIBCMT:fopen.obj
 0001:0008b510       __chkstk                   0048c510 f   LIBCMT:chkstk.obj
 0001:0008b510       __alloca_probe             0048c510     LIBCMT:chkstk.obj
 0001:0008b53b       __fread_nolock_s           0048c53b f   LIBCMT:fread.obj
 0001:0008b745       __fread_nolock             0048c745 f   LIBCMT:fread.obj
 0001:0008b762       _fread_s                   0048c762 f   LIBCMT:fread.obj
 0001:0008b7f8       _fread                     0048c7f8 f   LIBCMT:fread.obj
 0001:0008b815       __fstat64i32               0048c815 f   LIBCMT:fstati32.obj
 0001:0008bb6c       _fgets                     0048cb6c f   LIBCMT:fgets.obj
 0001:0008be76       _mainCRTStartup            0048ce76 f   LIBCMT:crt0.obj
 0001:0008be80       _calloc                    0048ce80 f   LIBCMT:calloc.obj
 0001:0008bec0       _realloc                   0048cec0 f   LIBCMT:realloc.obj
 0001:0008c1a0       _qsort                     0048d1a0 f   LIBCMT:qsort.obj
 0001:0008c3ed       _bsearch                   0048d3ed f   LIBCMT:bsearch.obj
 0001:0008c4af       _abs                       0048d4af f   LIBCMT:abs.obj
 0001:0008c4bf       __abs64                    0048d4bf f   LIBCMT:abs.obj
 0001:0008c4df       __isalpha_l                0048d4df f i LIBCMT:_ctype.obj
 0001:0008c535       _isalpha                   0048d535 f i LIBCMT:_ctype.obj
 0001:0008c565       __isupper_l                0048d565 f i LIBCMT:_ctype.obj
 0001:0008c5b6       _isupper                   0048d5b6 f i LIBCMT:_ctype.obj
 0001:0008c5e4       __islower_l                0048d5e4 f i LIBCMT:_ctype.obj
 0001:0008c635       _islower                   0048d635 f i LIBCMT:_ctype.obj
 0001:0008c663       __isdigit_l                0048d663 f i LIBCMT:_ctype.obj
 0001:0008c6b4       _isdigit                   0048d6b4 f i LIBCMT:_ctype.obj
 0001:0008c6e2       __isxdigit_l               0048d6e2 f i LIBCMT:_ctype.obj
 0001:0008c738       _isxdigit                  0048d738 f i LIBCMT:_ctype.obj
 0001:0008c768       __isspace_l                0048d768 f i LIBCMT:_ctype.obj
 0001:0008c7b9       _isspace                   0048d7b9 f i LIBCMT:_ctype.obj
 0001:0008c7e7       __ispunct_l                0048d7e7 f i LIBCMT:_ctype.obj
 0001:0008c838       _ispunct                   0048d838 f i LIBCMT:_ctype.obj
 0001:0008c866       __isalnum_l                0048d866 f i LIBCMT:_ctype.obj
 0001:0008c8bc       _isalnum                   0048d8bc f i LIBCMT:_ctype.obj
 0001:0008c8ec       __isprint_l                0048d8ec f i LIBCMT:_ctype.obj
 0001:0008c942       _isprint                   0048d942 f i LIBCMT:_ctype.obj
 0001:0008c972       __isgraph_l                0048d972 f i LIBCMT:_ctype.obj
 0001:0008c9c8       _isgraph                   0048d9c8 f i LIBCMT:_ctype.obj
 0001:0008c9f8       __iscntrl_l                0048d9f8 f i LIBCMT:_ctype.obj
 0001:0008ca49       _iscntrl                   0048da49 f i LIBCMT:_ctype.obj
 0001:0008ca77       ___isascii                 0048da77 f i LIBCMT:_ctype.obj
 0001:0008ca89       ___toascii                 0048da89 f i LIBCMT:_ctype.obj
 0001:0008ca96       __iscsymf_l                0048da96 f i LIBCMT:_ctype.obj
 0001:0008cab9       ___iscsymf                 0048dab9 f i LIBCMT:_ctype.obj
 0001:0008cad8       __iscsym_l                 0048dad8 f i LIBCMT:_ctype.obj
 0001:0008cafb       ___iscsym                  0048dafb f i LIBCMT:_ctype.obj
 0001:0008cb30       _strchr                    0048db30 f   LIBCMT:strchr.obj
 0001:0008cb36       ___from_strstr_to_strchr   0048db36     LIBCMT:strchr.obj
 0001:0008cbf0       _strrchr                   0048dbf0 f   LIBCMT:strrchr.obj
 0001:0008cc20       _strncat                   0048dc20 f   LIBCMT:strncat.obj
 0001:0008cd55       _strtok                    0048dd55 f   LIBCMT:strtok.obj
 0001:0008ce20       _memmove                   0048de20 f   LIBCMT:memmove.obj
 0001:0008d190       __allrem                   0048e190 f   LIBCMT:llrem.obj
 0001:0008d242       _ldiv                      0048e242 f   LIBCMT:ldiv.obj
 0001:0008d250       __difftime64               0048e250 f   LIBCMT:difftm64.obj
 0001:0008d293       __vsnprintf_l              0048e293 f   LIBCMT:vsnprint.obj
 0001:0008d346       __vsnprintf                0048e346 f   LIBCMT:vsnprint.obj
 0001:0008d363       _fprintf                   0048e363 f   LIBCMT:fprintf.obj
 0001:0008d47f       __fprintf_l                0048e47f f   LIBCMT:fprintf.obj
 0001:0008d49b       __fprintf_s_l              0048e49b f   LIBCMT:fprintf.obj
 0001:0008d4b7       _fprintf_s                 0048e4b7 f   LIBCMT:fprintf.obj
 0001:0008d4d2       __fprintf_p_l              0048e4d2 f   LIBCMT:fprintf.obj
 0001:0008d4ee       __fprintf_p                0048e4ee f   LIBCMT:fprintf.obj
 0001:0008d509       __flush                    0048e509 f   LIBCMT:fflush.obj
 0001:0008d571       __fflush_nolock            0048e571 f   LIBCMT:fflush.obj
 0001:0008d693       _fflush                    0048e693 f   LIBCMT:fflush.obj
 0001:0008d6e6       __flushall                 0048e6e6 f   LIBCMT:fflush.obj
 0001:0008d6ef       __ftell_nolock             0048e6ef f   LIBCMT:ftell.obj
 0001:0008d88c       _ftell                     0048e88c f   LIBCMT:ftell.obj
 0001:0008d8fa       __fseek_nolock             0048e8fa f   LIBCMT:fseek.obj
 0001:0008d984       _fseek                     0048e984 f   LIBCMT:fseek.obj
 0001:0008da09       _remove                    0048ea09 f   LIBCMT:unlink.obj
 0001:0008da39       __unlink                   0048ea39 f   LIBCMT:unlink.obj
 0001:0008da44       _strncmp                   0048ea44 f   LIBCMT:strncmp.obj
 0001:0008db04       _vfscanf                   0048eb04 f   LIBCMT:fscanf.obj
 0001:0008dc0e       _fscanf                    0048ec0e f   LIBCMT:fscanf.obj
 0001:0008dc2e       __fscanf_l                 0048ec2e f   LIBCMT:fscanf.obj
 0001:0008dc4f       _fscanf_s                  0048ec4f f   LIBCMT:fscanf.obj
 0001:0008dc6f       __fscanf_s_l               0048ec6f f   LIBCMT:fscanf.obj
 0001:0008dc90       __ctime64_s                0048ec90 f   LIBCMT:ctime64.obj
 0001:0008dd1a       __ctime64                  0048ed1a f   LIBCMT:ctime64.obj
 0001:0008dd7d       __get_sys_err_msg          0048ed7d f i LIBCMT:strerror.obj
 0001:0008dda5       _strerror                  0048eda5 f   LIBCMT:strerror.obj
 0001:0008de11       _strerror_s                0048ee11 f   LIBCMT:strerror.obj
 0001:0008de72       __get_errno_from_oserr     0048ee72 f   LIBCMT:dosmap.obj
 0001:0008deb4       __errno                    0048eeb4 f   LIBCMT:dosmap.obj
 0001:0008dec7       ___doserrno                0048eec7 f   LIBCMT:dosmap.obj
 0001:0008deda       __dosmaperr                0048eeda f   LIBCMT:dosmap.obj
 0001:0008defd       __set_errno                0048eefd f   LIBCMT:dosmap.obj
 0001:0008df1e       __get_errno                0048ef1e f   LIBCMT:dosmap.obj
 0001:0008df4d       __set_doserrno             0048ef4d f   LIBCMT:dosmap.obj
 0001:0008df6e       __get_doserrno             0048ef6e f   LIBCMT:dosmap.obj
 0001:0008df9d       _fputs                     0048ef9d f   LIBCMT:fputs.obj
 0001:0008e0ac       _atol                      0048f0ac f   LIBCMT:atox.obj
 0001:0008e0c2       __atol_l                   0048f0c2 f   LIBCMT:atox.obj
 0001:0008e0db       _atoi                      0048f0db f   LIBCMT:atox.obj
 0001:0008e0e6       __atoi_l                   0048f0e6 f   LIBCMT:atox.obj
 0001:0008e0f1       __atoi64                   0048f0f1 f   LIBCMT:atox.obj
 0001:0008e107       __atoi64_l                 0048f107 f   LIBCMT:atox.obj
 0001:0008e120       __endthreadex              0048f120 f   LIBCMT:threadex.obj
 0001:0008e221       __beginthreadex            0048f221 f   LIBCMT:threadex.obj
 0001:0008e310       __except_handler4          0048f310 f   LIBCMT:chandler4.obj
 0001:0008e4e0       __itoa                     0048f4e0 f   LIBCMT:xtoa.obj
 0001:0008e4e0       _itoa                      0048f4e0 f   LIBCMT:xtoa.obj
 0001:0008e50a       _ltoa                      0048f50a f   LIBCMT:xtoa.obj
 0001:0008e50a       __ltoa                     0048f50a f   LIBCMT:xtoa.obj
 0001:0008e531       _ultoa                     0048f531 f   LIBCMT:xtoa.obj
 0001:0008e531       __ultoa                    0048f531 f   LIBCMT:xtoa.obj
 0001:0008e5ba       __i64toa                   0048f5ba f   LIBCMT:xtoa.obj
 0001:0008e5ed       __ui64toa                  0048f5ed f   LIBCMT:xtoa.obj
 0001:0008e674       _sscanf                    0048f674 f   LIBCMT:sscanf.obj
 0001:0008e696       __sscanf_l                 0048f696 f   LIBCMT:sscanf.obj
 0001:0008e6b9       _sscanf_s                  0048f6b9 f   LIBCMT:sscanf.obj
 0001:0008e6db       __sscanf_s_l               0048f6db f   LIBCMT:sscanf.obj
 0001:0008e6fe       __atof_l                   0048f6fe f   LIBCMT:atof.obj
 0001:0008e7a9       _atof                      0048f7a9 f   LIBCMT:atof.obj
 0001:0008e7bc       ___strgtold12              0048f7bc f   LIBCMT:atof.obj
 0001:0008e7fe       ___STRINGTOLD              0048f7fe f   LIBCMT:atof.obj
 0001:0008e837       __MarkAllocaS              0048f837 f i LIBCMT:strftime.obj
 0001:0008e84d       __freea                    0048f84d f i LIBCMT:strftime.obj
 0001:0008e86d       __Getdays_l                0048f86d f   LIBCMT:strftime.obj
 0001:0008e96d       __Getdays                  0048f96d f   LIBCMT:strftime.obj
 0001:0008e976       __Getmonths_l              0048f976 f   LIBCMT:strftime.obj
 0001:0008ea76       __Getmonths                0048fa76 f   LIBCMT:strftime.obj
 0001:0008ea7f       __Gettnames_l              0048fa7f f   LIBCMT:strftime.obj
 0001:0008edd6       __Gettnames                0048fdd6 f   LIBCMT:strftime.obj
 0001:0008f6f9       __Strftime_l               004906f9 f   LIBCMT:strftime.obj
 0001:0008f89d       __strftime_l               0049089d f   LIBCMT:strftime.obj
 0001:0008f8bd       _strftime                  004908bd f   LIBCMT:strftime.obj
 0001:0008f8dc       __Strftime                 004908dc f   LIBCMT:strftime.obj
 0001:0008f8fc       __localtime64_s            004908fc f   LIBCMT:loctim64.obj
 0001:0008fbb4       __localtime64              00490bb4 f   LIBCMT:loctim64.obj
 0001:0008fe0a       _strtol                    00490e0a f   LIBCMT:strtol.obj
 0001:0008fe35       __strtol_l                 00490e35 f   LIBCMT:strtol.obj
 0001:0008fe52       _strtoul                   00490e52 f   LIBCMT:strtol.obj
 0001:0008fe7e       __strtoul_l                00490e7e f   LIBCMT:strtol.obj
 0001:0008fe9b       _fabs                      00490e9b f   LIBCMT:_fabs_.obj
 0001:0008ff55       __strtod_l                 00490f55 f   LIBCMT:strtod.obj
 0001:00090074       _strtod                    00491074 f   LIBCMT:strtod.obj
 0001:00090090       _strpbrk                   00491090 f   LIBCMT:strpbrk.obj
 0001:000900d0       __allmul                   004910d0 f   LIBCMT:llmul.obj
 0001:00090110       __alldiv                   00491110 f   LIBCMT:lldiv.obj
 0001:000901c0       __aullrem                  004911c0 f   LIBCMT:ullrem.obj
 0001:00090240       __aulldiv                  00491240 f   LIBCMT:ulldiv.obj
 0001:000902a8       __gmtime64_s               004912a8 f   LIBCMT:gmtime64.obj
 0001:000904eb       __gmtime64                 004914eb f   LIBCMT:gmtime64.obj
 0001:000907c7       __mktime64                 004917c7 f   LIBCMT:mktime64.obj
 0001:000907d9       __mkgmtime64               004917d9 f   LIBCMT:mktime64.obj
 0001:000907eb       __ftime64_s                004917eb f   LIBCMT:ftime64.obj
 0001:00090961       __ftime64                  00491961 f   LIBCMT:ftime64.obj
 0001:00090970       __allshl                   00491970 f   LIBCMT:llshl.obj
 0001:00090990       __aullshr                  00491990 f   LIBCMT:ullshr.obj
 0001:000909af       __gmtime32_s               004919af f   LIBCMT:gmtime.obj
 0001:00090ae2       ___getgmtimebuf            00491ae2 f   LIBCMT:gmtime.obj
 0001:00090b19       __gmtime32                 00491b19 f   LIBCMT:gmtime.obj
 0001:00090b40       __localtime32_s            00491b40 f   LIBCMT:localtim.obj
 0001:00090d6f       __localtime32              00491d6f f   LIBCMT:localtim.obj
 0001:00090d96       __initp_misc_invarg        00491d96 f   LIBCMT:invarg.obj
 0001:00090da5       __invoke_watson            00491da5 f   LIBCMT:invarg.obj
 0001:00090ecd       __set_invalid_parameter_handler 00491ecd f   LIBCMT:invarg.obj
 0001:00090ef4       __get_invalid_parameter_handler 00491ef4 f   LIBCMT:invarg.obj
 0001:00090f01       ?_invoke_watson@@YAXPBG00II@Z 00491f01 f   LIBCMT:invarg.obj
 0001:00090f0c       __invalid_parameter        00491f0c f   LIBCMT:invarg.obj
 0001:00090f32       __invalid_parameter_noinfo 00491f32 f   LIBCMT:invarg.obj
 0001:00090f42       ?_invalid_parameter@@YAXPBG00II@Z 00491f42 f   LIBCMT:invarg.obj
 0001:00090f4d       __vswprintf_helper         00491f4d f   LIBCMT:vswprnc.obj
 0001:00091045       __vswprintf_c              00492045 f   LIBCMT:vswprnc.obj
 0001:0009106e       __vswprintf_c_l            0049206e f   LIBCMT:vswprnc.obj
 0001:00091098       __vswprintf_s_l            00492098 f   LIBCMT:vswprnc.obj
 0001:00091123       _vswprintf_s               00492123 f   LIBCMT:vswprnc.obj
 0001:00091140       __vsnwprintf_s_l           00492140 f   LIBCMT:vswprnc.obj
 0001:0009124c       __vsnwprintf_s             0049224c f   LIBCMT:vswprnc.obj
 0001:0009126c       __vswprintf_p              0049226c f   LIBCMT:vswprnc.obj
 0001:00091295       __vswprintf_p_l            00492295 f   LIBCMT:vswprnc.obj
 0001:000912bf       _fwprintf                  004922bf f   LIBCMT:fwprintf.obj
 0001:00091353       __fwprintf_l               00492353 f   LIBCMT:fwprintf.obj
 0001:0009136f       __fwprintf_s_l             0049236f f   LIBCMT:fwprintf.obj
 0001:0009138b       _fwprintf_s                0049238b f   LIBCMT:fwprintf.obj
 0001:000913a6       __fwprintf_p_l             004923a6 f   LIBCMT:fwprintf.obj
 0001:000913c2       __fwprintf_p               004923c2 f   LIBCMT:fwprintf.obj
 0001:000913dd       _setvbuf                   004923dd f   LIBCMT:setvbuf.obj
 0001:000914db       _abort                     004924db f   LIBCMT:abort.obj
 0001:000915f2       __set_abort_behavior       004925f2 f   LIBCMT:abort.obj
 0001:00091613       ___crtMessageBoxW          00492613 f   LIBCMT:crtmboxw.obj
 0001:00091872       __itow_s                   00492872 f   LIBCMT:xtows.obj
 0001:0009189e       __ltow_s                   0049289e f   LIBCMT:xtows.obj
 0001:000918c5       __ultow_s                  004928c5 f   LIBCMT:xtows.obj
 0001:000919e5       __i64tow_s                 004929e5 f   LIBCMT:xtows.obj
 0001:00091a1a       __ui64tow_s                00492a1a f   LIBCMT:xtows.obj
 0001:00091a39       _wcsncat_s                 00492a39 f   LIBCMT:wcsncat_s.obj
 0001:00091b27       _wcsncpy_s                 00492b27 f   LIBCMT:wcsncpy_s.obj
 0001:00091bfa       _wcslen                    00492bfa f   LIBCMT:wcslen.obj
 0001:00091c14       _wcscat_s                  00492c14 f   LIBCMT:wcscat_s.obj
 0001:00091c91       _wcscpy_s                  00492c91 f   LIBCMT:wcscpy_s.obj
 0001:00091d00       __set_error_mode           00492d00 f   LIBCMT:errmode.obj
 0001:00091d4b       ___set_app_type            00492d4b f   LIBCMT:errmode.obj
 0001:00091d5a       ___get_app_type            00492d5a f   LIBCMT:errmode.obj
 0001:00091d60       ___report_gsfailure        00492d60 f   LIBCMT:gs_report.obj
 0001:00091e66       __stbuf                    00492e66 f   LIBCMT:_sftbuf.obj
 0001:00091f02       __ftbuf                    00492f02 f   LIBCMT:_sftbuf.obj
 0001:00091fdc       _get_int_arg               00492fdc f i LIBCMT:output.obj
 0001:00091fee       _get_int64_arg             00492fee f i LIBCMT:output.obj
 0001:00092003       _get_short_arg             00493003 f i LIBCMT:output.obj
 0001:00092016       __output_l                 00493016 f   LIBCMT:output.obj
 0001:00092bb0       __SEH_prolog4              00493bb0 f   LIBCMT:sehprolg4.obj
 0001:00092bf5       __SEH_epilog4              00493bf5 f   LIBCMT:sehprolg4.obj
 0001:00092c09       _vprintf_helper            00493c09 f   LIBCMT:vprintf.obj
 0001:00092c99       __vprintf_l                00493c99 f   LIBCMT:vprintf.obj
 0001:00092cb6       __vprintf_s_l              00493cb6 f   LIBCMT:vprintf.obj
 0001:00092cd3       __vprintf_p_l              00493cd3 f   LIBCMT:vprintf.obj
 0001:00092cf0       _vprintf                   00493cf0 f   LIBCMT:vprintf.obj
 0001:00092d0c       _vprintf_s                 00493d0c f   LIBCMT:vprintf.obj
 0001:00092d28       __vprintf_p                00493d28 f   LIBCMT:vprintf.obj
 0001:00092d44       ?strrchr@@YAPADPADH@Z      00493d44 f i LIBCMT:cvt.obj
 0001:00092d4f       __forcdecpt_l              00493d4f f   LIBCMT:cvt.obj
 0001:00092dc2       __cropzeros_l              00493dc2 f   LIBCMT:cvt.obj
 0001:00092e44       __positive                 00493e44 f   LIBCMT:cvt.obj
 0001:00092e60       __fassign_l                00493e60 f   LIBCMT:cvt.obj
 0001:00092ea2       __fassign                  00493ea2 f   LIBCMT:cvt.obj
 0001:00092edb       __forcdecpt                00493edb f   LIBCMT:cvt.obj
 0001:00092eee       __cropzeros                00493eee f   LIBCMT:cvt.obj
 0001:00093070       __cftoe_l                  00494070 f   LIBCMT:cvt.obj
 0001:00093140       __cftoe                    00494140 f   LIBCMT:cvt.obj
 0001:00093160       __cftoa_l                  00494160 f   LIBCMT:cvt.obj
 0001:000934d3       __cftoa                    004944d3 f   LIBCMT:cvt.obj
 0001:000935ea       __cftof_l                  004945ea f   LIBCMT:cvt.obj
 0001:000936a5       __cftof                    004946a5 f   LIBCMT:cvt.obj
 0001:000936c2       __cftog_l                  004946c2 f   LIBCMT:cvt.obj
 0001:000937bc       __cftog                    004947bc f   LIBCMT:cvt.obj
 0001:000937dc       __cfltcvt_l                004947dc f   LIBCMT:cvt.obj
 0001:00093864       __cfltcvt                  00494864 f   LIBCMT:cvt.obj
 0001:00093887       __initp_misc_cfltcvt_tab   00494887 f   LIBCMT:cmiscdat.obj
 0001:000938a8       __setdefaultprecision      004948a8 f   LIBCMT:fp8.obj
 0001:000938d3       __ms_p5_test_fdiv          004948d3 f   LIBCMT:_testfdiv_.obj
 0001:00093911       __ms_p5_mp_test_fdiv       00494911 f   LIBCMT:_testfdiv_.obj
 0001:0009398a       __get_sse2_info            0049498a f   LIBCMT:cpu_disp.obj
 0001:000939ec       ___sse2_available_init     004949ec f   LIBCMT:cpu_disp.obj
 0001:00093c1f       ___updatetmbcinfo          00494c1f f   LIBCMT:mbctype.obj
 0001:00093d3f       __setmbcp_nolock           00494d3f f   LIBCMT:mbctype.obj
 0001:00093f24       __getmbcp                  00494f24 f   LIBCMT:mbctype.obj
 0001:00093f62       __setmbcp                  00494f62 f   LIBCMT:mbctype.obj
 0001:000940fc       ___initmbctable            004950fc f   LIBCMT:mbctype.obj
 0001:0009411a       ____setlc_active_func      0049511a f   LIBCMT:setlocal.obj
 0001:00094120       ____unguarded_readlc_active_add_func 00495120 f   LIBCMT:setlocal.obj
 0001:00094126       ___freetlocinfo            00495126 f   LIBCMT:setlocal.obj
 0001:0009426f       ___addlocaleref            0049526f f   LIBCMT:setlocal.obj
 0001:000942fe       ___removelocaleref         004952fe f   LIBCMT:setlocal.obj
 0001:000943fb       ___updatetlocinfo          004953fb f   LIBCMT:setlocal.obj
 0001:00094471       __configthreadlocale       00495471 f   LIBCMT:setlocal.obj
 0001:0009452e       __free_locale              0049552e f   LIBCMT:setlocal.obj
 0001:000945f0       ___free_locale             004955f0 f   LIBCMT:setlocal.obj
 0001:000945fb       __get_current_locale       004955fb f   LIBCMT:setlocal.obj
 0001:000946aa       ___get_current_locale      004956aa f   LIBCMT:setlocal.obj
 0001:000946af       ___init_dummy              004956af f   LIBCMT:setlocal.obj
 0001:000946b2       __strcats                  004956b2 f   LIBCMT:setlocal.obj
 0001:000946f2       ___lc_strtolc              004956f2 f   LIBCMT:setlocal.obj
 0001:0009481b       ___lc_lctostr              0049581b f   LIBCMT:setlocal.obj
 0001:00094a05       __expandlocale             00495a05 f   LIBCMT:setlocal.obj
 0001:00095153       __create_locale            00496153 f   LIBCMT:setlocal.obj
 0001:00095248       ___create_locale           00496248 f   LIBCMT:setlocal.obj
 0001:00095253       _setlocale                 00496253 f   LIBCMT:setlocal.obj
 0001:000953c3       __crt_wait_module_handle   004963c3 f i LIBCMT:tidtable.obj
 0001:000953dd       __encode_pointer           004963dd f   LIBCMT:tidtable.obj
 0001:0009544f       __encoded_null             0049644f f   LIBCMT:tidtable.obj
 0001:00095458       __decode_pointer           00496458 f   LIBCMT:tidtable.obj
 0001:000954ca       ___crtTlsAlloc@4           004964ca f   LIBCMT:tidtable.obj
 0001:000954d3       ___fls_getvalue@4          004964d3 f   LIBCMT:tidtable.obj
 0001:000954ed       ___get_flsindex            004964ed f   LIBCMT:tidtable.obj
 0001:000954f3       ___set_flsgetvalue         004964f3 f   LIBCMT:tidtable.obj
 0001:00095527       ___fls_setvalue@8          00496527 f   LIBCMT:tidtable.obj
 0001:00095544       __mtterm                   00496544 f   LIBCMT:tidtable.obj
 0001:00095581       __initptd                  00496581 f   LIBCMT:tidtable.obj
 0001:00095668       __getptd_noexit            00496668 f   LIBCMT:tidtable.obj
 0001:000956e1       __getptd                   004966e1 f   LIBCMT:tidtable.obj
 0001:000956fb       __freefls@4                004966fb f   LIBCMT:tidtable.obj
 0001:0009582a       __freeptd                  0049682a f   LIBCMT:tidtable.obj
 0001:00095898       ___threadid                00496898 f   LIBCMT:tidtable.obj
 0001:0009589e       ___threadhandle            0049689e f   LIBCMT:tidtable.obj
 0001:000958a4       __mtinit                   004968a4 f   LIBCMT:tidtable.obj
 0001:00095df4       ___crtLCMapStringA         00496df4 f   LIBCMT:a_map.obj
 0001:00095e39       __isleadbyte_l             00496e39 f i LIBCMT:_wctype.obj
 0001:00095e71       _isleadbyte                00496e71 f i LIBCMT:_wctype.obj
 0001:00095e84       __iswalpha_l               00496e84 f i LIBCMT:_wctype.obj
 0001:00095e9e       _iswalpha                  00496e9e f i LIBCMT:_wctype.obj
 0001:00095eb4       __iswupper_l               00496eb4 f i LIBCMT:_wctype.obj
 0001:00095ecb       _iswupper                  00496ecb f i LIBCMT:_wctype.obj
 0001:00095ede       __iswlower_l               00496ede f i LIBCMT:_wctype.obj
 0001:00095ef5       _iswlower                  00496ef5 f i LIBCMT:_wctype.obj
 0001:00095f08       __iswdigit_l               00496f08 f i LIBCMT:_wctype.obj
 0001:00095f1f       _iswdigit                  00496f1f f i LIBCMT:_wctype.obj
 0001:00095f32       __iswxdigit_l              00496f32 f i LIBCMT:_wctype.obj
 0001:00095f4c       _iswxdigit                 00496f4c f i LIBCMT:_wctype.obj
 0001:00095f62       __iswspace_l               00496f62 f i LIBCMT:_wctype.obj
 0001:00095f79       _iswspace                  00496f79 f i LIBCMT:_wctype.obj
 0001:00095f8c       __iswpunct_l               00496f8c f i LIBCMT:_wctype.obj
 0001:00095fa3       _iswpunct                  00496fa3 f i LIBCMT:_wctype.obj
 0001:00095fb6       __iswalnum_l               00496fb6 f i LIBCMT:_wctype.obj
 0001:00095fd0       _iswalnum                  00496fd0 f i LIBCMT:_wctype.obj
 0001:00095fe6       __iswprint_l               00496fe6 f i LIBCMT:_wctype.obj
 0001:00096000       _iswprint                  00497000 f i LIBCMT:_wctype.obj
 0001:00096016       __iswgraph_l               00497016 f i LIBCMT:_wctype.obj
 0001:00096030       _iswgraph                  00497030 f i LIBCMT:_wctype.obj
 0001:00096046       __iswcntrl_l               00497046 f i LIBCMT:_wctype.obj
 0001:0009605d       _iswcntrl                  0049705d f i LIBCMT:_wctype.obj
 0001:00096070       _iswascii                  00497070 f i LIBCMT:_wctype.obj
 0001:00096084       __iswcsym_l                00497084 f i LIBCMT:_wctype.obj
 0001:000960ae       ___iswcsym                 004970ae f i LIBCMT:_wctype.obj
 0001:000960d4       __iswcsymf_l               004970d4 f i LIBCMT:_wctype.obj
 0001:000960fe       ___iswcsymf                004970fe f i LIBCMT:_wctype.obj
 0001:00096124       __isctype_l                00497124 f   LIBCMT:isctype.obj
 0001:000961dc       __isctype                  004971dc f   LIBCMT:isctype.obj
 0001:00096265       __INTRN_LOCALE_CONV        00497265 f i LIBCMT:input.obj
 0001:000962ea       __input_l                  004972ea f   LIBCMT:input.obj
 0001:00097371       __input_s_l                00498371 f   LIBCMT:inputs.obj
 0001:000984ec       __VEC_memzero              004994ec f   LIBCMT:p4_memset.obj
 0001:0009857b       __flsbuf                   0049957b f   LIBCMT:_flsbuf.obj
 0001:000986df       __vsprintf_l               004996df f   LIBCMT:vsprintf.obj
 0001:0009875d       _vsprintf                  0049975d f   LIBCMT:vsprintf.obj
 0001:00098777       __vscprintf_helper         00499777 f   LIBCMT:vsprintf.obj
 0001:000987ce       __vscprintf                004997ce f   LIBCMT:vsprintf.obj
 0001:000987ea       __vscprintf_l              004997ea f   LIBCMT:vsprintf.obj
 0001:00098807       __vscprintf_p              00499807 f   LIBCMT:vsprintf.obj
 0001:00098823       __vscprintf_p_l            00499823 f   LIBCMT:vsprintf.obj
 0001:00098840       __vsnprintf_helper         00499840 f   LIBCMT:vsnprnc.obj
 0001:0009890c       __vsnprintf_c              0049990c f   LIBCMT:vsnprnc.obj
 0001:00098935       __vsnprintf_c_l            00499935 f   LIBCMT:vsnprnc.obj
 0001:0009895f       __vsprintf_s_l             0049995f f   LIBCMT:vsnprnc.obj
 0001:000989e7       _vsprintf_s                004999e7 f   LIBCMT:vsnprnc.obj
 0001:00098a04       __vsnprintf_s_l            00499a04 f   LIBCMT:vsnprnc.obj
 0001:00098b0b       __vsnprintf_s              00499b0b f   LIBCMT:vsnprnc.obj
 0001:00098b2b       __vsprintf_p               00499b2b f   LIBCMT:vsnprnc.obj
 0001:00098b54       __vsprintf_p_l             00499b54 f   LIBCMT:vsnprnc.obj
 0001:00098b7e       __NMSG_WRITE               00499b7e f   LIBCMT:crt0msg.obj
 0001:00098d29       __GET_RTERRMSG             00499d29 f   LIBCMT:crt0msg.obj
 0001:00098d4f       __FF_MSGBANNER             00499d4f f   LIBCMT:crt0msg.obj
 0001:00098d88       __mtinitlocks              00499d88 f   LIBCMT:mlock.obj
 0001:00098dd3       __mtdeletelocks            00499dd3 f   LIBCMT:mlock.obj
 0001:00098e2a       __unlock                   00499e2a f   LIBCMT:mlock.obj
 0001:00098e41       __lockerr_exit             00499e41 f   LIBCMT:mlock.obj
 0001:00098e59       __mtinitlocknum            00499e59 f   LIBCMT:mlock.obj
 0001:00098f1c       __lock                     00499f1c f   LIBCMT:mlock.obj
 0001:00099009       ___onexitinit              0049a009 f   LIBCMT:onexit.obj
 0001:0009903a       __onexit                   0049a03a f   LIBCMT:onexit.obj
 0001:00099076       _atexit                    0049a076 f   LIBCMT:onexit.obj
 0001:0009908d       __RTC_Initialize           0049a08d f   LIBCMT:_initsect_.obj
 0001:000990b3       __RTC_Terminate            0049a0b3 f   LIBCMT:_initsect_.obj
 0001:000990e0       __ValidateImageBase        0049a0e0 f   LIBCMT:pesect.obj
 0001:00099120       __FindPESection            0049a120 f   LIBCMT:pesect.obj
 0001:00099170       __IsNonwritableInCurrentImage 0049a170 f   LIBCMT:pesect.obj
 0001:0009922d       ?terminate@@YAXXZ          0049a22d f   LIBCMT:hooks.obj
 0001:00099266       ?unexpected@@YAXXZ         0049a266 f   LIBCMT:hooks.obj
 0001:00099279       ?_inconsistency@@YAXXZ     0049a279 f   LIBCMT:hooks.obj
 0001:000992b1       __initp_eh_hooks           0049a2b1 f   LIBCMT:hooks.obj
 0001:000992c2       __initp_misc_winxfltr      0049a2c2 f   LIBCMT:winxfltr.obj
 0001:000992f8       __XcptFilter               0049a2f8 f   LIBCMT:winxfltr.obj
 0001:00099458       ___CppXcptFilter           0049a458 f   LIBCMT:winxfltr.obj
 0001:00099478       __initp_misc_rand_s        0049a478 f   LIBCMT:rand_s.obj
 0001:00099487       _rand_s                    0049a487 f   LIBCMT:rand_s.obj
 0001:0009958f       ___getlocaleinfo           0049a58f f   LIBCMT:inithelp.obj
 0001:0009970e       __initp_misc_purevirt      0049a70e f   LIBCMT:inithelp.obj
 0001:0009971d       __initp_misc_initcrit      0049a71d f   LIBCMT:initcrit.obj
 0001:0009972c       ___crtInitCritSecAndSpinCount 0049a72c f   LIBCMT:initcrit.obj
 0001:0009978c       __initp_heap_handler       0049a78c f   LIBCMT:handler.obj
 0001:0009979b       ?_set_new_handler@@YAP6AHI@ZP6AHI@Z@Z 0049a79b f   LIBCMT:handler.obj
 0001:000997d1       ?_set_new_handler@@YAP6AHI@ZH@Z 0049a7d1 f   LIBCMT:handler.obj
 0001:000997da       ?_query_new_handler@@YAP6AHI@ZXZ 0049a7da f   LIBCMT:handler.obj
 0001:000997e7       __callnewh                 0049a7e7 f   LIBCMT:handler.obj
 0001:0009980f       _wait_a_bit                0049a80f f i LIBCMT:crtheap.obj
 0001:00099835       __set_malloc_crt_max_wait  0049a835 f   LIBCMT:crtheap.obj
 0001:0009984a       __malloc_crt               0049a84a f   LIBCMT:crtheap.obj
 0001:0009988f       __calloc_crt               0049a88f f   LIBCMT:crtheap.obj
 0001:000998db       __realloc_crt              0049a8db f   LIBCMT:crtheap.obj
 0001:00099929       __recalloc_crt             0049a929 f   LIBCMT:crtheap.obj
 0001:0009997b       __ioinit                   0049a97b f   LIBCMT:ioinit.obj
 0001:00099bcf       __ioterm                   0049abcf f   LIBCMT:ioinit.obj
 0001:00099c1d       _fileno                    0049ac1d f   LIBCMT:fileno.obj
 0001:00099c1d       __fileno                   0049ac1d f   LIBCMT:fileno.obj
 0001:00099c4f       __fcloseall                0049ac4f f   LIBCMT:closeall.obj
 0001:00099cee       __get_sbh_threshold        0049acee f   LIBCMT:sbheap.obj
 0001:00099d0f       __set_amblksiz             0049ad0f f   LIBCMT:sbheap.obj
 0001:00099d5a       __get_amblksiz             0049ad5a f   LIBCMT:sbheap.obj
 0001:00099d9b       ___sbh_heap_init           0049ad9b f   LIBCMT:sbheap.obj
 0001:00099de9       ___sbh_find_block          0049ade9 f   LIBCMT:sbheap.obj
 0001:00099e19       ___sbh_free_block          0049ae19 f   LIBCMT:sbheap.obj
 0001:0009a12f       ___sbh_alloc_new_region    0049b12f f   LIBCMT:sbheap.obj
 0001:0009a1df       ___sbh_alloc_new_group     0049b1df f   LIBCMT:sbheap.obj
 0001:0009a2e7       ___sbh_resize_block        0049b2e7 f   LIBCMT:sbheap.obj
 0001:0009a5c8       ___sbh_heapmin             0049b5c8 f   LIBCMT:sbheap.obj
 0001:0009a695       ___sbh_heap_check          0049b695 f   LIBCMT:sbheap.obj
 0001:0009a979       __set_sbh_threshold        0049b979 f   LIBCMT:sbheap.obj
 0001:0009aa28       ___sbh_alloc_block         0049ba28 f   LIBCMT:sbheap.obj
 0001:0009ad0d       ___heap_select             0049bd0d f   LIBCMT:heapinit.obj
 0001:0009ad11       __heap_init                0049bd11 f   LIBCMT:heapinit.obj
 0001:0009ad41       __heap_term                0049bd41 f   LIBCMT:heapinit.obj
 0001:0009adb5       __get_heap_handle          0049bdb5 f   LIBCMT:heapinit.obj
 0001:0009ae42       __VEC_memcpy               0049be42 f   LIBCMT:p4_memcpy.obj
 0001:0009af25       __close_nolock             0049bf25 f   LIBCMT:close.obj
 0001:0009afc1       __close                    0049bfc1 f   LIBCMT:close.obj
 0001:0009b08e       __freebuf                  0049c08e f   LIBCMT:_freebuf.obj
 0001:0009b0bf       __write_nolock             0049c0bf f   LIBCMT:write.obj
 0001:0009b7f2       __write                    0049c7f2 f   LIBCMT:write.obj
 0001:0009b8ce       __openfile                 0049c8ce f   LIBCMT:_open.obj
 0001:0009bb97       __getstream                0049cb97 f   LIBCMT:stream.obj
 0001:0009bcd0       __local_unwind4            0049ccd0 f   LIBCMT:exsup4.obj
 0001:0009bda6       __seh_longjmp_unwind4@4    0049cda6 f   LIBCMT:exsup4.obj
 0001:0009bdc2       @_EH4_CallFilterFunc@8     0049cdc2 f   LIBCMT:exsup4.obj
 0001:0009bdd9       @_EH4_TransferToHandler@8  0049cdd9 f   LIBCMT:exsup4.obj
 0001:0009bdf2       @_EH4_GlobalUnwind@4       0049cdf2 f   LIBCMT:exsup4.obj
 0001:0009be0c       @_EH4_LocalUnwind@16       0049ce0c f   LIBCMT:exsup4.obj
 0001:0009be23       __filbuf                   0049ce23 f   LIBCMT:_filbuf.obj
 0001:0009bf4e       __read_nolock              0049cf4e f   LIBCMT:read.obj
 0001:0009c510       __read                     0049d510 f   LIBCMT:read.obj
 0001:0009c60d       _memcpy_s                  0049d60d f   LIBCMT:memcpy_s.obj
 0001:0009c68a       __set_osfhnd               0049d68a f   LIBCMT:osfinfo.obj
 0001:0009c70b       __free_osfhnd              0049d70b f   LIBCMT:osfinfo.obj
 0001:0009c791       __get_osfhandle            0049d791 f   LIBCMT:osfinfo.obj
 0001:0009c808       ___lock_fhandle            0049d808 f   LIBCMT:osfinfo.obj
 0001:0009c8a8       __unlock_fhandle           0049d8a8 f   LIBCMT:osfinfo.obj
 0001:0009c8cf       __alloc_osfhnd             0049d8cf f   LIBCMT:osfinfo.obj
 0001:0009ca69       __open_osfhandle           0049da69 f   LIBCMT:osfinfo.obj
 0001:0009cb7f       ___loctotime64_t           0049db7f f   LIBCMT:dtoxtm64.obj
 0001:0009cdea       ?__CxxUnhandledExceptionFilter@@YGJPAU_EXCEPTION_POINTERS@@@Z 0049ddea f   LIBCMT:unhandld.obj
 0001:0009ce2c       ___CxxSetUnhandledExceptionFilter 0049de2c f   LIBCMT:unhandld.obj
 0001:0009ce3a       __setenvp                  0049de3a f   LIBCMT:stdenvp.obj
 0001:0009cf18       __set_pgmptr               0049df18 f i LIBCMT:stdargv.obj
 0001:0009d0c1       __setargv                  0049e0c1 f   LIBCMT:stdargv.obj
 0001:0009d17c       ___crtGetEnvironmentStringsA 0049e17c f   LIBCMT:a_env.obj
 0001:0009d2b3       ___security_init_cookie    0049e2b3 f   LIBCMT:gs_support.obj
 0001:0009d349       __calloc_impl              0049e349 f   LIBCMT:calloc_impl.obj
 0001:0009d467       _vfprintf_helper           0049e467 f   LIBCMT:vfprintf.obj
 0001:0009d582       __vfprintf_l               0049e582 f   LIBCMT:vfprintf.obj
 0001:0009d5a2       __vfprintf_s_l             0049e5a2 f   LIBCMT:vfprintf.obj
 0001:0009d5c2       __vfprintf_p_l             0049e5c2 f   LIBCMT:vfprintf.obj
 0001:0009d5e2       _vfprintf                  0049e5e2 f   LIBCMT:vfprintf.obj
 0001:0009d601       _vfprintf_s                0049e601 f   LIBCMT:vfprintf.obj
 0001:0009d620       __vfprintf_p               0049e620 f   LIBCMT:vfprintf.obj
 0001:0009d63f       __commit                   0049e63f f   LIBCMT:commit.obj
 0001:0009d720       __lseek_nolock             0049e720 f   LIBCMT:lseek.obj
 0001:0009d795       __lseek                    0049e795 f   LIBCMT:lseek.obj
 0001:0009d889       _asctime_s                 0049e889 f   LIBCMT:asctime.obj
 0001:0009da57       _asctime                   0049ea57 f   LIBCMT:asctime.obj
 0001:0009daa3       ___sys_nerr                0049eaa3 f   LIBCMT:syserr.obj
 0001:0009daa9       ___sys_errlist             0049eaa9 f   LIBCMT:syserr.obj
 0001:0009daaf       _strcpy_s                  0049eaaf f   LIBCMT:strcpy_s.obj
 0001:0009db17       _strncpy_s                 0049eb17 f   LIBCMT:strncpy_s.obj
 0001:0009de63       __strtoi64                 0049ee63 f   LIBCMT:strtoq.obj
 0001:0009de8e       __strtoi64_l               0049ee8e f   LIBCMT:strtoq.obj
 0001:0009deab       __strtoui64                0049eeab f   LIBCMT:strtoq.obj
 0001:0009ded7       __strtoui64_l              0049eed7 f   LIBCMT:strtoq.obj
 0001:0009df00       __aulldvrm                 0049ef00 f   LIBCMT:ulldvrm.obj
 0001:0009df95       __fltin2                   0049ef95 f   LIBCMT:_cfin_.obj
 0001:0009e03c       ___addl                    0049f03c f i LIBCMT:_strgtold_.obj
 0001:0009e060       ___shl_12                  0049f060 f i LIBCMT:_strgtold_.obj
 0001:0009e093       ___shr_12                  0049f093 f i LIBCMT:_strgtold_.obj
 0001:0009e0c5       ___ld12mul                 0049f0c5 f i LIBCMT:_strgtold_.obj
 0001:0009e340       ___multtenpow12            0049f340 f i LIBCMT:_strgtold_.obj
 0001:0009e645       ___strgtold12_l            0049f645 f   LIBCMT:_strgtold_.obj
 0001:0009ed3d       ___STRINGTOLD_L            0049fd3d f   LIBCMT:_strgtold_.obj
 0001:0009ed98       __get_daylight             0049fd98 f   LIBCMT:timeset.obj
 0001:0009edd1       __get_dstbias              0049fdd1 f   LIBCMT:timeset.obj
 0001:0009ee0a       __get_timezone             0049fe0a f   LIBCMT:timeset.obj
 0001:0009ee43       __get_tzname               0049fe43 f   LIBCMT:timeset.obj
 0001:0009eee7       ___daylight                0049fee7 f   LIBCMT:timeset.obj
 0001:0009eeed       ___dstbias                 0049feed f   LIBCMT:timeset.obj
 0001:0009eef3       ___timezone                0049fef3 f   LIBCMT:timeset.obj
 0001:0009eef9       ___tzname                  0049fef9 f   LIBCMT:timeset.obj
 0001:0009eeff       __set_daylight             0049feff f i LIBCMT:tzset.obj
 0001:0009ef10       __set_dstbias              0049ff10 f i LIBCMT:tzset.obj
 0001:0009ef21       __set_timezone             0049ff21 f i LIBCMT:tzset.obj
 0001:0009f647       ___tzset                   004a0647 f   LIBCMT:tzset.obj
 0001:0009f696       __tzset                    004a0696 f   LIBCMT:tzset.obj
 0001:0009f6ce       __isindst                  004a06ce f   LIBCMT:tzset.obj
 0001:0009f70f       ___ascii_stricmp           004a070f f   LIBCMT:stricmp.obj
 0001:0009f748       __stricmp_l                004a0748 f   LIBCMT:stricmp.obj
 0001:0009f81d       _strcmpi                   004a081d f   LIBCMT:stricmp.obj
 0001:0009f81d       __stricmp                  004a081d f   LIBCMT:stricmp.obj
 0001:0009f81d       _stricmp                   004a081d f   LIBCMT:stricmp.obj
 0001:0009f870       __alloca_probe_16          004a0870 f   LIBCMT:alloca16.obj
 0001:0009f886       __alloca_probe_8           004a0886     LIBCMT:alloca16.obj
 0001:0009f89c       __raise_exc_ex             004a089c f   LIBCMT:_fpexcept_.obj
 0001:0009fb78       __raise_exc                004a0b78 f   LIBCMT:_fpexcept_.obj
 0001:0009fb9b       __raise_excf               004a0b9b f   LIBCMT:_fpexcept_.obj
 0001:0009fbbe       __handle_exc               004a0bbe f   LIBCMT:_fpexcept_.obj
 0001:0009fda0       __set_errno_from_matherr   004a0da0 f   LIBCMT:_fpexcept_.obj
 0001:0009fdf3       __errcode                  004a0df3 f   LIBCMT:_fpexcept_.obj
 0001:0009fe27       __umatherr                 004a0e27 f   LIBCMT:_fpexcept_.obj
 0001:0009fec7       __handle_qnan1             004a0ec7 f   LIBCMT:_fpexcept_.obj
 0001:0009ff1c       __handle_qnan2             004a0f1c f   LIBCMT:_fpexcept_.obj
 0001:0009ff7d       __except1                  004a0f7d f   LIBCMT:_fpexcept_.obj
 0001:000a0046       __except2                  004a1046 f   LIBCMT:_fpexcept_.obj
 0001:000a011e       __set_exp                  004a111e f   LIBCMT:_util_.obj
 0001:000a014a       __get_exp                  004a114a f   LIBCMT:_util_.obj
 0001:000a0162       __add_exp                  004a1162 f   LIBCMT:_util_.obj
 0001:000a018f       __set_bexp                 004a118f f   LIBCMT:_util_.obj
 0001:000a01b6       __sptype                   004a11b6 f   LIBCMT:_util_.obj
 0001:000a0216       __decomp                   004a1216 f   LIBCMT:_util_.obj
 0001:000a02cf       __statfp                   004a12cf f   LIBCMT:_fpctrl_.obj
 0001:000a02df       __clrfp                    004a12df f   LIBCMT:_fpctrl_.obj
 0001:000a02f0       __ctrlfp                   004a12f0 f   LIBCMT:_fpctrl_.obj
 0001:000a0319       __set_statfp               004a1319 f   LIBCMT:_fpctrl_.obj
 0001:000a0371       ___get_fpsr_sse2           004a1371 f   LIBCMT:_fpctrl_.obj
 0001:000a038f       ___set_fpsr_sse2           004a138f f   LIBCMT:_fpctrl_.obj
 0001:000a0401       ___fclrf_sse2              004a1401 f   LIBCMT:_fpctrl_.obj
 0001:000a041e       ___statfp_sse2             004a141e f   LIBCMT:_fpctrl_.obj
 0001:000a0431       ___clrfp_sse2              004a1431 f   LIBCMT:_fpctrl_.obj
 0001:000a0449       ___ctrlfp_sse2             004a1449 f   LIBCMT:_fpctrl_.obj
 0001:000a0480       ___set_statfp_sse2         004a1480 f   LIBCMT:_fpctrl_.obj
 0001:000a04a0       __crt_debugger_hook        004a14a0 f   LIBCMT:dbghook.obj
 0001:000a0550       __woutput_l                004a1550 f   LIBCMT:woutput.obj
 0001:000a1190       __woutput_s_l              004a2190 f   LIBCMT:woutputs.obj
 0001:000a1d30       __validate_param_reuseW    004a2d30 f   LIBCMT:woutputp.obj
 0001:000a1f2e       __woutput_p_l              004a2f2e f   LIBCMT:woutputp.obj
 0001:000a31ee       _vfwprintf_helper          004a41ee f   LIBCMT:vfwprint.obj
 0001:000a3281       __vfwprintf_l              004a4281 f   LIBCMT:vfwprint.obj
 0001:000a32a1       __vfwprintf_s_l            004a42a1 f   LIBCMT:vfwprint.obj
 0001:000a32c1       __vfwprintf_p_l            004a42c1 f   LIBCMT:vfwprint.obj
 0001:000a32e1       _vfwprintf                 004a42e1 f   LIBCMT:vfwprint.obj
 0001:000a3300       _vfwprintf_s               004a4300 f   LIBCMT:vfwprint.obj
 0001:000a331f       __vfwprintf_p              004a431f f   LIBCMT:vfwprint.obj
 0001:000a333e       __isatty                   004a433e f   LIBCMT:isatty.obj
 0001:000a33a2       __wctomb_s_l               004a43a2 f   LIBCMT:wctomb.obj
 0001:000a350e       _wctomb_s                  004a450e f   LIBCMT:wctomb.obj
 0001:000a352b       __wctomb_l                 004a452b f   LIBCMT:wctomb.obj
 0001:000a357c       _wctomb                    004a457c f   LIBCMT:wctomb.obj
 0001:000a3654       __output_s_l               004a4654 f   LIBCMT:outputs.obj
 0001:000a4224       __validate_param_reuseA    004a5224 f   LIBCMT:outputp.obj
 0001:000a43f5       _get_crtdouble_arg         004a53f5 f i LIBCMT:outputp.obj
 0001:000a440a       __output_p_l               004a540a f   LIBCMT:outputp.obj
 0001:000a56ca       __tolower                  004a66ca f   LIBCMT:tolower.obj
 0001:000a56d7       __tolower_l                004a66d7 f   LIBCMT:tolower.obj
 0001:000a57ec       _tolower                   004a67ec f   LIBCMT:tolower.obj
 0001:000a5818       __atodbl_l                 004a6818 f   LIBCMT:atodbl.obj
 0001:000a58c0       __atodbl                   004a68c0 f   LIBCMT:atodbl.obj
 0001:000a58d7       __atoldbl_l                004a68d7 f   LIBCMT:atodbl.obj
 0001:000a5980       __atoldbl                  004a6980 f   LIBCMT:atodbl.obj
 0001:000a5997       __atoflt_l                 004a6997 f   LIBCMT:atodbl.obj
 0001:000a5a3f       __atoflt                   004a6a3f f   LIBCMT:atodbl.obj
 0001:000a5a56       __set_output_format        004a6a56 f   LIBCMT:outputformat.obj
 0001:000a5a92       __get_output_format        004a6a92 f   LIBCMT:outputformat.obj
 0001:000a5a98       __fptostr                  004a6a98 f   LIBCMT:_fptostr.obj
 0001:000a5b57       ___dtold                   004a6b57 f   LIBCMT:_cfout_.obj
 0001:000a5c0f       __fltout2                  004a6c0f f   LIBCMT:_cfout_.obj
 0001:000a5ca0       __alldvrm                  004a6ca0 f   LIBCMT:lldvrm.obj
 0001:000a5d7f       __fptrap                   004a6d7f f   LIBCMT:crt0fp.obj
 0001:000a5d88       __controlfp_s              004a6d88 f   LIBCMT:_contrlfp_.obj
 0001:000a5fae       ___crtGetStringTypeA       004a6fae f   LIBCMT:a_str.obj
 0001:000a5ff0       ___pwctype_func            004a6ff0 f   LIBCMT:ctype.obj
 0001:000a5ff6       ___pctype_func             004a6ff6 f   LIBCMT:ctype.obj
 0001:000a643a       ___free_lc_time            004a743a f   LIBCMT:inittime.obj
 0001:000a65cf       ___init_time               004a75cf f   LIBCMT:inittime.obj
 0001:000a667b       ___free_lconv_num          004a767b f   LIBCMT:initnum.obj
 0001:000a66c0       ___init_numeric            004a76c0 f   LIBCMT:initnum.obj
 0001:000a68bd       ___free_lconv_mon          004a78bd f   LIBCMT:initmon.obj
 0001:000a694b       ___init_monetary           004a794b f   LIBCMT:initmon.obj
 0001:000a6c11       ___init_ctype              004a7c11 f   LIBCMT:initctyp.obj
 0001:000a6fb3       ____mb_cur_max_func        004a7fb3 f   LIBCMT:initctyp.obj
 0001:000a6fdc       ____mb_cur_max_l_func      004a7fdc f   LIBCMT:initctyp.obj
 0001:000a6ff8       ____lc_codepage_func       004a7ff8 f   LIBCMT:initctyp.obj
 0001:000a701e       ____lc_collate_cp_func     004a801e f   LIBCMT:initctyp.obj
 0001:000a7044       ____lc_handle_func         004a8044 f   LIBCMT:initctyp.obj
 0001:000a706a       ___init_collate            004a806a f   LIBCMT:initcoll.obj
 0001:000a706d       _localeconv                004a806d f   LIBCMT:lconv.obj
 0001:000a7093       _strcat_s                  004a8093 f   LIBCMT:strcat_s.obj
 0001:000a7110       _strcspn                   004a8110 f   LIBCMT:strcspn.obj
 0001:000a7751       ___get_qualified_locale    004a8751 f   LIBCMT:getqloc.obj
 0001:000a7942       ___ansicp                  004a8942 f   LIBCMT:convrtcp.obj
 0001:000a798b       ___convertcp               004a898b f   LIBCMT:convrtcp.obj
 0001:000a7b3f       __iswctype_l               004a8b3f f   LIBCMT:iswctype.obj
 0001:000a7bc9       _iswctype                  004a8bc9 f   LIBCMT:iswctype.obj
 0001:000a7c3f       _is_wctype                 004a8c3f f   LIBCMT:iswctype.obj
 0001:000a7c4a       __ungetc_nolock            004a8c4a f   LIBCMT:ungetc.obj
 0001:000a7d3b       _ungetc                    004a8d3b f   LIBCMT:ungetc.obj
 0001:000a7dad       __mbtowc_l                 004a8dad f   LIBCMT:mbtowc.obj
 0001:000a7ec4       _mbtowc                    004a8ec4 f   LIBCMT:mbtowc.obj
 0001:000a7ede       __lseeki64_nolock          004a8ede f   LIBCMT:lseeki64.obj
 0001:000a7f63       __lseeki64                 004a8f63 f   LIBCMT:lseeki64.obj
 0001:000a807c       __getbuf                   004a907c f   LIBCMT:_getbuf.obj
 0001:000a80c5       ___crtMessageBoxA          004a90c5 f   LIBCMT:crtmbox.obj
 0001:000a822e       __msize                    004a922e f   LIBCMT:msize.obj
 0001:000a82ea       ___crtGetLocaleInfoW       004a92ea f   LIBCMT:w_loc.obj
 0001:000a845d       ___crtGetLocaleInfoA       004a945d f   LIBCMT:a_loc.obj
 0001:000a849a       __recalloc                 004a949a f   LIBCMT:recalloc.obj
 0001:000a8515       __putwch_nolock            004a9515 f   LIBCMT:putwch.obj
 0001:000a85da       __cputws                   004a95da f   LIBCMT:putwch.obj
 0001:000a8679       __putwch                   004a9679 f   LIBCMT:putwch.obj
 0001:000a8dde       __open                     004a9dde f   LIBCMT:open.obj
 0001:000a8e94       __sopen_helper             004a9e94 f   LIBCMT:open.obj
 0001:000a8f60       __sopen                    004a9f60 f   LIBCMT:open.obj
 0001:000a8f92       __sopen_s                  004a9f92 f   LIBCMT:open.obj
 0001:000a8fb2       __mbsnbicmp_l              004a9fb2 f   LIBCMT:mbsnbicm.obj
 0001:000a91dd       __mbsnbicmp                004aa1dd f   LIBCMT:mbsnbicm.obj
 0001:000a91f7       __mbsnbcmp_l               004aa1f7 f   LIBCMT:mbsnbcmp.obj
 0001:000a9361       __mbsnbcmp                 004aa361 f   LIBCMT:mbsnbcmp.obj
 0001:000a937c       __global_unwind2           004aa37c f   LIBCMT:exsup.obj
 0001:000a93e1       __local_unwind2            004aa3e1 f   LIBCMT:exsup.obj
 0001:000a9465       __abnormal_termination     004aa465 f   LIBCMT:exsup.obj
 0001:000a9488       __NLG_Notify1              004aa488 f   LIBCMT:exsup.obj
 0001:000a9491       __NLG_Notify               004aa491 f   LIBCMT:exsup.obj
 0001:000a94a8       __NLG_Dispatch             004aa4a8     LIBCMT:exsup.obj
 0001:000a94a8       __NLG_Dispatch2            004aa4a8     LIBCMT:exsup.obj
 0001:000a94b0       __NLG_Call                 004aa4b0 f   LIBCMT:exsup.obj
 0001:000a94b2       __NLG_Return2              004aa4b2     LIBCMT:exsup.obj
 0001:000a9506       __ismbbkalnum_l            004aa506 f   LIBCMT:ismbbyte.obj
 0001:000a951f       __ismbbkalnum              004aa51f f   LIBCMT:ismbbyte.obj
 0001:000a9537       __ismbbkprint_l            004aa537 f   LIBCMT:ismbbyte.obj
 0001:000a9550       __ismbbkprint              004aa550 f   LIBCMT:ismbbyte.obj
 0001:000a9568       __ismbbkpunct_l            004aa568 f   LIBCMT:ismbbyte.obj
 0001:000a9581       __ismbbkpunct              004aa581 f   LIBCMT:ismbbyte.obj
 0001:000a9599       __ismbbalnum_l             004aa599 f   LIBCMT:ismbbyte.obj
 0001:000a95b5       __ismbbalnum               004aa5b5 f   LIBCMT:ismbbyte.obj
 0001:000a95d0       __ismbbalpha_l             004aa5d0 f   LIBCMT:ismbbyte.obj
 0001:000a95ec       __ismbbalpha               004aa5ec f   LIBCMT:ismbbyte.obj
 0001:000a9607       __ismbbgraph_l             004aa607 f   LIBCMT:ismbbyte.obj
 0001:000a9623       __ismbbgraph               004aa623 f   LIBCMT:ismbbyte.obj
 0001:000a963e       __ismbbprint_l             004aa63e f   LIBCMT:ismbbyte.obj
 0001:000a965a       __ismbbprint               004aa65a f   LIBCMT:ismbbyte.obj
 0001:000a9675       __ismbbpunct_l             004aa675 f   LIBCMT:ismbbyte.obj
 0001:000a968e       __ismbbpunct               004aa68e f   LIBCMT:ismbbyte.obj
 0001:000a96a6       __ismbblead_l              004aa6a6 f   LIBCMT:ismbbyte.obj
 0001:000a96bf       __ismbblead                004aa6bf f   LIBCMT:ismbbyte.obj
 0001:000a96d7       __ismbbtrail_l             004aa6d7 f   LIBCMT:ismbbyte.obj
 0001:000a96f0       __ismbbtrail               004aa6f0 f   LIBCMT:ismbbyte.obj
 0001:000a9708       __ismbbkana_l              004aa708 f   LIBCMT:ismbbyte.obj
 0001:000a975d       __ismbbkana                004aa75d f   LIBCMT:ismbbyte.obj
 0001:000a9770       __ZeroTail                 004aa770 f i LIBCMT:_intrncvt_.obj
 0001:000a97b9       __IncMan                   004aa7b9 f i LIBCMT:_intrncvt_.obj
 0001:000a9826       __RoundMan                 004aa826 f i LIBCMT:_intrncvt_.obj
 0001:000a9916       __CopyMan                  004aa916 f i LIBCMT:_intrncvt_.obj
 0001:000a9935       __FillZeroMan              004aa935 f i LIBCMT:_intrncvt_.obj
 0001:000a9946       __IsZeroMan                004aa946 f i LIBCMT:_intrncvt_.obj
 0001:000a9965       __ShrMan                   004aa965 f i LIBCMT:_intrncvt_.obj
 0001:000a99ff       __ld12cvt                  004aa9ff f i LIBCMT:_intrncvt_.obj
 0001:000a9f2a       __ld12tod                  004aaf2a f   LIBCMT:_intrncvt_.obj
 0001:000aa46e       __ld12tof                  004ab46e f   LIBCMT:_intrncvt_.obj
 0001:000aa9b2       __ld12told                 004ab9b2 f   LIBCMT:_intrncvt_.obj
 0001:000aaa74       ___add_12                  004aba74 f i LIBCMT:_mantold_.obj
 0001:000aaae5       ___mtold12                 004abae5 f   LIBCMT:_mantold_.obj
 0001:000aacb3       __getenv_helper_nolock     004abcb3 f   LIBCMT:getenv.obj
 0001:000aae73       _getenv                    004abe73 f   LIBCMT:getenv.obj
 0001:000aaef6       _getenv_s                  004abef6 f   LIBCMT:getenv.obj
 0001:000aafce       __dupenv_s                 004abfce f   LIBCMT:getenv.obj
 0001:000ab0b4       __matherr                  004ac0b4 f   LIBCMT:_matherr_.obj
 0001:000ab0b7       __fputwc_nolock            004ac0b7 f   LIBCMT:fputwc.obj
 0001:000ab23e       _fputwc                    004ac23e f   LIBCMT:fputwc.obj
 0001:000ab2b7       _putwc                     004ac2b7 f   LIBCMT:fputwc.obj
 0001:000ab4bc       _wcstol                    004ac4bc f   LIBCMT:wcstol.obj
 0001:000ab4e7       __wcstol_l                 004ac4e7 f   LIBCMT:wcstol.obj
 0001:000ab504       _wcstoul                   004ac504 f   LIBCMT:wcstol.obj
 0001:000ab530       __wcstoul_l                004ac530 f   LIBCMT:wcstol.obj
 0001:000ab54d       _$I10_OUTPUT               004ac54d f   LIBCMT:_x10fout_.obj
 0001:000abe74       __set_controlfp            004ace74 f   LIBCMT:_ieee87_.obj
 0001:000ac1e8       __statusfp                 004ad1e8 f   LIBCMT:_ieee87_.obj
 0001:000ac27a       __fpreset                  004ad27a f   LIBCMT:_ieee87_.obj
 0001:000ac4b3       __statusfp2                004ad4b3 f   LIBCMT:_ieee87_.obj
 0001:000ac50d       __clearfp                  004ad50d f   LIBCMT:_ieee87_.obj
 0001:000ac5e6       ___control87_2             004ad5e6 f   LIBCMT:_ieee87_.obj
 0001:000ac8fa       __control87                004ad8fa f i LIBCMT:_ieee87_.obj
 0001:000acc09       __controlfp                004adc09 f   LIBCMT:_ieee87_.obj
 0001:000acf1b       __strnicmp_l               004adf1b f   LIBCMT:strnicmp.obj
 0001:000ad00d       _strnicmp                  004ae00d f   LIBCMT:strnicmp.obj
 0001:000ad00d       __strnicmp                 004ae00d f   LIBCMT:strnicmp.obj
 0001:000ad148       __itoa_s                   004ae148 f   LIBCMT:xtoas.obj
 0001:000ad172       __ltoa_s                   004ae172 f   LIBCMT:xtoas.obj
 0001:000ad199       __ultoa_s                  004ae199 f   LIBCMT:xtoas.obj
 0001:000ad2ab       __i64toa_s                 004ae2ab f   LIBCMT:xtoas.obj
 0001:000ad2e0       __ui64toa_s                004ae2e0 f   LIBCMT:xtoas.obj
 0001:000ad322       ___crtGetStringTypeW       004ae322 f   LIBCMT:w_str.obj
 0001:000ad360       ___initconin               004ae360 f   LIBCMT:initcon.obj
 0001:000ad37f       ___initconout              004ae37f f   LIBCMT:initcon.obj
 0001:000ad39e       ___termcon                 004ae39e f   LIBCMT:initcon.obj
 0001:000ad3cb       __chsize_nolock            004ae3cb f   LIBCMT:chsize.obj
 0001:000ad581       __chsize_s                 004ae581 f   LIBCMT:chsize.obj
 0001:000ad66e       _chsize                    004ae66e f   LIBCMT:chsize.obj
 0001:000ad66e       __chsize                   004ae66e f   LIBCMT:chsize.obj
 0001:000ad68a       __setmode_nolock           004ae68a f   LIBCMT:setmode.obj
 0001:000ad746       __set_fmode                004ae746 f   LIBCMT:setmode.obj
 0001:000ad792       __get_fmode                004ae792 f   LIBCMT:setmode.obj
 0001:000ad7cb       __setmode                  004ae7cb f   LIBCMT:setmode.obj
 0001:000ad8c2       __mbsnbicoll_l             004ae8c2 f   LIBCMT:mbsnbico.obj
 0001:000ad9b0       __mbsnbicoll               004ae9b0 f   LIBCMT:mbsnbico.obj
 0001:000ad9ca       ___wtomb_environ           004ae9ca f   LIBCMT:wtombenv.obj
 0001:000ada61       _strnlen                   004aea61 f   LIBCMT:strlen_s.obj
 0001:000ada7e       __flswbuf                  004aea7e f   LIBCMT:_flswbuf.obj
 0001:000adbf2       __wchartodigit             004aebf2 f   LIBCMT:wchtodig.obj
 0001:000addd0       ___ascii_strnicmp          004aedd0 f   LIBCMT:_strnicm.obj
 0001:000ae1bf       ___crtCompareStringA       004af1bf f   LIBCMT:a_cmp.obj
 0001:000ae201       __strnicoll_l              004af201 f   LIBCMT:strnicol.obj
 0001:000ae2fb       __strnicoll                004af2fb f   LIBCMT:strnicol.obj
 0001:000ae3d0       ___crtsetenv               004af3d0 f   LIBCMT:setenv.obj
 0001:000ae61b       __strdup                   004af61b f   LIBCMT:strdup.obj
 0001:000ae670       __mbschr_l                 004af670 f   LIBCMT:mbschr.obj
 0001:000ae72c       __mbschr                   004af72c f   LIBCMT:mbschr.obj
 0001:000ae744       _timeGetTime@0             004af744 f   winmm:WINMM.dll
 0001:000ae74a       _pcap_setmintocopy         004af74a f   wpcap:wpcap.dll
 0001:000ae750       _pcap_getevent             004af750 f   wpcap:wpcap.dll
 0001:000ae756       _pcap_setnonblock          004af756 f   wpcap:wpcap.dll
 0001:000ae75c       _pcap_freealldevs          004af75c f   wpcap:wpcap.dll
 0001:000ae762       _pcap_open_live            004af762 f   wpcap:wpcap.dll
 0001:000ae768       _pcap_findalldevs          004af768 f   wpcap:wpcap.dll
 0001:000ae76e       _pcap_next                 004af76e f   wpcap:wpcap.dll
 0001:000ae774       _pcap_setfilter            004af774 f   wpcap:wpcap.dll
 0001:000ae77a       _pcap_compile              004af77a f   wpcap:wpcap.dll
 0001:000ae780       _pcap_geterr               004af780 f   wpcap:wpcap.dll
 0001:000ae786       _pcap_sendpacket           004af786 f   wpcap:wpcap.dll
 0001:000ae78c       _PacketCloseAdapter        004af78c f   Packet:packet.dll
 0001:000ae792       _PacketRequest             004af792 f   Packet:packet.dll
 0001:000ae798       _PacketOpenAdapter         004af798 f   Packet:packet.dll
 0001:000ae79e       _WSAStartup@8              004af79e f   ws2_32:WS2_32.dll
 0001:000ae7a4       _closesocket@4             004af7a4 f   ws2_32:WS2_32.dll
 0001:000ae7aa       _connect@12                004af7aa f   ws2_32:WS2_32.dll
 0001:000ae7b0       _htons@4                   004af7b0 f   ws2_32:WS2_32.dll
 0001:000ae7b6       _gethostbyname@4           004af7b6 f   ws2_32:WS2_32.dll
 0001:000ae7bc       _inet_addr@4               004af7bc f   ws2_32:WS2_32.dll
 0001:000ae7c2       _WSAGetLastError@0         004af7c2 f   ws2_32:WS2_32.dll
 0001:000ae7c8       _socket@12                 004af7c8 f   ws2_32:WS2_32.dll
 0001:000ae7ce       _listen@8                  004af7ce f   ws2_32:WS2_32.dll
 0001:000ae7d4       _bind@12                   004af7d4 f   ws2_32:WS2_32.dll
 0001:000ae7da       _send@16                   004af7da f   ws2_32:WS2_32.dll
 0001:000ae7e0       _select@20                 004af7e0 f   ws2_32:WS2_32.dll
 0001:000ae7e6       _recv@16                   004af7e6 f   ws2_32:WS2_32.dll
 0001:000ae7ec       _getsockopt@20             004af7ec f   ws2_32:WS2_32.dll
 0001:000ae7f2       ___WSAFDIsSet@8            004af7f2 f   ws2_32:WS2_32.dll
 0001:000ae7f8       _inet_ntoa@4               004af7f8 f   ws2_32:WS2_32.dll
 0001:000ae7fe       _ntohs@4                   004af7fe f   ws2_32:WS2_32.dll
 0001:000ae804       _accept@12                 004af804 f   ws2_32:WS2_32.dll
 0001:000ae80a       _ioctlsocket@12            004af80a f   ws2_32:WS2_32.dll
 0001:000ae810       _setsockopt@20             004af810 f   ws2_32:WS2_32.dll
 0001:000ae816       _getpeername@12            004af816 f   ws2_32:WS2_32.dll
 0001:000ae81c       _GetLocalTime@4            004af81c f   kernel32:KERNEL32.dll
 0001:000ae822       _QueryPerformanceCounter@4 004af822 f   kernel32:KERNEL32.dll
 0001:000ae828       _QueryPerformanceFrequency@4 004af828 f   kernel32:KERNEL32.dll
 0001:000ae82e       _InitializeCriticalSection@4 004af82e f   kernel32:KERNEL32.dll
 0001:000ae834       _GetLastError@0            004af834 f   kernel32:KERNEL32.dll
 0001:000ae83a       _CreateMutexA@12           004af83a f   kernel32:KERNEL32.dll
 0001:000ae840       _LocalFree@4               004af840 f   kernel32:KERNEL32.dll
 0001:000ae846       _LocalAlloc@8              004af846 f   kernel32:KERNEL32.dll
 0001:000ae84c       _GetCurrentThreadId@0      004af84c f   kernel32:KERNEL32.dll
 0001:000ae852       _EnterCriticalSection@4    004af852 f   kernel32:KERNEL32.dll
 0001:000ae858       _ReleaseMutex@4            004af858 f   kernel32:KERNEL32.dll
 0001:000ae85e       _LeaveCriticalSection@4    004af85e f   kernel32:KERNEL32.dll
 0001:000ae864       _CloseHandle@4             004af864 f   kernel32:KERNEL32.dll
 0001:000ae86a       _DeleteCriticalSection@4   004af86a f   kernel32:KERNEL32.dll
 0001:000ae870       _CreateEventA@16           004af870 f   kernel32:KERNEL32.dll
 0001:000ae876       _WaitForSingleObject@8     004af876 f   kernel32:KERNEL32.dll
 0001:000ae87c       _WaitForMultipleObjects@16 004af87c f   kernel32:KERNEL32.dll
 0001:000ae882       _SetEvent@4                004af882 f   kernel32:KERNEL32.dll
 0001:000ae888       _PulseEvent@4              004af888 f   kernel32:KERNEL32.dll
 0001:000ae88e       _ResetEvent@4              004af88e f   kernel32:KERNEL32.dll
 0001:000ae894       _RaiseException@16         004af894 f   kernel32:KERNEL32.dll
 0001:000ae89a       _GetVersionExA@4           004af89a f   kernel32:KERNEL32.dll
 0001:000ae8a0       _FormatMessageA@28         004af8a0 f   kernel32:KERNEL32.dll
 0001:000ae8a6       _Sleep@4                   004af8a6 f   kernel32:KERNEL32.dll
 0001:000ae8ac       _FileTimeToSystemTime@8    004af8ac f   kernel32:KERNEL32.dll
 0001:000ae8b2       _SystemTimeToFileTime@8    004af8b2 f   kernel32:KERNEL32.dll
 0001:000ae8b8       _GetSystemTimeAsFileTime@4 004af8b8 f   kernel32:KERNEL32.dll
 0001:000ae8be       _FileTimeToLocalFileTime@8 004af8be f   kernel32:KERNEL32.dll
 0001:000ae8c4       _LocalFileTimeToFileTime@8 004af8c4 f   kernel32:KERNEL32.dll
 0001:000ae8ca       _GetLocaleInfoA@16         004af8ca f   kernel32:KERNEL32.dll
 0001:000ae8d0       _WriteConsoleW@20          004af8d0 f   kernel32:KERNEL32.dll
 0001:000ae8d6       _GetFileType@4             004af8d6 f   kernel32:KERNEL32.dll
 0001:000ae8dc       _GetStdHandle@4            004af8dc f   kernel32:KERNEL32.dll
 0001:000ae8e2       _GetModuleFileNameW@12     004af8e2 f   kernel32:KERNEL32.dll
 0001:000ae8e8       _GetModuleHandleW@4        004af8e8 f   kernel32:KERNEL32.dll
 0001:000ae8ee       _GetProcAddress@8          004af8ee f   kernel32:KERNEL32.dll
 0001:000ae8f4       _ExitProcess@4             004af8f4 f   kernel32:KERNEL32.dll
 0001:000ae8fa       _SetConsoleCtrlHandler@8   004af8fa f   kernel32:KERNEL32.dll
 0001:000ae900       _HeapAlloc@12              004af900 f   kernel32:KERNEL32.dll
 0001:000ae906       _HeapFree@12               004af906 f   kernel32:KERNEL32.dll
 0001:000ae90c       _GetFileInformationByHandle@8 004af90c f   kernel32:KERNEL32.dll
 0001:000ae912       _PeekNamedPipe@24          004af912 f   kernel32:KERNEL32.dll
 0001:000ae918       _GetCommandLineA@0         004af918 f   kernel32:KERNEL32.dll
 0001:000ae91e       _HeapReAlloc@16            004af91e f   kernel32:KERNEL32.dll
 0001:000ae924       _DeleteFileA@4             004af924 f   kernel32:KERNEL32.dll
 0001:000ae92a       _ExitThread@4              004af92a f   kernel32:KERNEL32.dll
 0001:000ae930       _CreateThread@24           004af930 f   kernel32:KERNEL32.dll
 0001:000ae936       _GetTimeFormatA@24         004af936 f   kernel32:KERNEL32.dll
 0001:000ae93c       _GetDateFormatA@24         004af93c f   kernel32:KERNEL32.dll
 0001:000ae942       _GetTimeZoneInformation@4  004af942 f   kernel32:KERNEL32.dll
 0001:000ae948       _TerminateProcess@8        004af948 f   kernel32:KERNEL32.dll
 0001:000ae94e       _GetCurrentProcess@0       004af94e f   kernel32:KERNEL32.dll
 0001:000ae954       _UnhandledExceptionFilter@4 004af954 f   kernel32:KERNEL32.dll
 0001:000ae95a       _SetUnhandledExceptionFilter@4 004af95a f   kernel32:KERNEL32.dll
 0001:000ae960       _IsDebuggerPresent@0       004af960 f   kernel32:KERNEL32.dll
 0001:000ae966       _LoadLibraryW@4            004af966 f   kernel32:KERNEL32.dll
 0001:000ae96c       _GetModuleHandleA@4        004af96c f   kernel32:KERNEL32.dll
 0001:000ae972       _GetCPInfo@8               004af972 f   kernel32:KERNEL32.dll
 0001:000ae978       _InterlockedIncrement@4    004af978 f   kernel32:KERNEL32.dll
 0001:000ae97e       _InterlockedDecrement@4    004af97e f   kernel32:KERNEL32.dll
 0001:000ae984       _GetACP@0                  004af984 f   kernel32:KERNEL32.dll
 0001:000ae98a       _GetOEMCP@0                004af98a f   kernel32:KERNEL32.dll
 0001:000ae990       _IsValidCodePage@4         004af990 f   kernel32:KERNEL32.dll
 0001:000ae996       _TlsGetValue@4             004af996 f   kernel32:KERNEL32.dll
 0001:000ae99c       _TlsAlloc@0                004af99c f   kernel32:KERNEL32.dll
 0001:000ae9a2       _TlsSetValue@8             004af9a2 f   kernel32:KERNEL32.dll
 0001:000ae9a8       _TlsFree@4                 004af9a8 f   kernel32:KERNEL32.dll
 0001:000ae9ae       _SetLastError@4            004af9ae f   kernel32:KERNEL32.dll
 0001:000ae9b4       _GetCurrentThread@0        004af9b4 f   kernel32:KERNEL32.dll
 0001:000ae9ba       _LCMapStringA@24           004af9ba f   kernel32:KERNEL32.dll
 0001:000ae9c0       _WideCharToMultiByte@32    004af9c0 f   kernel32:KERNEL32.dll
 0001:000ae9c6       _MultiByteToWideChar@24    004af9c6 f   kernel32:KERNEL32.dll
 0001:000ae9cc       _LCMapStringW@24           004af9cc f   kernel32:KERNEL32.dll
 0001:000ae9d2       _WriteFile@20              004af9d2 f   kernel32:KERNEL32.dll
 0001:000ae9d8       _GetModuleFileNameA@12     004af9d8 f   kernel32:KERNEL32.dll
 0001:000ae9de       _FatalAppExitA@8           004af9de f   kernel32:KERNEL32.dll
 0001:000ae9e4       _FreeLibrary@4             004af9e4 f   kernel32:KERNEL32.dll
 0001:000ae9ea       _InterlockedExchange@8     004af9ea f   kernel32:KERNEL32.dll
 0001:000ae9f0       _LoadLibraryA@4            004af9f0 f   kernel32:KERNEL32.dll
 0001:000ae9f6       _InitializeCriticalSectionAndSpinCount@8 004af9f6 f   kernel32:KERNEL32.dll
 0001:000ae9fc       _SetHandleCount@4          004af9fc f   kernel32:KERNEL32.dll
 0001:000aea02       _GetStartupInfoA@4         004afa02 f   kernel32:KERNEL32.dll
 0001:000aea08       _VirtualFree@12            004afa08 f   kernel32:KERNEL32.dll
 0001:000aea0e       _VirtualAlloc@16           004afa0e f   kernel32:KERNEL32.dll
 0001:000aea14       _HeapCreate@12             004afa14 f   kernel32:KERNEL32.dll
 0001:000aea1a       _HeapDestroy@4             004afa1a f   kernel32:KERNEL32.dll
 0001:000aea20       _GetConsoleCP@0            004afa20 f   kernel32:KERNEL32.dll
 0001:000aea26       _GetConsoleMode@8          004afa26 f   kernel32:KERNEL32.dll
 0001:000aea2c       _RtlUnwind@16              004afa2c f   kernel32:KERNEL32.dll
 0001:000aea32       _ReadFile@20               004afa32 f   kernel32:KERNEL32.dll
 0001:000aea38       _SetStdHandle@8            004afa38 f   kernel32:KERNEL32.dll
 0001:000aea3e       _FreeEnvironmentStringsA@4 004afa3e f   kernel32:KERNEL32.dll
 0001:000aea44       _GetEnvironmentStrings@0   004afa44 f   kernel32:KERNEL32.dll
 0001:000aea4a       _FreeEnvironmentStringsW@4 004afa4a f   kernel32:KERNEL32.dll
 0001:000aea50       _GetEnvironmentStringsW@0  004afa50 f   kernel32:KERNEL32.dll
 0001:000aea56       _GetTickCount@0            004afa56 f   kernel32:KERNEL32.dll
 0001:000aea5c       _GetCurrentProcessId@0     004afa5c f   kernel32:KERNEL32.dll
 0001:000aea62       _FlushFileBuffers@4        004afa62 f   kernel32:KERNEL32.dll
 0001:000aea68       _SetFilePointer@16         004afa68 f   kernel32:KERNEL32.dll
 0001:000aea6e       _GetStringTypeA@20         004afa6e f   kernel32:KERNEL32.dll
 0001:000aea74       _GetStringTypeW@16         004afa74 f   kernel32:KERNEL32.dll
 0001:000aea7a       _GetUserDefaultLCID@0      004afa7a f   kernel32:KERNEL32.dll
 0001:000aea80       _EnumSystemLocalesA@8      004afa80 f   kernel32:KERNEL32.dll
 0001:000aea86       _IsValidLocale@8           004afa86 f   kernel32:KERNEL32.dll
 0001:000aea8c       _HeapSize@12               004afa8c f   kernel32:KERNEL32.dll
 0001:000aea92       _GetLocaleInfoW@16         004afa92 f   kernel32:KERNEL32.dll
 0001:000aea98       _WriteConsoleA@20          004afa98 f   kernel32:KERNEL32.dll
 0001:000aea9e       _GetConsoleOutputCP@0      004afa9e f   kernel32:KERNEL32.dll
 0001:000aeaa4       _CreateFileA@28            004afaa4 f   kernel32:KERNEL32.dll
 0001:000aeaaa       _SetEndOfFile@4            004afaaa f   kernel32:KERNEL32.dll
 0001:000aeab0       _GetProcessHeap@0          004afab0 f   kernel32:KERNEL32.dll
 0001:000aeab6       _CompareStringA@24         004afab6 f   kernel32:KERNEL32.dll
 0001:000aeabc       _CompareStringW@24         004afabc f   kernel32:KERNEL32.dll
 0001:000aeac2       _SetEnvironmentVariableA@8 004afac2 f   kernel32:KERNEL32.dll
 0001:000aeac8       _SetSecurityDescriptorDacl@16 004afac8 f   advapi32:ADVAPI32.dll
 0001:000aeace       _InitializeSecurityDescriptor@8 004aface f   advapi32:ADVAPI32.dll
 0001:000aeae0       _asn1r_get_bitstr          004afae0 f   asn1_ld:ard_bstr.obj
 0001:000aebc0       _asn1r_get_bitstr_cstr     004afbc0 f   asn1_ld:ard_bstr.obj
 0001:000aebd0       _asn1r_get_octstr_fixlen   004afbd0 f   asn1_ld:ard_ostr.obj
 0001:000aec40       _asn1r_get_octstr_varlen   004afc40 f   asn1_ld:ard_ostr.obj
 0001:000aecc0       _asn1r_get_octstr          004afcc0 f   asn1_ld:ard_ostr.obj
 0001:000aed20       _asn1r_get_octstr_cstr     004afd20 f   asn1_ld:ard_ostr.obj
 0001:000aed30       _asn1r_get_bool            004afd30 f   asn1_ld:ard_bool.obj
 0001:000aeda0       _asn1r_get_i8              004afda0 f   asn1_ld:ard_int.obj
 0001:000aee20       _asn1r_get_i16             004afe20 f   asn1_ld:ard_int.obj
 0001:000aeeb0       _asn1r_get_i32             004afeb0 f   asn1_ld:ard_int.obj
 0001:000aeee0       _asn1r_get_u8              004afee0 f   asn1_ld:ard_int.obj
 0001:000aef60       _asn1r_get_u16             004aff60 f   asn1_ld:ard_int.obj
 0001:000aefe0       _asn1r_get_u32             004affe0 f   asn1_ld:ard_int.obj
 0001:000af010       _asn1r_get_int32           004b0010 f   asn1_ld:ard_int.obj
 0001:000af1f0       _asn1r_get_u64             004b01f0 f   asn1_ld:ard_int.obj
 0001:000af220       _asn1r_get_i64             004b0220 f   asn1_ld:ard_int.obj
 0001:000af250       _asn1r_get_int64           004b0250 f   asn1_ld:ard_int.obj
 0001:000af430       _asn1r_get_float           004b0430 f   asn1_ld:ard_flt.obj
 0001:000af5d0       _asn1r_get_double          004b05d0 f   asn1_ld:ard_flt.obj
 0001:000af7d0       _asn1r_get_vstr_maxlen     004b07d0 f   asn1_ld:ard_vstr.obj
 0001:000af830       _asn1r_get_vstr            004b0830 f   asn1_ld:ard_vstr.obj
 0001:000af8d0       _asn1r_get_utf8            004b08d0 f   asn1_ld:ard_vstr.obj
 0001:000af9d0       _asn1r_utf8_to_local       004b09d0 f   asn1_ld:ard_vstr.obj
 0001:000afa20       _asn1r_get_time            004b0a20 f   asn1_ld:ard_time.obj
 0001:000b0380       _asn1r_get_btod            004b1380 f   asn1_ld:ard_btod.obj
 0001:000b04a0       _asn1r_get_utc_time        004b14a0 f   asn1_ld:ard_utc.obj
 0001:000b06a0       _asn1r_wr_vstr             004b16a0 f   asn1_ld:are_vstr.obj
 0001:000b06d0       _asn1r_wr_utf8             004b16d0 f   asn1_ld:are_vstr.obj
 0001:000b07a0       _asn1r_local_to_utf8       004b17a0 f   asn1_ld:are_vstr.obj
 0001:000b07f0       _asn1r_wr_utc_time         004b17f0 f   asn1_ld:are_utc.obj
 0001:000b0a10       _asn1r_wr_btod             004b1a10 f   asn1_ld:are_btod.obj
 0001:000b0b10       _asn1r_wr_time             004b1b10 f   asn1_ld:are_time.obj
 0001:000b0c40       _asn1r_wr_octstr           004b1c40 f   asn1_ld:are_ostr.obj
 0001:000b0cd0       _asn1r_wr_float            004b1cd0 f   asn1_ld:are_flt.obj
 0001:000b0da0       _asn1r_wr_double           004b1da0 f   asn1_ld:are_flt.obj
 0001:000b0ef0       _asn1r_wr_i8               004b1ef0 f   asn1_ld:are_int.obj
 0001:000b0f20       _asn1r_wr_i16              004b1f20 f   asn1_ld:are_int.obj
 0001:000b0f50       _asn1r_wr_i32              004b1f50 f   asn1_ld:are_int.obj
 0001:000b0f80       _asn1r_wr_u8               004b1f80 f   asn1_ld:are_int.obj
 0001:000b0fa0       _asn1r_wr_u16              004b1fa0 f   asn1_ld:are_int.obj
 0001:000b0fc0       _asn1r_wr_u32              004b1fc0 f   asn1_ld:are_int.obj
 0001:000b0fe0       _asn1r_wr_int32            004b1fe0 f   asn1_ld:are_int.obj
 0001:000b1140       _asn1r_wr_i64              004b2140 f   asn1_ld:are_int.obj
 0001:000b1180       _asn1r_wr_u64              004b2180 f   asn1_ld:are_int.obj
 0001:000b11a0       _asn1r_wr_int64            004b21a0 f   asn1_ld:are_int.obj
 0001:000b1390       _asn1r_wr_bitstr           004b2390 f   asn1_ld:are_bstr.obj
 0001:000b1490       _asn1r_wr_bool             004b2490 f   asn1_ld:are_bool.obj
 0001:000b14d0       _asn1r_get_delmnt          004b24d0 f   asn1_ld:ard_delm.obj
 0001:000b1840       _asn1r_parse_cstr_contents 004b2840 f   asn1_ld:ard_delm.obj
 0001:000b18e0       _asn1r_parse_next          004b28e0 f   asn1_ld:ard_delm.obj
 0001:000b1ab0       _asn1r_get_identifier      004b2ab0 f   asn1_ld:ard_idnt.obj
 0001:000b1c20       _asn1r_wr_delmnt           004b2c20 f   asn1_ld:are_delm.obj
 0001:000b1c50       _asn1r_wr_objid            004b2c50 f   asn1_ld:are_objd.obj
 0001:000b1d50       _asn1r_get_objid           004b2d50 f   asn1_ld:ard_objd.obj
 0001:000b1fd0       _ms_asn1_data_to_locl      004b2fd0 f   mmsl_ld:mmsdatat.obj
 0001:000b2170       _ms_asn1_data_to_runtime   004b3170 f   mmsl_ld:mmsdatat.obj
 0001:000b387e       __gcvt_s                   004b487e f   LIBCMT:gcvt.obj
 0001:000b399e       _gcvt                      004b499e f   LIBCMT:gcvt.obj
 0001:000b399e       __gcvt                     004b499e f   LIBCMT:gcvt.obj
 0001:000b39d0       __allshr                   004b49d0 f   LIBCMT:llshr.obj
 0002:00000000       ___xc_a                    004df000     LIBCMT:crt0init.obj
 0002:00000104       ___xc_z                    004df104     LIBCMT:crt0init.obj
 0002:00000208       ___xi_a                    004df208     LIBCMT:crt0init.obj
 0002:00000524       ___xi_z                    004df524     LIBCMT:crt0init.obj
 0002:00000628       ___xp_a                    004df628     LIBCMT:crt0init.obj
 0002:00000934       ___xp_z                    004df934     LIBCMT:crt0init.obj
 0002:00000a38       ___xt_a                    004dfa38     LIBCMT:crt0init.obj
 0002:00000b3c       ___xt_z                    004dfb3c     LIBCMT:crt0init.obj
 0002:00000c60       __real@40c3880000000000    004dfc60     iec_demo.obj
 0002:00000c6c       __real@3f8ccccd            004dfc6c     Rdwrind.obj
 0002:00000c70       __real@400199999999999a    004dfc70     Rdwrind.obj
 0002:00000c80       __real@0000000000000000    004dfc80     slogipc.obj
 0002:00000c90       __real@408f400000000000    004dfc90     startup.obj
 0002:00000ca0       _cr_asn1                   004dfca0     asn1_ld:asn1r.obj
 0002:00000d00       __real@4170000000000000    004dfd00     asn1_ld:asn1r.obj
 0002:00000d08       _cr_mms                    004dfd08     mmsl_ld:mmsdec.obj
 0002:00000d68       __real@40dd4c0000000000    004dfd68     utility_ld:gensock2.obj
 0002:00000d70       __real@47efffffe0000000    004dfd70     utility_ld:str_util.obj
 0002:00000d78       __real@00000000            004dfd78     utility_ld:str_util.obj
 0002:00000d80       __real@40faa95000000000    004dfd80     utility_ld:stdtime.obj
 0002:00000d88       __real@4269254d38000000    004dfd88     utility_ld:stdtime.obj
 0002:00000d90       __real@3fe0000000000000    004dfd90     utility_ld:time_str.obj
 0002:00000d98       __real@41cdcd6500000000    004dfd98     utility_ld:time_str.obj
 0002:00000da0       __real@40a7700000000000    004dfda0     ositp4e_ld:Tp4port.obj
 0002:00000da8       ??_C@_15IABLJNFO@?$AA?6?$AA?6?$AA?$AA@ 004dfda8     LIBCMT:wassert.obj
 0002:00000db0       ??_C@_13LBAGMAIH@?$AA?6?$AA?$AA@ 004dfdb0     LIBCMT:wassert.obj
 0002:00000db4       ??_C@_17LGKOMLJ@?$AA?4?$AA?4?$AA?4?$AA?$AA@ 004dfdb4     LIBCMT:wassert.obj
 0002:00000dc0       ??_C@_1EK@MBDPDCGA@?$AAM?$AAi?$AAc?$AAr?$AAo?$AAs?$AAo?$AAf?$AAt?$AA?5?$AAV?$AAi?$AAs?$AAu?$AAa?$AAl?$AA?5?$AAC?$AA?$CL?$AA?$CL?$AA?5?$AAR?$AAu?$AAn?$AAt?$AAi?$AAm?$AAe?$AA?5?$AAL?$AAi?$AAb@ 004dfdc0     LIBCMT:wassert.obj
 0002:00000e10       ??_C@_1HK@POCJMFGK@?$AA?$CI?$AAP?$AAr?$AAe?$AAs?$AAs?$AA?5?$AAR?$AAe?$AAt?$AAr?$AAy?$AA?5?$AAt?$AAo?$AA?5?$AAd?$AAe?$AAb?$AAu?$AAg?$AA?5?$AAt?$AAh?$AAe?$AA?5?$AAa?$AAp?$AAp?$AAl?$AAi?$AAc@ 004dfe10     LIBCMT:wassert.obj
 0002:00000e90       ??_C@_1OA@EGMLFBHJ@?$AAF?$AAo?$AAr?$AA?5?$AAi?$AAn?$AAf?$AAo?$AAr?$AAm?$AAa?$AAt?$AAi?$AAo?$AAn?$AA?5?$AAo?$AAn?$AA?5?$AAh?$AAo?$AAw?$AA?5?$AAy?$AAo?$AAu?$AAr?$AA?5?$AAp?$AAr?$AAo?$AAg@ 004dfe90     LIBCMT:wassert.obj
 0002:00000f70       ??_C@_1BK@PEDCIPMA@?$AAE?$AAx?$AAp?$AAr?$AAe?$AAs?$AAs?$AAi?$AAo?$AAn?$AA?3?$AA?5?$AA?$AA@ 004dff70     LIBCMT:wassert.obj
 0002:00000f8c       ??_C@_1O@KCAFKHJE@?$AAL?$AAi?$AAn?$AAe?$AA?3?$AA?5?$AA?$AA@ 004dff8c     LIBCMT:wassert.obj
 0002:00000f9c       ??_C@_1O@HEMHKNDC@?$AAF?$AAi?$AAl?$AAe?$AA?3?$AA?5?$AA?$AA@ 004dff9c     LIBCMT:wassert.obj
 0002:00000fac       ??_C@_1CO@EAEJAADC@?$AA?$DM?$AAp?$AAr?$AAo?$AAg?$AAr?$AAa?$AAm?$AA?5?$AAn?$AAa?$AAm?$AAe?$AA?5?$AAu?$AAn?$AAk?$AAn?$AAo?$AAw?$AAn?$AA?$DO?$AA?$AA@ 004dffac     LIBCMT:wassert.obj
 0002:00000fdc       ??_C@_1BE@PHKBBGE@?$AAP?$AAr?$AAo?$AAg?$AAr?$AAa?$AAm?$AA?3?$AA?5?$AA?$AA@ 004dffdc     LIBCMT:wassert.obj
 0002:00000ff0       ??_C@_1CE@OJBNHDMO@?$AAA?$AAs?$AAs?$AAe?$AAr?$AAt?$AAi?$AAo?$AAn?$AA?5?$AAf?$AAa?$AAi?$AAl?$AAe?$AAd?$AA?$CB?$AA?$AA@ 004dfff0     LIBCMT:wassert.obj
 0002:00001014       __FPinit                   004e0014     LIBCMT:_fpinit_.obj
 0002:00001018       __FPmtinit                 004e0018     LIBCMT:_fpinit_.obj
 0002:0000101c       __FPmtterm                 004e001c     LIBCMT:_fpinit_.obj
 0002:00001020       ?ProcessDetach@NativeDll@<CrtImplementationDetails>@@0IB 004e0020     LIBCMT:toupper.obj
 0002:00001024       ?ProcessAttach@NativeDll@<CrtImplementationDetails>@@0IB 004e0024     LIBCMT:toupper.obj
 0002:00001028       ?ThreadAttach@NativeDll@<CrtImplementationDetails>@@0IB 004e0028     LIBCMT:toupper.obj
 0002:0000102c       ?ThreadDetach@NativeDll@<CrtImplementationDetails>@@0IB 004e002c     LIBCMT:toupper.obj
 0002:00001030       ?ProcessVerifier@NativeDll@<CrtImplementationDetails>@@0IB 004e0030     LIBCMT:toupper.obj
 0002:00001034       ??_C@_0P@MIGLKIOC@CorExitProcess?$AA@ 004e0034     LIBCMT:crt0dat.obj
 0002:00001044       ??_C@_1BI@BGOHAHKC@?$AAm?$AAs?$AAc?$AAo?$AAr?$AAe?$AAe?$AA?4?$AAd?$AAl?$AAl?$AA?$AA@ 004e0044     LIBCMT:crt0dat.obj
 0002:00001060       ??_C@_0EA@FCLIIPNN@Visual?5C?$CL?$CL?5CRT?3?5Not?5enough?5memor@ 004e0060     LIBCMT:strerror.obj
 0002:000010a0       ??_C@_08JCCMCCIL@HH?3mm?3ss?$AA@ 004e00a0     LIBCMT:strftime.obj
 0002:000010ac       ??_C@_0BE@CKGJFCPC@dddd?0?5MMMM?5dd?0?5yyyy?$AA@ 004e00ac     LIBCMT:strftime.obj
 0002:000010c0       ??_C@_08BPBNCDIB@MM?1dd?1yy?$AA@ 004e00c0     LIBCMT:strftime.obj
 0002:000010cc       ??_C@_02CJNFDJBF@PM?$AA@   004e00cc     LIBCMT:strftime.obj
 0002:000010d0       ??_C@_02DEDBPAFC@AM?$AA@   004e00d0     LIBCMT:strftime.obj
 0002:000010d4       ??_C@_08EDHMEBNP@December?$AA@ 004e00d4     LIBCMT:strftime.obj
 0002:000010e0       ??_C@_08HCHEGEOA@November?$AA@ 004e00e0     LIBCMT:strftime.obj
 0002:000010ec       ??_C@_07JJNFCEND@October?$AA@ 004e00ec     LIBCMT:strftime.obj
 0002:000010f4       ??_C@_09BHHEALKD@September?$AA@ 004e00f4     LIBCMT:strftime.obj
 0002:00001100       ??_C@_06LBBHFDDG@August?$AA@ 004e0100     LIBCMT:strftime.obj
 0002:00001108       ??_C@_04MIEPOIFP@July?$AA@ 004e0108     LIBCMT:strftime.obj
 0002:00001110       ??_C@_04CNLMGBGM@June?$AA@ 004e0110     LIBCMT:strftime.obj
 0002:00001118       ??_C@_05DMJDNLEJ@April?$AA@ 004e0118     LIBCMT:strftime.obj
 0002:00001120       ??_C@_05HPCKOFNC@March?$AA@ 004e0120     LIBCMT:strftime.obj
 0002:00001128       ??_C@_08GNJGEPFN@February?$AA@ 004e0128     LIBCMT:strftime.obj
 0002:00001134       ??_C@_07CGJPFGJA@January?$AA@ 004e0134     LIBCMT:strftime.obj
 0002:0000113c       ??_C@_03MKABNOCG@Dec?$AA@  004e013c     LIBCMT:strftime.obj
 0002:00001140       ??_C@_03JPJOFNIA@Nov?$AA@  004e0140     LIBCMT:strftime.obj
 0002:00001144       ??_C@_03BMAOKBAD@Oct?$AA@  004e0144     LIBCMT:strftime.obj
 0002:00001148       ??_C@_03GGCAPAJC@Sep?$AA@  004e0148     LIBCMT:strftime.obj
 0002:0000114c       ??_C@_03IFJFEIGA@Aug?$AA@  004e014c     LIBCMT:strftime.obj
 0002:00001150       ??_C@_03LBGABGKK@Jul?$AA@  004e0150     LIBCMT:strftime.obj
 0002:00001154       ??_C@_03IDFGHECI@Jun?$AA@  004e0154     LIBCMT:strftime.obj
 0002:00001158       ??_C@_03CNMDKL@May?$AA@    004e0158     LIBCMT:strftime.obj
 0002:0000115c       ??_C@_03LEOLGMJP@Apr?$AA@  004e015c     LIBCMT:strftime.obj
 0002:00001160       ??_C@_03ODNJBKGA@Mar?$AA@  004e0160     LIBCMT:strftime.obj
 0002:00001164       ??_C@_03HJBDCHOM@Feb?$AA@  004e0164     LIBCMT:strftime.obj
 0002:00001168       ??_C@_03JIHJHPIE@Jan?$AA@  004e0168     LIBCMT:strftime.obj
 0002:0000116c       ??_C@_08INBOOONO@Saturday?$AA@ 004e016c     LIBCMT:strftime.obj
 0002:00001178       ??_C@_06JECMNKMI@Friday?$AA@ 004e0178     LIBCMT:strftime.obj
 0002:00001180       ??_C@_08HACCIKIA@Thursday?$AA@ 004e0180     LIBCMT:strftime.obj
 0002:0000118c       ??_C@_09DLIGFAKA@Wednesday?$AA@ 004e018c     LIBCMT:strftime.obj
 0002:00001198       ??_C@_07BAAGCFCM@Tuesday?$AA@ 004e0198     LIBCMT:strftime.obj
 0002:000011a0       ??_C@_06JLEDEDGH@Monday?$AA@ 004e01a0     LIBCMT:strftime.obj
 0002:000011a8       ??_C@_06OOPIFAJ@Sunday?$AA@ 004e01a8     LIBCMT:strftime.obj
 0002:000011b0       ??_C@_03FEFJNEK@Sat?$AA@   004e01b0     LIBCMT:strftime.obj
 0002:000011b4       ??_C@_03IDIOELNC@Fri?$AA@  004e01b4     LIBCMT:strftime.obj
 0002:000011b8       ??_C@_03IOFIKPDN@Thu?$AA@  004e01b8     LIBCMT:strftime.obj
 0002:000011bc       ??_C@_03MHOMLAJA@Wed?$AA@  004e01bc     LIBCMT:strftime.obj
 0002:000011c0       ??_C@_03NAGEINEP@Tue?$AA@  004e01c0     LIBCMT:strftime.obj
 0002:000011c4       ??_C@_03PDAGKDH@Mon?$AA@   004e01c4     LIBCMT:strftime.obj
 0002:000011c8       ??_C@_03KOEHGMDN@Sun?$AA@  004e01c8     LIBCMT:strftime.obj
 0002:000011cc       ??_C@_03EBAPMIKO@a?1p?$AA@ 004e01cc     LIBCMT:strftime.obj
 0002:000011d0       ??_C@_05JAMEPDIN@am?1pm?$AA@ 004e01d0     LIBCMT:strftime.obj
 0002:000011d8       __real@3ff0000000000000    004e01d8     LIBCMT:_fabs_.obj
 0002:000011e0       ??_C@_0BI@DFKBFLJE@GetProcessWindowStation?$AA@ 004e01e0     LIBCMT:crtmboxw.obj
 0002:000011f8       ??_C@_0BK@DEKFELLI@GetUserObjectInformationW?$AA@ 004e01f8     LIBCMT:crtmboxw.obj
 0002:00001214       ??_C@_0BD@HHGDFDBJ@GetLastActivePopup?$AA@ 004e0214     LIBCMT:crtmboxw.obj
 0002:00001228       ??_C@_0BA@HNOPNCHB@GetActiveWindow?$AA@ 004e0228     LIBCMT:crtmboxw.obj
 0002:00001238       ??_C@_0M@DLDCCGNP@MessageBoxW?$AA@ 004e0238     LIBCMT:crtmboxw.obj
 0002:00001244       ??_C@_1BG@GOEBHBDC@?$AAU?$AAS?$AAE?$AAR?$AA3?$AA2?$AA?4?$AAD?$AAL?$AAL?$AA?$AA@ 004e0244     LIBCMT:crtmboxw.obj
 0002:00001264       ??_C@_1O@CEDCILHN@?$AA?$CI?$AAn?$AAu?$AAl?$AAl?$AA?$CJ?$AA?$AA@ 004e0264     LIBCMT:output.obj
 0002:00001274       ??_C@_06OJHGLDPL@?$CInull?$CJ?$AA@ 004e0274     LIBCMT:output.obj
 0002:00001280       ___lookuptable             004e0280     LIBCMT:output.obj
 0002:000012dc       ??_C@_05KLBDPFGC@e?$CL000?$AA@ 004e02dc     LIBCMT:cvt.obj
 0002:000012e8       __real@4150017ec0000000    004e02e8     LIBCMT:_testfdiv_.obj
 0002:000012f0       __real@4147ffff80000000    004e02f0     LIBCMT:_testfdiv_.obj
 0002:000012f8       ??_C@_0BK@NHEOCAHP@IsProcessorFeaturePresent?$AA@ 004e02f8     LIBCMT:_testfdiv_.obj
 0002:00001314       ??_C@_08CPNIBGIE@KERNEL32?$AA@ 004e0314     LIBCMT:_testfdiv_.obj
 0002:00001320       ??_C@_07LCBHPJJN@LC_TIME?$AA@ 004e0320     LIBCMT:setlocal.obj
 0002:00001328       ??_C@_0L@DLHIECNL@LC_NUMERIC?$AA@ 004e0328     LIBCMT:setlocal.obj
 0002:00001334       ??_C@_0M@MIENIKLA@LC_MONETARY?$AA@ 004e0334     LIBCMT:setlocal.obj
 0002:00001340       ??_C@_08EADHIDAD@LC_CTYPE?$AA@ 004e0340     LIBCMT:setlocal.obj
 0002:0000134c       ??_C@_0L@KFJHEKIK@LC_COLLATE?$AA@ 004e034c     LIBCMT:setlocal.obj
 0002:00001358       ??_C@_06NEFDFEKB@LC_ALL?$AA@ 004e0358     LIBCMT:setlocal.obj
 0002:00001360       ___lc_category             004e0360     LIBCMT:setlocal.obj
 0002:00001428       ??_C@_03EGDHDPFD@_?4?0?$AA@ 004e0428     LIBCMT:setlocal.obj
 0002:0000142c       ??_C@_01LFCBOECM@?4?$AA@   004e042c     LIBCMT:setlocal.obj
 0002:00001430       ??_C@_01IDAFKMJL@_?$AA@    004e0430     LIBCMT:setlocal.obj
 0002:00001434       ??_C@_01ICJEACDI@?$DL?$AA@ 004e0434     LIBCMT:setlocal.obj
 0002:00001438       ??_C@_01NEMOKFLO@?$DN?$AA@ 004e0438     LIBCMT:setlocal.obj
 0002:0000143a       ??_C@_00CNPNBAHC@?$AA@     004e043a     LIBCMT:setlocal.obj
 0002:0000143c       ??_C@_01GFHCPBMG@C?$AA@    004e043c     LIBCMT:setlocal.obj
 0002:00001440       ??_C@_02BALPLPBG@?$DN?$DL?$AA@ 004e0440     LIBCMT:setlocal.obj
 0002:00001444       ??_C@_0O@NLDKAIKN@EncodePointer?$AA@ 004e0444     LIBCMT:tidtable.obj
 0002:00001454       ??_C@_1BK@DBDEIDLH@?$AAK?$AAE?$AAR?$AAN?$AAE?$AAL?$AA3?$AA2?$AA?4?$AAD?$AAL?$AAL?$AA?$AA@ 004e0454     LIBCMT:tidtable.obj
 0002:00001470       ??_C@_0O@KBPMFGHI@DecodePointer?$AA@ 004e0470     LIBCMT:tidtable.obj
 0002:00001480       ??_C@_07PEJMOBNF@FlsFree?$AA@ 004e0480     LIBCMT:tidtable.obj
 0002:00001488       ??_C@_0M@JCPCPOEF@FlsSetValue?$AA@ 004e0488     LIBCMT:tidtable.obj
 0002:00001494       ??_C@_0M@GDNOONDI@FlsGetValue?$AA@ 004e0494     LIBCMT:tidtable.obj
 0002:000014a0       ??_C@_08KNHFBNJ@FlsAlloc?$AA@ 004e04a0     LIBCMT:tidtable.obj
 0002:000014ac       ??_C@_13NOLLCAOD@?$AA?$AA?$AA?$AA@ 004e04ac     LIBCMT:a_map.obj
 0002:000014b0       ??_C@_0P@GGKDKEEG@runtime?5error?5?$AA@ 004e04b0     LIBCMT:crt0msg.obj
 0002:000014c0       ??_C@_02PCIJFNDE@?$AN?6?$AA@ 004e04c0     LIBCMT:crt0msg.obj
 0002:000014c4       ??_C@_0O@MJNIPGOH@TLOSS?5error?$AN?6?$AA@ 004e04c4     LIBCMT:crt0msg.obj
 0002:000014d4       ??_C@_0N@BONNPDHF@SING?5error?$AN?6?$AA@ 004e04d4     LIBCMT:crt0msg.obj
 0002:000014e4       ??_C@_0P@MBDAJNE@DOMAIN?5error?$AN?6?$AA@ 004e04e4     LIBCMT:crt0msg.obj
 0002:000014f8       ??_C@_0JL@DFDOOABL@R6034?$AN?6An?5application?5has?5made?5a@ 004e04f8     LIBCMT:crt0msg.obj
 0002:00001598       ??_C@_0PH@EPAFIJ@R6033?$AN?6?9?5Attempt?5to?5use?5MSIL?5cod@ 004e0598     LIBCMT:crt0msg.obj
 0002:00001690       ??_C@_0DD@BKEEABMM@R6032?$AN?6?9?5not?5enough?5space?5for?5lo@ 004e0690     LIBCMT:crt0msg.obj
 0002:000016c8       ??_C@_0GD@OFKILIED@R6031?$AN?6?9?5Attempt?5to?5initialize?5t@ 004e06c8     LIBCMT:crt0msg.obj
 0002:0000172c       ??_C@_0BP@LPMHJOKI@R6030?$AN?6?9?5CRT?5not?5initialized?$AN?6?$AA@ 004e072c     LIBCMT:crt0msg.obj
 0002:0000174c       ??_C@_0CF@KJDAIALP@R6028?$AN?6?9?5unable?5to?5initialize?5he@ 004e074c     LIBCMT:crt0msg.obj
 0002:00001774       ??_C@_0DF@GAKBPDFP@R6027?$AN?6?9?5not?5enough?5space?5for?5lo@ 004e0774     LIBCMT:crt0msg.obj
 0002:000017ac       ??_C@_0DF@IBLNNAIG@R6026?$AN?6?9?5not?5enough?5space?5for?5st@ 004e07ac     LIBCMT:crt0msg.obj
 0002:000017e4       ??_C@_0CG@IOHKGFNJ@R6025?$AN?6?9?5pure?5virtual?5function?5c@ 004e07e4     LIBCMT:crt0msg.obj
 0002:0000180c       ??_C@_0DF@JIJJFJDC@R6024?$AN?6?9?5not?5enough?5space?5for?5_o@ 004e080c     LIBCMT:crt0msg.obj
 0002:00001844       ??_C@_0CJ@EGEJHFME@R6019?$AN?6?9?5unable?5to?5open?5console?5@ 004e0844     LIBCMT:crt0msg.obj
 0002:00001870       ??_C@_0CB@GNHNIELH@R6018?$AN?6?9?5unexpected?5heap?5error?$AN?6@ 004e0870     LIBCMT:crt0msg.obj
 0002:00001894       ??_C@_0CN@FOLDKNG@R6017?$AN?6?9?5unexpected?5multithread?5@ 004e0894     LIBCMT:crt0msg.obj
 0002:000018c4       ??_C@_0CM@FAHFJNHO@R6016?$AN?6?9?5not?5enough?5space?5for?5th@ 004e08c4     LIBCMT:crt0msg.obj
 0002:000018f0       ??_C@_0JG@LBKMGKLD@?$AN?6This?5application?5has?5requested@ 004e08f0     LIBCMT:crt0msg.obj
 0002:00001988       ??_C@_0CM@FLCNIPKK@R6009?$AN?6?9?5not?5enough?5space?5for?5en@ 004e0988     LIBCMT:crt0msg.obj
 0002:000019b4       ??_C@_0CK@KMMJOAPP@R6008?$AN?6?9?5not?5enough?5space?5for?5ar@ 004e09b4     LIBCMT:crt0msg.obj
 0002:000019e0       ??_C@_0CN@LEKKICBM@R6002?$AN?6?9?5floating?5point?5support?5@ 004e09e0     LIBCMT:crt0msg.obj
 0002:00001a10       ??_C@_0CF@GOGNBNAK@Microsoft?5Visual?5C?$CL?$CL?5Runtime?5Lib@ 004e0a10     LIBCMT:crt0msg.obj
 0002:00001a38       ??_C@_02PHMGELLB@?6?6?$AA@ 004e0a38     LIBCMT:crt0msg.obj
 0002:00001a3c       ??_C@_03KHICJKCI@?4?4?4?$AA@ 004e0a3c     LIBCMT:crt0msg.obj
 0002:00001a40       ??_C@_0BH@DNAGHKFM@?$DMprogram?5name?5unknown?$DO?$AA@ 004e0a40     LIBCMT:crt0msg.obj
 0002:00001a58       ??_C@_0BK@OFGJDLJJ@Runtime?5Error?$CB?6?6Program?3?5?$AA@ 004e0a58     LIBCMT:crt0msg.obj
 0002:00001a78       __XcptActTab               004e0a78     LIBCMT:winxfltr.obj
 0002:00001af0       ??_C@_0BC@JEAENNKH@SystemFunction036?$AA@ 004e0af0     LIBCMT:rand_s.obj
 0002:00001b04       ??_C@_0N@JJPEKNFO@ADVAPI32?4DLL?$AA@ 004e0b04     LIBCMT:rand_s.obj
 0002:00001b34       ??_C@_0BG@KLEAJEFJ@Illegal?5byte?5sequence?$AA@ 004e0b34     LIBCMT:syserr.obj
 0002:00001b4c       ??_C@_0BE@ICMCHPHH@Directory?5not?5empty?$AA@ 004e0b4c     LIBCMT:syserr.obj
 0002:00001b60       ??_C@_0BJ@IHEHINLI@Function?5not?5implemented?$AA@ 004e0b60     LIBCMT:syserr.obj
 0002:00001b7c       ??_C@_0BD@CLHBCGPB@No?5locks?5available?$AA@ 004e0b7c     LIBCMT:syserr.obj
 0002:00001b90       ??_C@_0BC@BEDIHIDK@Filename?5too?5long?$AA@ 004e0b90     LIBCMT:syserr.obj
 0002:00001ba4       ??_C@_0BK@JAEBMJJM@Resource?5deadlock?5avoided?$AA@ 004e0ba4     LIBCMT:syserr.obj
 0002:00001bc0       ??_C@_0BB@FCBJFCAJ@Result?5too?5large?$AA@ 004e0bc0     LIBCMT:syserr.obj
 0002:00001bd4       ??_C@_0N@MMJPGLJK@Domain?5error?$AA@ 004e0bd4     LIBCMT:syserr.obj
 0002:00001be4       ??_C@_0M@LHEPIIOM@Broken?5pipe?$AA@ 004e0be4     LIBCMT:syserr.obj
 0002:00001bf0       ??_C@_0P@PKCJJLLM@Too?5many?5links?$AA@ 004e0bf0     LIBCMT:syserr.obj
 0002:00001c00       ??_C@_0BG@DDBFNKBH@Read?9only?5file?5system?$AA@ 004e0c00     LIBCMT:syserr.obj
 0002:00001c18       ??_C@_0N@FEHLOILP@Invalid?5seek?$AA@ 004e0c18     LIBCMT:syserr.obj
 0002:00001c28       ??_C@_0BI@FEALHKLD@No?5space?5left?5on?5device?$AA@ 004e0c28     LIBCMT:syserr.obj
 0002:00001c40       ??_C@_0P@LFMMIPAE@File?5too?5large?$AA@ 004e0c40     LIBCMT:syserr.obj
 0002:00001c50       ??_C@_0CE@ONOKNLPF@Inappropriate?5I?1O?5control?5operat@ 004e0c50     LIBCMT:syserr.obj
 0002:00001c74       ??_C@_0BE@INBJMKGG@Too?5many?5open?5files?$AA@ 004e0c74     LIBCMT:syserr.obj
 0002:00001c88       ??_C@_0BO@IIFBODJE@Too?5many?5open?5files?5in?5system?$AA@ 004e0c88     LIBCMT:syserr.obj
 0002:00001ca8       ??_C@_0BB@HMGGCEBG@Invalid?5argument?$AA@ 004e0ca8     LIBCMT:syserr.obj
 0002:00001cbc       ??_C@_0P@NDHGCGKE@Is?5a?5directory?$AA@ 004e0cbc     LIBCMT:syserr.obj
 0002:00001ccc       ??_C@_0BA@CJBACOOL@Not?5a?5directory?$AA@ 004e0ccc     LIBCMT:syserr.obj
 0002:00001cdc       ??_C@_0P@NLEIANHE@No?5such?5device?$AA@ 004e0cdc     LIBCMT:syserr.obj
 0002:00001cec       ??_C@_0O@OAMDNOCP@Improper?5link?$AA@ 004e0cec     LIBCMT:syserr.obj
 0002:00001cfc       ??_C@_0M@NAAJNNGH@File?5exists?$AA@ 004e0cfc     LIBCMT:syserr.obj
 0002:00001d08       ??_C@_0BA@BIBLIOEK@Resource?5device?$AA@ 004e0d08     LIBCMT:syserr.obj
 0002:00001d18       ??_C@_0O@NIPGCINC@Unknown?5error?$AA@ 004e0d18     LIBCMT:syserr.obj
 0002:00001d28       ??_C@_0M@LOEHLCJD@Bad?5address?$AA@ 004e0d28     LIBCMT:syserr.obj
 0002:00001d34       ??_C@_0BC@HFNFNKAI@Permission?5denied?$AA@ 004e0d34     LIBCMT:syserr.obj
 0002:00001d48       ??_C@_0BB@IMDKMPFB@Not?5enough?5space?$AA@ 004e0d48     LIBCMT:syserr.obj
 0002:00001d5c       ??_C@_0CB@EPFKGNAK@Resource?5temporarily?5unavailable@ 004e0d5c     LIBCMT:syserr.obj
 0002:00001d80       ??_C@_0BD@LOHELEP@No?5child?5processes?$AA@ 004e0d80     LIBCMT:syserr.obj
 0002:00001d94       ??_C@_0BE@NFGDDCEF@Bad?5file?5descriptor?$AA@ 004e0d94     LIBCMT:syserr.obj
 0002:00001da8       ??_C@_0BC@HKPNECK@Exec?5format?5error?$AA@ 004e0da8     LIBCMT:syserr.obj
 0002:00001dbc       ??_C@_0BC@MFFGCDFL@Arg?5list?5too?5long?$AA@ 004e0dbc     LIBCMT:syserr.obj
 0002:00001dd0       ??_C@_0BK@DPKMCKJ@No?5such?5device?5or?5address?$AA@ 004e0dd0     LIBCMT:syserr.obj
 0002:00001dec       ??_C@_0BD@KKNFOBBD@Input?1output?5error?$AA@ 004e0dec     LIBCMT:syserr.obj
 0002:00001e00       ??_C@_0BK@FJBOAFDK@Interrupted?5function?5call?$AA@ 004e0e00     LIBCMT:syserr.obj
 0002:00001e1c       ??_C@_0BA@FKIAIBGA@No?5such?5process?$AA@ 004e0e1c     LIBCMT:syserr.obj
 0002:00001e2c       ??_C@_0BK@FMDHKPNF@No?5such?5file?5or?5directory?$AA@ 004e0e2c     LIBCMT:syserr.obj
 0002:00001e48       ??_C@_0BI@BJFCGOHL@Operation?5not?5permitted?$AA@ 004e0e48     LIBCMT:syserr.obj
 0002:00001e60       ??_C@_08INEPGKHH@No?5error?$AA@ 004e0e60     LIBCMT:syserr.obj
 0002:00001e6c       ___dnames                  004e0e6c     LIBCMT:timeset.obj
 0002:00001e84       ___mnames                  004e0e84     LIBCMT:timeset.obj
 0002:00001eac       ??_C@_02CLFPBFFP@TZ?$AA@   004e0eac     LIBCMT:tzset.obj
 0002:00001eb0       ??_C@_0L@KDOEJCKC@_nextafter?$AA@ 004e0eb0     LIBCMT:_fpexcept_.obj
 0002:00001ebc       ??_C@_05JGDBENOH@_logb?$AA@ 004e0ebc     LIBCMT:_fpexcept_.obj
 0002:00001ec4       ??_C@_03ONILCKOB@_yn?$AA@  004e0ec4     LIBCMT:_fpexcept_.obj
 0002:00001ec8       ??_C@_03NAKIGLHK@_y1?$AA@  004e0ec8     LIBCMT:_fpexcept_.obj
 0002:00001ecc       ??_C@_03MJLDFKDL@_y0?$AA@  004e0ecc     LIBCMT:_fpexcept_.obj
 0002:00001ed0       ??_C@_05GKKHEGJL@frexp?$AA@ 004e0ed0     LIBCMT:_fpexcept_.obj
 0002:00001ed8       ??_C@_04KEPJIHGP@fmod?$AA@ 004e0ed8     LIBCMT:_fpexcept_.obj
 0002:00001ee0       ??_C@_06MEIMCGCF@_hypot?$AA@ 004e0ee0     LIBCMT:_fpexcept_.obj
 0002:00001ee8       ??_C@_05KBKMEMPO@_cabs?$AA@ 004e0ee8     LIBCMT:_fpexcept_.obj
 0002:00001ef0       ??_C@_05CEJMAHNP@ldexp?$AA@ 004e0ef0     LIBCMT:_fpexcept_.obj
 0002:00001ef8       ??_C@_04EHEDPDJG@modf?$AA@ 004e0ef8     LIBCMT:_fpexcept_.obj
 0002:00001f00       ??_C@_04ODHECPBC@fabs?$AA@ 004e0f00     LIBCMT:_fpexcept_.obj
 0002:00001f08       ??_C@_05PBJFFIGL@floor?$AA@ 004e0f08     LIBCMT:_fpexcept_.obj
 0002:00001f10       ??_C@_04GFPJNGEK@ceil?$AA@ 004e0f10     LIBCMT:_fpexcept_.obj
 0002:00001f18       ??_C@_03IIINPABG@tan?$AA@  004e0f18     LIBCMT:_fpexcept_.obj
 0002:00001f1c       ??_C@_03LALBNOCG@cos?$AA@  004e0f1c     LIBCMT:_fpexcept_.obj
 0002:00001f20       ??_C@_03BLEJJJBH@sin?$AA@  004e0f20     LIBCMT:_fpexcept_.obj
 0002:00001f24       ??_C@_04EIAKFFMI@sqrt?$AA@ 004e0f24     LIBCMT:_fpexcept_.obj
 0002:00001f2c       ??_C@_05KNGEOGJB@atan2?$AA@ 004e0f2c     LIBCMT:_fpexcept_.obj
 0002:00001f34       ??_C@_04MLLJIGOK@atan?$AA@ 004e0f34     LIBCMT:_fpexcept_.obj
 0002:00001f3c       ??_C@_04PDIFKINK@acos?$AA@ 004e0f3c     LIBCMT:_fpexcept_.obj
 0002:00001f44       ??_C@_04FIHNOPOL@asin?$AA@ 004e0f44     LIBCMT:_fpexcept_.obj
 0002:00001f4c       ??_C@_04FJHINJAO@tanh?$AA@ 004e0f4c     LIBCMT:_fpexcept_.obj
 0002:00001f54       ??_C@_04HPJJNFIM@cosh?$AA@ 004e0f54     LIBCMT:_fpexcept_.obj
 0002:00001f5c       ??_C@_04COOMCNPB@sinh?$AA@ 004e0f5c     LIBCMT:_fpexcept_.obj
 0002:00001f64       ??_C@_05HGHHAHAP@log10?$AA@ 004e0f64     LIBCMT:_fpexcept_.obj
 0002:00001f6c       ??_C@_03MGHMBJCF@log?$AA@  004e0f6c     LIBCMT:_fpexcept_.obj
 0002:00001f70       ??_C@_03JGHBODFD@pow?$AA@  004e0f70     LIBCMT:_fpexcept_.obj
 0002:00001f74       ??_C@_03KHJOGHMM@exp?$AA@  004e0f74     LIBCMT:_fpexcept_.obj
 0002:00001f78       ___lookuptable_s           004e0f78     LIBCMT:outputs.obj
 0002:00001fd8       ___newctype                004e0fd8     LIBCMT:ctype.obj
 0002:000022d8       __wctype                   004e12d8     LIBCMT:ctype.obj
 0002:000024e0       ___newclmap                004e14e0     LIBCMT:ctype.obj
 0002:00002660       ___newcumap                004e1660     LIBCMT:ctype.obj
 0002:000027e0       ??_C@_0O@FMJNFNKE@united?9states?$AA@ 004e17e0     LIBCMT:getqloc.obj
 0002:000027f0       ??_C@_0P@NDHFFKCA@united?9kingdom?$AA@ 004e17f0     LIBCMT:getqloc.obj
 0002:00002800       ??_C@_0BC@HHDADLGF@trinidad?5?$CG?5tobago?$AA@ 004e1800     LIBCMT:getqloc.obj
 0002:00002814       ??_C@_0M@IOAEBDAC@south?9korea?$AA@ 004e1814     LIBCMT:getqloc.obj
 0002:00002820       ??_C@_0N@FIELFKIJ@south?9africa?$AA@ 004e1820     LIBCMT:getqloc.obj
 0002:00002830       ??_C@_0M@OPNDHCMC@south?5korea?$AA@ 004e1830     LIBCMT:getqloc.obj
 0002:0000283c       ??_C@_0N@MDEOEPFI@south?5africa?$AA@ 004e183c     LIBCMT:getqloc.obj
 0002:0000284c       ??_C@_06FKAPCJLB@slovak?$AA@ 004e184c     LIBCMT:getqloc.obj
 0002:00002854       ??_C@_0M@EFJANOAL@puerto?9rico?$AA@ 004e1854     LIBCMT:getqloc.obj
 0002:00002860       ??_C@_08PGOJKDAI@pr?9china?$AA@ 004e1860     LIBCMT:getqloc.obj
 0002:0000286c       ??_C@_08JHDOMCMI@pr?5china?$AA@ 004e186c     LIBCMT:getqloc.obj
 0002:00002878       ??_C@_02JHCHFBLL@nz?$AA@   004e1878     LIBCMT:getqloc.obj
 0002:0000287c       ??_C@_0M@LINHDHKP@new?9zealand?$AA@ 004e187c     LIBCMT:getqloc.obj
 0002:00002888       ??_C@_09IIIPPBDB@hong?9kong?$AA@ 004e1888     LIBCMT:getqloc.obj
 0002:00002894       ??_C@_07HJLCKBG@holland?$AA@ 004e1894     LIBCMT:getqloc.obj
 0002:0000289c       ??_C@_0O@LEHGMHAG@great?5britain?$AA@ 004e189c     LIBCMT:getqloc.obj
 0002:000028ac       ??_C@_07FACOMELA@england?$AA@ 004e18ac     LIBCMT:getqloc.obj
 0002:000028b4       ??_C@_05JIHCEICB@czech?$AA@ 004e18b4     LIBCMT:getqloc.obj
 0002:000028bc       ??_C@_05BBJOBLGB@china?$AA@ 004e18bc     LIBCMT:getqloc.obj
 0002:000028c4       ??_C@_07GPKPHICP@britain?$AA@ 004e18c4     LIBCMT:getqloc.obj
 0002:000028cc       ??_C@_07MHIPBHMG@america?$AA@ 004e18cc     LIBCMT:getqloc.obj
 0002:000028d4       ??_C@_03KIALPMKC@usa?$AA@  004e18d4     LIBCMT:getqloc.obj
 0002:000028d8       ??_C@_02FGJGKGGD@us?$AA@   004e18d8     LIBCMT:getqloc.obj
 0002:000028dc       ??_C@_02NEINDODK@uk?$AA@   004e18dc     LIBCMT:getqloc.obj
 0002:000028e0       ??_C@_05JMPCFJFJ@swiss?$AA@ 004e18e0     LIBCMT:getqloc.obj
 0002:000028e8       ??_C@_0BA@HLOCPIOD@swedish?9finland?$AA@ 004e18e8     LIBCMT:getqloc.obj
 0002:000028f8       ??_C@_0BC@PKCNIABK@spanish?9venezuela?$AA@ 004e18f8     LIBCMT:getqloc.obj
 0002:0000290c       ??_C@_0BA@GBHHMIJI@spanish?9uruguay?$AA@ 004e190c     LIBCMT:getqloc.obj
 0002:0000291c       ??_C@_0BE@BHDOHPMC@spanish?9puerto?5rico?$AA@ 004e191c     LIBCMT:getqloc.obj
 0002:00002930       ??_C@_0N@KMOIDGGN@spanish?9peru?$AA@ 004e1930     LIBCMT:getqloc.obj
 0002:00002940       ??_C@_0BB@HMHLPGPH@spanish?9paraguay?$AA@ 004e1940     LIBCMT:getqloc.obj
 0002:00002954       ??_C@_0P@MCPKNGFD@spanish?9panama?$AA@ 004e1954     LIBCMT:getqloc.obj
 0002:00002964       ??_C@_0BC@IHOHGAIL@spanish?9nicaragua?$AA@ 004e1964     LIBCMT:getqloc.obj
 0002:00002978       ??_C@_0P@KLMJDNFJ@spanish?9modern?$AA@ 004e1978     LIBCMT:getqloc.obj
 0002:00002988       ??_C@_0BA@BPAPGBCM@spanish?9mexican?$AA@ 004e1988     LIBCMT:getqloc.obj
 0002:00002998       ??_C@_0BB@PDECHHHE@spanish?9honduras?$AA@ 004e1998     LIBCMT:getqloc.obj
 0002:000029ac       ??_C@_0BC@KLHKFGDB@spanish?9guatemala?$AA@ 004e19ac     LIBCMT:getqloc.obj
 0002:000029c0       ??_C@_0BE@MFOOKJAI@spanish?9el?5salvador?$AA@ 004e19c0     LIBCMT:getqloc.obj
 0002:000029d4       ??_C@_0BA@FCOKFPFC@spanish?9ecuador?$AA@ 004e19d4     LIBCMT:getqloc.obj
 0002:000029e4       ??_C@_0BL@PLMGIMOO@spanish?9dominican?5republic?$AA@ 004e19e4     LIBCMT:getqloc.obj
 0002:00002a00       ??_C@_0BD@HLGDNMHB@spanish?9costa?5rica?$AA@ 004e1a00     LIBCMT:getqloc.obj
 0002:00002a14       ??_C@_0BB@PKCBKCPE@spanish?9colombia?$AA@ 004e1a14     LIBCMT:getqloc.obj
 0002:00002a28       ??_C@_0O@MCBIJGNE@spanish?9chile?$AA@ 004e1a28     LIBCMT:getqloc.obj
 0002:00002a38       ??_C@_0BA@BEFEIGJJ@spanish?9bolivia?$AA@ 004e1a38     LIBCMT:getqloc.obj
 0002:00002a48       ??_C@_0BC@EMECMPD@spanish?9argentina?$AA@ 004e1a48     LIBCMT:getqloc.obj
 0002:00002a5c       ??_C@_0BF@EALFLENP@portuguese?9brazilian?$AA@ 004e1a5c     LIBCMT:getqloc.obj
 0002:00002a74       ??_C@_0BC@HBLEBLNN@norwegian?9nynorsk?$AA@ 004e1a74     LIBCMT:getqloc.obj
 0002:00002a88       ??_C@_0BB@HMACDDCK@norwegian?9bokmal?$AA@ 004e1a88     LIBCMT:getqloc.obj
 0002:00002a9c       ??_C@_09BAFFPPHE@norwegian?$AA@ 004e1a9c     LIBCMT:getqloc.obj
 0002:00002aa8       ??_C@_0O@EAJFJDFG@italian?9swiss?$AA@ 004e1aa8     LIBCMT:getqloc.obj
 0002:00002ab8       ??_C@_0O@CNOMPGD@irish?9english?$AA@ 004e1ab8     LIBCMT:getqloc.obj
 0002:00002ac8       ??_C@_0N@EDHBGCKG@german?9swiss?$AA@ 004e1ac8     LIBCMT:getqloc.obj
 0002:00002ad8       ??_C@_0BC@JACMHNBP@german?9luxembourg?$AA@ 004e1ad8     LIBCMT:getqloc.obj
 0002:00002aec       ??_C@_0BE@HBGMGFEG@german?9lichtenstein?$AA@ 004e1aec     LIBCMT:getqloc.obj
 0002:00002b00       ??_C@_0BA@HKKBIBKL@german?9austrian?$AA@ 004e1b00     LIBCMT:getqloc.obj
 0002:00002b10       ??_C@_0N@GCAEPEBK@french?9swiss?$AA@ 004e1b10     LIBCMT:getqloc.obj
 0002:00002b20       ??_C@_0BC@DJFJJCK@french?9luxembourg?$AA@ 004e1b20     LIBCMT:getqloc.obj
 0002:00002b34       ??_C@_0BA@NNCEDFIC@french?9canadian?$AA@ 004e1b34     LIBCMT:getqloc.obj
 0002:00002b44       ??_C@_0P@CMPOCLM@french?9belgian?$AA@ 004e1b44     LIBCMT:getqloc.obj
 0002:00002b54       ??_C@_0M@GHHDJOK@english?9usa?$AA@ 004e1b54     LIBCMT:getqloc.obj
 0002:00002b60       ??_C@_0L@PLDJKEIL@english?9us?$AA@ 004e1b60     LIBCMT:getqloc.obj
 0002:00002b6c       ??_C@_0L@HJCCDMNC@english?9uk?$AA@ 004e1b6c     LIBCMT:getqloc.obj
 0002:00002b78       ??_C@_0BK@CKLIAGJB@english?9trinidad?5y?5tobago?$AA@ 004e1b78     LIBCMT:getqloc.obj
 0002:00002b94       ??_C@_0BF@JMJMGNNF@english?9south?5africa?$AA@ 004e1b94     LIBCMT:getqloc.obj
 0002:00002bac       ??_C@_0L@DKIIFDFD@english?9nz?$AA@ 004e1bac     LIBCMT:getqloc.obj
 0002:00002bb8       ??_C@_0BA@ONHGJCLH@english?9jamaica?$AA@ 004e1bb8     LIBCMT:getqloc.obj
 0002:00002bc8       ??_C@_0M@HJBGHOPO@english?9ire?$AA@ 004e1bc8     LIBCMT:getqloc.obj
 0002:00002bd4       ??_C@_0BC@LFEKMIFB@english?9caribbean?$AA@ 004e1bd4     LIBCMT:getqloc.obj
 0002:00002be8       ??_C@_0M@OLDPFKHI@english?9can?$AA@ 004e1be8     LIBCMT:getqloc.obj
 0002:00002bf4       ??_C@_0P@OMDEHBMP@english?9belize?$AA@ 004e1bf4     LIBCMT:getqloc.obj
 0002:00002c04       ??_C@_0M@KFHFPFED@english?9aus?$AA@ 004e1c04     LIBCMT:getqloc.obj
 0002:00002c10       ??_C@_0BB@MNMBKDFE@english?9american?$AA@ 004e1c10     LIBCMT:getqloc.obj
 0002:00002c24       ??_C@_0O@KIDLNNBA@dutch?9belgian?$AA@ 004e1c24     LIBCMT:getqloc.obj
 0002:00002c34       ??_C@_0BE@JBKABBMH@chinese?9traditional?$AA@ 004e1c34     LIBCMT:getqloc.obj
 0002:00002c48       ??_C@_0BC@MJJMPKCG@chinese?9singapore?$AA@ 004e1c48     LIBCMT:getqloc.obj
 0002:00002c5c       ??_C@_0BD@FDKADDCP@chinese?9simplified?$AA@ 004e1c5c     LIBCMT:getqloc.obj
 0002:00002c70       ??_C@_0BB@DBEFDDME@chinese?9hongkong?$AA@ 004e1c70     LIBCMT:getqloc.obj
 0002:00002c84       ??_C@_07DHNMFMCI@chinese?$AA@ 004e1c84     LIBCMT:getqloc.obj
 0002:00002c8c       ??_C@_03FNDDCHI@chi?$AA@   004e1c8c     LIBCMT:getqloc.obj
 0002:00002c90       ??_C@_03BMMIADDJ@chh?$AA@  004e1c90     LIBCMT:getqloc.obj
 0002:00002c94       ??_C@_08OAIPJDGI@canadian?$AA@ 004e1c94     LIBCMT:getqloc.obj
 0002:00002ca0       ??_C@_07HBPMNPNJ@belgian?$AA@ 004e1ca0     LIBCMT:getqloc.obj
 0002:00002ca8       ??_C@_0L@OEKOPBEL@australian?$AA@ 004e1ca8     LIBCMT:getqloc.obj
 0002:00002cb4       ??_C@_0BB@MEIMBEDG@american?9english?$AA@ 004e1cb4     LIBCMT:getqloc.obj
 0002:00002cc8       ??_C@_0BB@DFMDPDGB@american?5english?$AA@ 004e1cc8     LIBCMT:getqloc.obj
 0002:00002cdc       ??_C@_08IJLOKOLL@american?$AA@ 004e1cdc     LIBCMT:getqloc.obj
 0002:00002ce8       ___rg_language             004e1ce8     LIBCMT:getqloc.obj
 0002:00002ef0       ___rg_country              004e1ef0     LIBCMT:getqloc.obj
 0002:00002fa8       ___rglangidNotDefault      004e1fa8     LIBCMT:getqloc.obj
 0002:00002fbc       ??_C@_01GBGANLPD@0?$AA@    004e1fbc     LIBCMT:getqloc.obj
 0002:00002fc0       ??_C@_03NFKLAGEF@OCP?$AA@  004e1fc0     LIBCMT:getqloc.obj
 0002:00002fc4       ??_C@_03DFHEHBHG@ACP?$AA@  004e1fc4     LIBCMT:getqloc.obj
 0002:00002fc8       ??_C@_0BC@NFIEMBLL@Norwegian?9Nynorsk?$AA@ 004e1fc8     LIBCMT:getqloc.obj
 0002:00002fdc       ??_C@_0BK@CIDNPOGP@GetUserObjectInformationA?$AA@ 004e1fdc     LIBCMT:crtmbox.obj
 0002:00002ff8       ??_C@_0M@CHKKJDAI@MessageBoxA?$AA@ 004e1ff8     LIBCMT:crtmbox.obj
 0002:00003004       ??_C@_0L@NDEGIDAG@USER32?4DLL?$AA@ 004e2004     LIBCMT:crtmbox.obj
 0002:00003010       ??_C@_06IMKFLFPG@1?$CDQNAN?$AA@ 004e2010     LIBCMT:_x10fout_.obj
 0002:00003018       ??_C@_05DNEBIAHO@1?$CDINF?$AA@ 004e2018     LIBCMT:_x10fout_.obj
 0002:00003020       ??_C@_05PHHOCPM@1?$CDIND?$AA@ 004e2020     LIBCMT:_x10fout_.obj
 0002:00003028       ??_C@_06PGGFOGJG@1?$CDSNAN?$AA@ 004e2028     LIBCMT:_x10fout_.obj
 0002:00003030       ??_C@_06GDENEHCP@CONIN$?$AA@ 004e2030     LIBCMT:initcon.obj
 0002:00003038       ??_C@_07GPDNMNG@CONOUT$?$AA@ 004e2038     LIBCMT:initcon.obj
 0002:00003040       __load_config_used         004e2040     LIBCMT:loadcfg.obj
 0002:00003a40       ___safe_se_handler_table   004e2a40     <linker-defined>
 0002:00003b50       ___rtc_iaa                 004e2b50     LIBCMT:_initsect_.obj
 0002:00003c54       ___rtc_izz                 004e2c54     LIBCMT:_initsect_.obj
 0002:00003d58       ___rtc_taa                 004e2d58     LIBCMT:_initsect_.obj
 0002:00003e5c       ___rtc_tzz                 004e2e5c     LIBCMT:_initsect_.obj
 0003:000000f4       _IEC_GOOSE_LOG_FLOW_TEXT   004e40f4     iec_comn.obj
 0003:0000010c       _IEC_GOOSE_LOG_RX_TEXT     004e410c     iec_comn.obj
 0003:00000124       _IEC_GOOSE_LOG_TX_TEXT     004e4124     iec_comn.obj
 0003:00000140       _IEC_GOOSE_LOG_RETRANS_TEXT 004e4140     iec_comn.obj
 0003:000004f0       _iecGooseLogMaskMaps       004e44f0     iec_main.obj
 0003:00000560       _iecGooseLogMaskMapCtrl    004e4560     iec_main.obj
 0003:000015f0       __logcfg_log_err_logstr    004e55f0     logcfgx.obj
 0003:00001600       __logcfg_log_nerr_logstr   004e5600     logcfgx.obj
 0003:00001610       __logcfg_log_flow_logstr   004e5610     logcfgx.obj
 0003:00001650       _logcfgMaskMaps            004e5650     logcfgx.obj
 0003:000016a0       _logcfgMaskMapCtrl         004e56a0     logcfgx.obj
 0003:000018b8       _logCfgLogMaskMaps         004e58b8     logcfgx.obj
 0003:00001bb8       _logCfgLogCtrlMapCtrl      004e5bb8     logcfgx.obj
 0003:00002bc0       _mmsop_en                  004e6bc0     Mmsop_en.obj
 0003:00003210       _mms_op_string             004e7210     Mmsop_en.obj
 0003:000033b8       _m_num_mms_op_string       004e73b8     Mmsop_en.obj
 0003:000033bc       _m_param                   004e73bc     Mmsop_en.obj
 0003:000033c0       _mms_req_decode_fun        004e73c0     Mmsop_en.obj
 0003:00003518       _mms_rsp_decode_fun        004e7518     Mmsop_en.obj
 0003:00003670       _m_service_resp            004e7670     Mmsop_en.obj
 0003:000038c4       _mvl_max_net_info          004e78c4     Mvl_acse.obj
 0003:00004598       _slogIpcMaxCmdPend         004e8598     slogipc.obj
 0003:00004840       _m_lite_data_algn_tbl      004e8840     uca_obj.obj
 0003:00004884       _m_struct_start_algn_mode  004e8884     uca_obj.obj
 0003:00004888       _m_struct_end_algn_mode    004e8888     uca_obj.obj
 0003:000048a0       _mvluRdFunInfoTbl          004e88a0     uca_obj.obj
 0003:000048a8       _mvluNumRdFunEntries       004e88a8     uca_obj.obj
 0003:000048c0       _mvluWrFunInfoTbl          004e88c0     uca_obj.obj
 0003:000048c8       _mvluNumWrFunEntries       004e88c8     uca_obj.obj
 0003:00004905       _m_mem_debug               004e8905     mem_ld:mem_chks.obj
 0003:00004918       __mem_log_err_logstr       004e8918     mem_ld:mem_chks.obj
 0003:0000492c       __mem_log_calloc_logstr    004e892c     mem_ld:mem_chks.obj
 0003:00004940       __mem_log_malloc_logstr    004e8940     mem_ld:mem_chks.obj
 0003:00004954       __mem_log_realloc_logstr   004e8954     mem_ld:mem_chks.obj
 0003:00004968       __mem_log_free_logstr      004e8968     mem_ld:mem_chks.obj
 0003:0000497c       __mem_log_nerr_logstr      004e897c     mem_ld:mem_chks.obj
 0003:00004990       __mem_log_dump_logstr      004e8990     mem_ld:mem_chks.obj
 0003:00004a08       _memLogMaskMaps            004e8a08     mem_ld:mem_chks.obj
 0003:00004a8c       _memLogMaskMapCtrl         004e8a8c     mem_ld:mem_chks.obj
 0003:00004b28       _memDebugMaps              004e8b28     mem_ld:mem_chks.obj
 0003:00004bf8       _memDebugMapCtrl           004e8bf8     mem_ld:mem_chks.obj
 0003:00007470       _mvl_debug_sel             004eb470     mvlu_ld:MVL_SERV.obj
 0003:00007480       __mvllog_err_logstr        004eb480     mvlu_ld:MVL_SERV.obj
 0003:00007490       __mvllog_nerr_logstr       004eb490     mvlu_ld:MVL_SERV.obj
 0003:000074a0       __mvllog_acse_logstr       004eb4a0     mvlu_ld:MVL_SERV.obj
 0003:000074b4       __mvllog_acsedata_logstr   004eb4b4     mvlu_ld:MVL_SERV.obj
 0003:000074c8       __mvlulog_flow_logstr      004eb4c8     mvlu_ld:MVL_SERV.obj
 0003:000074dc       __mvlulog_debug_logstr     004eb4dc     mvlu_ld:MVL_SERV.obj
 0003:00007568       _mvlLogMaskMaps            004eb568     mvlu_ld:MVL_SERV.obj
 0003:00007604       _mvlLogMaskMapCtrl         004eb604     mvlu_ld:MVL_SERV.obj
 0003:000078e4       _pdutype_to_reject_class   004eb8e4     mvlu_ld:MVL_SERV.obj
 0003:00007a88       _mvlLowWaterAvail          004eba88     mvlu_ld:MVL_SERV.obj
 0003:00007a8c       _mvlLowWaterReqAvail       004eba8c     mvlu_ld:MVL_SERV.obj
 0003:00007a90       _mvlLowWaterUReqAvail      004eba90     mvlu_ld:MVL_SERV.obj
 0003:00008de0       _mvluAsyncRdIndFun         004ecde0     mvlu_ld:mvl_uca.obj
 0003:00008de4       _mvluAsyncWrIndFun         004ecde4     mvlu_ld:mvl_uca.obj
 0003:0000bff0       _asn1_debug_sel            004efff0     asn1_ld:asn1r.obj
 0003:0000c004       __asn1_log_dec_logstr      004f0004     asn1_ld:asn1r.obj
 0003:0000c018       __asn1_log_enc_logstr      004f0018     asn1_ld:asn1r.obj
 0003:0000c02c       __asn1_log_err_logstr      004f002c     asn1_ld:asn1r.obj
 0003:0000c040       __asn1_log_nerr_logstr     004f0040     asn1_ld:asn1r.obj
 0003:0000c0a8       _asn1LogMaskMaps           004f00a8     asn1_ld:asn1r.obj
 0003:0000c118       _asn1LogMaskMapCtrl        004f0118     asn1_ld:asn1r.obj
 0003:0000c7d8       __slogXMLLogTypeStr        004f07d8     slog_ld:slog.obj
 0003:0000c7e4       _sLogCtrl                  004f07e4     slog_ld:slog.obj
 0003:0000c7e8       _sLogCtrlDefault           004f07e8     slog_ld:slog.obj
 0003:0000c8a8       _sl_max_msg_size           004f08a8     slog_ld:slog.obj
 0003:0000c8b8       __slogAlwaysLogTypeStr     004f08b8     slog_ld:slog.obj
 0003:0000cdd8       _slogAllocBuf              004f0dd8     slog_ld:slogmem.obj
 0003:0000cddc       _slogFreeBuf               004f0ddc     slog_ld:slogmem.obj
 0003:0000cf60       _mmsl_version              004f0f60     mmsl_ld:mmslvar.obj
 0003:0000cf64       _mmsl_invoke_id            004f0f64     mmsl_ld:mmslvar.obj
 0003:0000cf68       __mmsdec_ctxt              004f0f68     mmsl_ld:mmslvar.obj
 0003:0000cf6c       _m_max_dec_aa              004f0f6c     mmsl_ld:mmslvar.obj
 0003:0000cf70       _m_max_rt_aa_ctrl          004f0f70     mmsl_ld:mmslvar.obj
 0003:0000cf74       _m_max_mods                004f0f74     mmsl_ld:mmslvar.obj
 0003:0000cf78       _mms_debug_sel             004f0f78     mmsl_ld:mmslvar.obj
 0003:0000cf7c       _user_debug_sel            004f0f7c     mmsl_ld:mmslvar.obj
 0003:0000cf8c       __mms_log_dec_logstr       004f0f8c     mmsl_ld:mmslvar.obj
 0003:0000cf9c       __mms_log_enc_logstr       004f0f9c     mmsl_ld:mmslvar.obj
 0003:0000cfb0       __mms_log_acse_logstr      004f0fb0     mmsl_ld:mmslvar.obj
 0003:0000cfc0       __mms_log_llc_logstr       004f0fc0     mmsl_ld:mmslvar.obj
 0003:0000cfd4       __mms_log_ique_logstr      004f0fd4     mmsl_ld:mmslvar.obj
 0003:0000cfe8       __mms_log_rque_logstr      004f0fe8     mmsl_ld:mmslvar.obj
 0003:0000cff8       __mms_log_ind_logstr       004f0ff8     mmsl_ld:mmslvar.obj
 0003:0000d00c       __mms_log_conf_logstr      004f100c     mmsl_ld:mmslvar.obj
 0003:0000d01c       __mms_log_vm_logstr        004f101c     mmsl_ld:mmslvar.obj
 0003:0000d02c       __mms_log_err_logstr       004f102c     mmsl_ld:mmslvar.obj
 0003:0000d040       __mms_log_nerr_logstr      004f1040     mmsl_ld:mmslvar.obj
 0003:0000d050       __mms_log_pdu_logstr       004f1050     mmsl_ld:mmslvar.obj
 0003:0000d064       __mms_log_config_logstr    004f1064     mmsl_ld:mmslvar.obj
 0003:0000d078       __mms_log_always_logstr    004f1078     mmsl_ld:mmslvar.obj
 0003:0000d08c       __user_err_logstr          004f108c     mmsl_ld:mmslvar.obj
 0003:0000d0a0       __user_client_logstr       004f10a0     mmsl_ld:mmslvar.obj
 0003:0000d0b4       __user_server_logstr       004f10b4     mmsl_ld:mmslvar.obj
 0003:0000d1f8       _mmsLogMaskMaps            004f11f8     mmsl_ld:mmslvar.obj
 0003:0000d33c       _mmsLogMaskMapCtrl         004f133c     mmsl_ld:mmslvar.obj
 0003:0000d398       _usrLogMaskMaps            004f1398     mmsl_ld:mmslvar.obj
 0003:0000d3f0       _usrLogMaskMapCtrl         004f13f0     mmsl_ld:mmslvar.obj
 0003:0000e7d4       _m_data_algn_tbl           004f27d4     mmsl_ld:mms_tdef.obj
 0003:0000f0d0       _m_rt_type_limit           004f30d0     mmsl_ld:ms_tdef.obj
 0003:0000f248       _tdlTypes                  004f3248     mmsl_ld:ms_tdef.obj
 0003:0000f308       _numTdlTypes               004f3308     mmsl_ld:ms_tdef.obj
 0003:000103e8       _mlog_arb_log_ctrl         004f43e8     mlog_ld:mlogavar.obj
 0003:00011ca0       _genlistDebugMaps          004f5ca0     utility_ld:genlists.obj
 0003:00011cc8       _genlistDebugMapCtrl       004f5cc8     utility_ld:genlists.obj
 0003:00011fa8       __sxdEncArbFuns            004f5fa8     utility_ld:sx_data.obj
 0003:000124e8       _sclStartElements          004f64e8     utility_ld:sclparse.obj
 0003:00012530       _SCLElements               004f6530     utility_ld:sclparse.obj
 0003:0001258c       _CommunicationElements     004f658c     utility_ld:sclparse.obj
 0003:000125ac       _SubNetworkElements        004f65ac     utility_ld:sclparse.obj
 0003:000125c8       _ConnectedAPElements       004f65c8     utility_ld:sclparse.obj
 0003:000125f8       _GSEElements               004f65f8     utility_ld:sclparse.obj
 0003:00012610       _GSEAddressElements        004f6610     utility_ld:sclparse.obj
 0003:0001262c       _SMVElements               004f662c     utility_ld:sclparse.obj
 0003:00012644       _SMVAddressElements        004f6644     utility_ld:sclparse.obj
 0003:00012664       _IEDElements               004f6664     utility_ld:sclparse.obj
 0003:00012680       _AccessPointElements       004f6680     utility_ld:sclparse.obj
 0003:0001269c       _ServerElements            004f669c     utility_ld:sclparse.obj
 0003:000126b8       _LDeviceElements           004f66b8     utility_ld:sclparse.obj
 0003:00012738       _LN0Elements               004f6738     utility_ld:sclparse.obj
 0003:00012800       _LNElements                004f6800     utility_ld:sclparse.obj
 0003:0001286c       _DataSetElements           004f686c     utility_ld:sclparse.obj
 0003:000128a0       _ReportControlElements     004f68a0     utility_ld:sclparse.obj
 0003:000128e4       _LogControlElements        004f68e4     utility_ld:sclparse.obj
 0003:00012900       _SampledValueControlElements 004f6900     utility_ld:sclparse.obj
 0003:0001291c       _DOIElements               004f691c     utility_ld:sclparse.obj
 0003:0001294c       _SDIElements               004f694c     utility_ld:sclparse.obj
 0003:00012978       _DAIElements               004f6978     utility_ld:sclparse.obj
 0003:000129b8       _DataTypeTemplatesElements 004f69b8     utility_ld:sclparse.obj
 0003:00012a0c       _LNodeTypeElements         004f6a0c     utility_ld:sclparse.obj
 0003:00012a28       _DOTypeElements            004f6a28     utility_ld:sclparse.obj
 0003:00012a54       _DAElements                004f6a54     utility_ld:sclparse.obj
 0003:00012a6c       _DATypeElements            004f6a6c     utility_ld:sclparse.obj
 0003:00012a84       _BDAElements               004f6a84     utility_ld:sclparse.obj
 0003:00012aa0       _EnumTypeElements          004f6aa0     utility_ld:sclparse.obj
 0003:00013c30       _sockLogMaskMaps           004f7c30     utility_ld:gensock2.obj
 0003:00013cb8       _sockLogMaskMapCtrl        004f7cb8     utility_ld:gensock2.obj
 0003:00013cdc       _SOCK_LOG_FLOW_TEXT        004f7cdc     utility_ld:gensock2.obj
 0003:00013cf0       _SOCK_LOG_NERR_TEXT        004f7cf0     utility_ld:gensock2.obj
 0003:00013d04       _SOCK_LOG_ERR_TEXT         004f7d04     utility_ld:gensock2.obj
 0003:00013d14       _SOCK_LOG_RX_TEXT          004f7d14     utility_ld:gensock2.obj
 0003:00013d24       _SOCK_LOG_TX_TEXT          004f7d24     utility_ld:gensock2.obj
 0003:00013f68       _sockDisconnReasonStr      004f7f68     utility_ld:gensock2.obj
 0003:00013fac       _sockDisconnReasonStrCnt   004f7fac     utility_ld:gensock2.obj
 0003:00014fb0       _gs_debug_sel              004f8fb0     utility_ld:glbsem.obj
 0003:00014fc0       __glbem_flow_logstr        004f8fc0     utility_ld:glbsem.obj
 0003:00014fd0       __glbem_err_logstr         004f8fd0     utility_ld:glbsem.obj
 0003:00014fe0       __glbem_nerr_logstr        004f8fe0     utility_ld:glbsem.obj
 0003:00015020       _gsLogMaskMaps             004f9020     utility_ld:glbsem.obj
 0003:0001507c       _gsLogMaskMapCtrl          004f907c     utility_ld:glbsem.obj
 0003:00015324       __sx_log_dec_logstr        004f9324     utility_ld:sx_dec.obj
 0003:00015334       __sx_log_enc_logstr        004f9334     utility_ld:sx_dec.obj
 0003:00015344       __sx_log_flow_logstr       004f9344     utility_ld:sx_dec.obj
 0003:00015358       __sx_log_debug_logstr      004f9358     utility_ld:sx_dec.obj
 0003:00015368       __sx_log_err_logstr        004f9368     utility_ld:sx_dec.obj
 0003:00015378       __sx_log_nerr_logstr       004f9378     utility_ld:sx_dec.obj
 0003:0001537c       _sx_debug_sel              004f937c     utility_ld:sx_dec.obj
 0003:00015380       _sx_debug_sel_cfg          004f9380     utility_ld:sx_dec.obj
 0003:00015400       _sxLogMaskMaps             004f9400     utility_ld:sx_dec.obj
 0003:0001549c       _sxLogMaskMapCtrl          004f949c     utility_ld:sx_dec.obj
 0003:000155b8       _sx_err_str                004f95b8     utility_ld:sx_dec.obj
 0003:000155e8       _sx_err_str_cnt            004f95e8     utility_ld:sx_dec.obj
 0003:0001748c       _sxTimeFormatStr           004fb48c     utility_ld:sx_enc.obj
 0003:0001b5c8       _tstrTimeFormat            004ff5c8     utility_ld:time_str.obj
 0003:0001b5e0       _BtimeTimeFormat           004ff5e0     utility_ld:time_str.obj
 0003:0001c184       _cfgStartElements          00500184     ositp4e_ld:osicfgx.obj
 0003:0001c1d0       _cfgElements               005001d0     ositp4e_ld:osicfgx.obj
 0003:0001c278       _mmsElements               00500278     ositp4e_ld:osicfgx.obj
 0003:0001c2cc       _networkElements           005002cc     ositp4e_ld:osicfgx.obj
 0003:0001c338       _clnpElements              00500338     ositp4e_ld:osicfgx.obj
 0003:0001c3a4       _transportElements         005003a4     ositp4e_ld:osicfgx.obj
 0003:0001c478       _Tp4Elements               00500478     ositp4e_ld:osicfgx.obj
 0003:0001c5b8       _TcpElements               005005b8     ositp4e_ld:osicfgx.obj
 0003:0001c608       _sessionElements           00500608     ositp4e_ld:osicfgx.obj
 0003:0001c644       _networkAddressingElements 00500644     ositp4e_ld:osicfgx.obj
 0003:0001c67c       _LocalAddressesElements    0050067c     ositp4e_ld:osicfgx.obj
 0003:0001c6e0       _LocalArNameElements       005006e0     ositp4e_ld:osicfgx.obj
 0003:0001c77c       _RemoteAddressesElements   0050077c     ositp4e_ld:osicfgx.obj
 0003:0001c7e0       _RemoteArNameElements      005007e0     ositp4e_ld:osicfgx.obj
 0003:0001d1b0       _acse_debug_sel            005011b0     ositp4e_ld:lean_var.obj
 0003:0001d1c4       __acse_err_logstr          005011c4     ositp4e_ld:lean_var.obj
 0003:0001d1d8       __acse_enc_logstr          005011d8     ositp4e_ld:lean_var.obj
 0003:0001d1ec       __acse_dec_logstr          005011ec     ositp4e_ld:lean_var.obj
 0003:0001d200       __acse_dib_logstr          00501200     ositp4e_ld:lean_var.obj
 0003:0001d214       __copp_err_logstr          00501214     ositp4e_ld:lean_var.obj
 0003:0001d228       __copp_dec_logstr          00501228     ositp4e_ld:lean_var.obj
 0003:0001d240       __copp_dec_hex_logstr      00501240     ositp4e_ld:lean_var.obj
 0003:0001d254       __copp_enc_logstr          00501254     ositp4e_ld:lean_var.obj
 0003:0001d26c       __copp_enc_hex_logstr      0050126c     ositp4e_ld:lean_var.obj
 0003:0001d280       __cosp_err_logstr          00501280     ositp4e_ld:lean_var.obj
 0003:0001d294       __cosp_dec_logstr          00501294     ositp4e_ld:lean_var.obj
 0003:0001d2ac       __cosp_dec_hex_logstr      005012ac     ositp4e_ld:lean_var.obj
 0003:0001d2c0       __cosp_enc_logstr          005012c0     ositp4e_ld:lean_var.obj
 0003:0001d2d8       __cosp_enc_hex_logstr      005012d8     ositp4e_ld:lean_var.obj
 0003:0001d480       _acseLogMaskMaps           00501480     ositp4e_ld:lean_var.obj
 0003:0001d5e0       _acseLogMaskMapCtrl        005015e0     ositp4e_ld:lean_var.obj
 0003:0001d5f4       _tp4_debug_sel             005015f4     ositp4e_ld:lean_var.obj
 0003:0001d604       __tp4_err_logstr           00501604     ositp4e_ld:lean_var.obj
 0003:0001d618       __tp4_flowup_logstr        00501618     ositp4e_ld:lean_var.obj
 0003:0001d630       __tp4_flowdown_logstr      00501630     ositp4e_ld:lean_var.obj
 0003:0001d6d8       _tp4LogMaskMaps            005016d8     ositp4e_ld:lean_var.obj
 0003:0001d77c       _tp4LogMaskMapCtrl         0050177c     ositp4e_ld:lean_var.obj
 0003:0001d790       _clnp_debug_sel            00501790     ositp4e_ld:lean_var.obj
 0003:0001d7a4       __clnp_err_logstr          005017a4     ositp4e_ld:lean_var.obj
 0003:0001d7b8       __clnp_nerr_logstr         005017b8     ositp4e_ld:lean_var.obj
 0003:0001d7cc       __clnp_req_logstr          005017cc     ositp4e_ld:lean_var.obj
 0003:0001d7e0       __clnp_ind_logstr          005017e0     ositp4e_ld:lean_var.obj
 0003:0001d7f8       __clnp_enc_dec_logstr      005017f8     ositp4e_ld:lean_var.obj
 0003:0001d814       __clnp_llc_enc_dec_logstr  00501814     ositp4e_ld:lean_var.obj
 0003:0001d828       __clsns_req_logstr         00501828     ositp4e_ld:lean_var.obj
 0003:0001d83c       __clsns_ind_logstr         0050183c     ositp4e_ld:lean_var.obj
 0003:0001d938       _clnpLogMaskMaps           00501938     ositp4e_ld:lean_var.obj
 0003:0001da08       _clnpLogMaskMapCtrl        00501a08     ositp4e_ld:lean_var.obj
 0003:0001da1c       _hPktSock                  00501a1c     ositp4e_ld:lean_var.obj
 0003:0001eee8       _only_tp4_bind_id          00502ee8     ositp4e_ld:Tp4main.obj
 0003:00020b34       _mms_obj_id                00504b34     ositp4e_ld:Acse2var.obj
 0003:00020b58       _acse_obj_id               00504b58     ositp4e_ld:Acse2var.obj
 0003:00020b7c       _asn1_obj_id               00504b7c     ositp4e_ld:Acse2var.obj
 0003:00020ba0       _a_auth_password_obj_id    00504ba0     ositp4e_ld:Acse2var.obj
 0003:00020be8       _ETHE_ALL_ES               00504be8     ositp4e_ld:clnp_eth.obj
 0003:00020bf0       _ETHE_ALL_IS               00504bf0     ositp4e_ld:clnp_eth.obj
 0003:00024b20       ___security_cookie         00508b20     LIBCMT:gs_cookie.obj
 0003:00024b24       ___security_cookie_complement 00508b24     LIBCMT:gs_cookie.obj
 0003:00024b28       __fltused                  00508b28     LIBCMT:_fpinit_.obj
 0003:00024b2c       __ldused                   00508b2c     LIBCMT:_fpinit_.obj
 0003:00024b30       __aexit_rtn                00508b30     LIBCMT:crt0dat.obj
 0003:00024b38       __iob                      00508b38     LIBCMT:_file.obj
 0003:00024dc0       ___app_type                00508dc0     LIBCMT:crt0.obj
 0003:00024f40       ___lc_time_c               00508f40     LIBCMT:strftime.obj
 0003:00024ff8       ___lc_time_curr            00508ff8     LIBCMT:strftime.obj
 0003:00025010       ___abort_behavior          00509010     LIBCMT:abort.obj
 0003:00025014       ___nullstring              00509014     LIBCMT:output.obj
 0003:00025018       ___wnullstring             00509018     LIBCMT:output.obj
 0003:0002501c       __cfltcvt_tab              0050901c     LIBCMT:cmiscdat.obj
 0003:00025048       ___initialmbcinfo          00509048     LIBCMT:mbctype.obj
 0003:00025268       __mbctype                  00509268     LIBCMT:mbctype.obj
 0003:00025370       __mbcasemap                00509370     LIBCMT:mbctype.obj
 0003:00025470       ___ptmbcinfo               00509470     LIBCMT:mbctype.obj
 0003:0002556c       ___globallocalestatus      0050956c     LIBCMT:glstatus.obj
 0003:00025570       ___clocalestr              00509570     LIBCMT:nlsdata2.obj
 0003:00025578       ___initiallocinfo          00509578     LIBCMT:nlsdata2.obj
 0003:00025650       ___ptlocinfo               00509650     LIBCMT:nlsdata2.obj
 0003:00025654       ___lc_clike                00509654     LIBCMT:nlsdata2.obj
 0003:00025658       ___initiallocalestructinfo 00509658     LIBCMT:nlsdata2.obj
 0003:00025660       ___flsindex                00509660     LIBCMT:tidtable.obj
 0003:00025664       ___getvalueindex           00509664     LIBCMT:tidtable.obj
 0003:00025840       __First_FPE_Indx           00509840     LIBCMT:winxfltr.obj
 0003:00025844       __Num_FPE                  00509844     LIBCMT:winxfltr.obj
 0003:00025848       __XcptActTabSize           00509848     LIBCMT:winxfltr.obj
 0003:0002584c       __XcptActTabCount          0050984c     LIBCMT:winxfltr.obj
 0003:00025850       ___badioinfo               00509850     LIBCMT:ioinit.obj
 0003:00025890       __amblksiz                 00509890     LIBCMT:heapinit.obj
 0003:00025898       __lookuptrailbytes         00509898     LIBCMT:read.obj
 0003:00025998       __sys_errlist              00509998     LIBCMT:syserr.obj
 0003:00025a48       __sys_nerr                 00509a48     LIBCMT:syserr.obj
 0003:00025a50       __timezone                 00509a50     LIBCMT:timeset.obj
 0003:00025a54       __daylight                 00509a54     LIBCMT:timeset.obj
 0003:00025a58       __dstbias                  00509a58     LIBCMT:timeset.obj
 0003:00025ae0       __tzname                   00509ae0     LIBCMT:timeset.obj
 0003:00025be8       __d_inf                    00509be8     LIBCMT:_util_.obj
 0003:00025bf0       __d_ind                    00509bf0     LIBCMT:_util_.obj
 0003:00025bf8       __d_max                    00509bf8     LIBCMT:_util_.obj
 0003:00025c00       __d_min                    00509c00     LIBCMT:_util_.obj
 0003:00025c08       __d_mzero                  00509c08     LIBCMT:_util_.obj
 0003:00025c30       __HUGE                     00509c30     LIBCMT:_huge_.obj
 0003:00025c38       __lpdays                   00509c38     LIBCMT:days.obj
 0003:00025c6c       __days                     00509c6c     LIBCMT:days.obj
 0003:00025ca0       __pctype                   00509ca0     LIBCMT:ctype.obj
 0003:00025ca4       __pwctype                  00509ca4     LIBCMT:ctype.obj
 0003:00025ca8       ___lconv_static_decimal    00509ca8     LIBCMT:lconv.obj
 0003:00025cac       ___lconv_c                 00509cac     LIBCMT:lconv.obj
 0003:00025cdc       ___lconv                   00509cdc     LIBCMT:lconv.obj
 0003:00025ce0       ___mb_cur_max              00509ce0     LIBCMT:nlsdata1.obj
 0003:00025ce4       ___decimal_point           00509ce4     LIBCMT:nlsdata1.obj
 0003:00025ce8       ___decimal_point_length    00509ce8     LIBCMT:nlsdata1.obj
 0003:00025cf4       __NLG_Destination          00509cf4     LIBCMT:exsup.obj
 0003:00025d38       __pow10pos                 00509d38     LIBCMT:_constpow_.obj
 0003:00025e98       __pow10neg                 00509e98     LIBCMT:_constpow_.obj
 0003:00025ff4       __matherr_flag             00509ff4     LIBCMT:_matherr_.obj
 0003:00025ff8       __coninpfh                 00509ff8     LIBCMT:initcon.obj
 0003:00025ffc       __confh                    00509ffc     LIBCMT:initcon.obj
 0003:0002df80       _sErrLogCtrl               00511f80     slog_ld:slog.obj
 0003:0002df84       _sNonStandardLogMode       00511f84     slog_ld:slog.obj
 0003:0002e238       _m_packed_data_algn_tbl    00512238     mmsl_ld:mms_tdef.obj
 0003:0002e33d       _gs_already_inited         0051233d     utility_ld:glbsem.obj
 0003:000361bc       ___fastflag                0051a1bc     LIBCMT:_fpinit_.obj
 0003:000361c0       __adjust_fdiv              0051a1c0     LIBCMT:_fpinit_.obj
 0003:000361c4       __umaskval                 0051a1c4     LIBCMT:crt0dat.obj
 0003:000361c8       ___argc                    0051a1c8     LIBCMT:crt0dat.obj
 0003:000361cc       ___argv                    0051a1cc     LIBCMT:crt0dat.obj
 0003:000361d0       ___wargv                   0051a1d0     LIBCMT:crt0dat.obj
 0003:000361d4       __environ                  0051a1d4     LIBCMT:crt0dat.obj
 0003:000361d8       ___initenv                 0051a1d8     LIBCMT:crt0dat.obj
 0003:000361dc       __wenviron                 0051a1dc     LIBCMT:crt0dat.obj
 0003:000361e0       ___winitenv                0051a1e0     LIBCMT:crt0dat.obj
 0003:000361e4       __pgmptr                   0051a1e4     LIBCMT:crt0dat.obj
 0003:000361e8       __wpgmptr                  0051a1e8     LIBCMT:crt0dat.obj
 0003:000361ec       __exitflag                 0051a1ec     LIBCMT:crt0dat.obj
 0003:000361f0       __C_Termination_Done       0051a1f0     LIBCMT:crt0dat.obj
 0003:000361f4       __C_Exit_Done              0051a1f4     LIBCMT:crt0dat.obj
 0003:0003620c       __cflush                   0051a20c     LIBCMT:_file.obj
 0003:00036210       __aenvptr                  0051a210     LIBCMT:crt0.obj
 0003:00036214       __wenvptr                  0051a214     LIBCMT:crt0.obj
 0003:00036218       ___error_mode              0051a218     LIBCMT:crt0.obj
 0003:00036228       ___pInvalidArgHandler      0051a228     LIBCMT:invarg.obj
 0003:00036564       __stdbuf                   0051a564     LIBCMT:_sftbuf.obj
 0003:00036570       ___mbulinfo                0051a570     LIBCMT:mbctype.obj
 0003:0003657c       ___mbcodepage              0051a57c     LIBCMT:mbctype.obj
 0003:00036580       ___ismbcodepage            0051a580     LIBCMT:mbctype.obj
 0003:00036584       ___mblcid                  0051a584     LIBCMT:mbctype.obj
 0003:00036588       ___locale_changed          0051a588     LIBCMT:setlocal.obj
 0003:0003658c       ___lc_handle               0051a58c     LIBCMT:nlsdata2.obj
 0003:000365a4       ___lc_codepage             0051a5a4     LIBCMT:nlsdata2.obj
 0003:000365a8       ___lc_collate_cp           0051a5a8     LIBCMT:nlsdata2.obj
 0003:000365ac       _gpFlsAlloc                0051a5ac     LIBCMT:tidtable.obj
 0003:000365b0       _gpFlsGetValue             0051a5b0     LIBCMT:tidtable.obj
 0003:000365b4       _gpFlsSetValue             0051a5b4     LIBCMT:tidtable.obj
 0003:000365b8       _gpFlsFree                 0051a5b8     LIBCMT:tidtable.obj
 0003:00036a28       ?__pInconsistency@@3P6AXXZA 0051aa28     LIBCMT:hooks.obj
 0003:00036a38       ___pPurecall               0051aa38     LIBCMT:inithelp.obj
 0003:00036a40       ?_pnhHeap@@3P6AHI@ZA       0051aa40     LIBCMT:handler.obj
 0003:00036a44       __maxwait                  0051aa44     LIBCMT:crtheap.obj
 0003:00036a48       ___sbh_pHeaderDefer        0051aa48     LIBCMT:sbheap.obj
 0003:00036a4c       __crtheap                  0051aa4c     LIBCMT:heapinit.obj
 0003:00036a50       __newmode                  0051aa50     LIBCMT:_newmode.obj
 0003:00036c38       __outputformat             0051ac38     LIBCMT:outputformat.obj
 0003:00036c40       ___lconv_static_null       0051ac40     LIBCMT:lconv.obj
 0003:00036c5c       __commode                  0051ac5c     LIBCMT:ncommode.obj
 0003:00036c60       __fmode                    0051ac60     LIBCMT:txtmode.obj
 0003:00036e20       _mvl_vmd                   0051ae20     <common>
 0003:00036e70       _mvl_type_ctrl             0051ae70     <common>
 0003:00036e74       _numMvlRtNames             0051ae74     <common>
 0003:00036e78       _mvl_num_types             0051ae78     <common>
 0003:00036e7c       _slogIpcCmdList            0051ae7c     <common>
 0003:00036ea0       _ma_clbind_ctrl            0051aea0     <common>
 0003:00036f48       _mvl_cfg_info              0051af48     <common>
 0003:00036f4c       _mvl_calling_conn_ctrl     0051af4c     <common>
 0003:00036f50       _num_rem_dib_entries       0051af50     <common>
 0003:00036f54       __mvlu_rpt_disconnect_rcvd_fun 0051af54     <common>
 0003:00036f58       _mvl_acse_ok               0051af58     <common>
 0003:00036f5c       _mvl_called_conn_ctrl      0051af5c     <common>
 0003:00036f60       __mvla_initiate_bc         0051af60     <common>
 0003:00036f80       _mvl_mms_statistics        0051af80     <common>
 0003:00037000       _loc_dib_table             0051b000     <common>
 0003:00037004       _num_loc_dib_entries       0051b004     <common>
 0003:00037008       _rem_dib_table             0051b008     <common>
 0003:0003700c       _mvlAssocIndList           0051b00c     <common>
 0003:00037010       _mvl_init_resp_info        0051b010     <common>
 0003:00037014       _mvl_init_ind_hold         0051b014     <common>
 0003:00037018       _u_mvl_disc_ind_fun        0051b018     <common>
 0003:0003701c       __mvla_initiate_locDe      0051b01c     <common>
 0003:00037020       _m_sv_max_write_data       0051b020     <common>
 0003:00037030       _m_sv_max_read_var_spec    0051b030     <common>
 0003:00037034       _mmsop_en_version1         0051b034     <common>
 0003:00037038       _m_sv_max_obj_name         0051b038     <common>
 0003:0003703c       _m_sv_max_file_names       0051b03c     <common>
 0003:00037040       _m_sv_max_write_var_spec   0051b040     <common>
 0003:00037044       _logCfgLogCtrlGroupList    0051b044     <common>
 0003:00037054       _logCfgLogMaskGroupList    0051b054     <common>
 0003:00037058       _logcfg_debug_sel          0051b058     <common>
 0003:0003705c       _doIt                      0051b05c     <common>
 0003:00037080       _retrans_curve             0051b080     <common>
 0003:000370dc       _retrans_event_sem         0051b0dc     <common>
 0003:000370e0       _sub_ctrl                  0051b0e0     <common>
 0003:000370f0       _pub_ctrl                  0051b0f0     <common>
 0003:000370f4       _iec_goose_usr_debug       0051b0f4     <common>
 0003:000370f8       _c_memerr_fun              0051b0f8     <common>
 0003:00037110       _m_memerr_fun              0051b110     <common>
 0003:00037114       _m_heap_check_enable       0051b114     <common>
 0003:00037118       _chk_curr_mem_size         0051b118     <common>
 0003:0003711c       _chk_max_mem_allocated     0051b11c     <common>
 0003:00037120       _m_find_node_enable        0051b120     <common>
 0003:00037121       _m_auto_hw_log             0051b121     <common>
 0003:00037122       _m_no_realloc_smaller      0051b122     <common>
 0003:00037124       _mem_chk_err               0051b124     <common>
 0003:00037128       _r_memerr_fun              0051b128     <common>
 0003:0003712c       _m_fill_byte               0051b12c     <common>
 0003:0003712d       _m_track_prev_free         0051b12d     <common>
 0003:00037130       _chk_debug_en              0051b130     <common>
 0003:00037134       _chk_max_dyn_mem_ptrs      0051b134     <common>
 0003:00037138       _m_bad_ptr_val             0051b138     <common>
 0003:0003713c       _m_pad_string              0051b13c     <common>
 0003:00037140       _m_num_pad_bytes           0051b140     <common>
 0003:00037144       _m_check_list_enable       0051b144     <common>
 0003:00037145       _m_fill_en                 0051b145     <common>
 0003:00037148       _chk_curr_mem_count        0051b148     <common>
 0003:0003714c       _u_mvl_rd_ind_start        0051b14c     <common>
 0003:0003715c       _u_mvl_rd_resp_sent        0051b15c     <common>
 0003:00037160       _u_mvl_wr_ind_start        0051b160     <common>
 0003:00037170       _u_mvl_wr_resp_sent        0051b170     <common>
 0003:00037174       _mvl61850_rpt_ctrl_list    0051b174     <common>
 0003:00037184       _mvlu_rpt_ctrl_list        0051b184     <common>
 0003:00037188       _mvlu_rpt_scan_list        0051b188     <common>
 0003:0003718c       _u_mvl_wr_ind_var_end      0051b18c     <common>
 0003:0003719c       _u_mvlu_leaf_rd_ind_fun    0051b19c     <common>
 0003:000371a0       _u_mvl_wr_ind_var_start    0051b1a0     <common>
 0003:000371a4       _u_mvlu_leaf_wr_ind_fun    0051b1a4     <common>
 0003:000371c0       _sbo_pool                  0051b1c0     <common>
 0003:000379c0       _mvl_max_dyn               0051b9c0     <common>
 0003:000379f4       _u_mvl_nvl_destroy         0051b9f4     <common>
 0003:00037a04       _u_mvl_jou_destroy         0051ba04     <common>
 0003:00037a08       _u_mvl_dom_destroy         0051ba08     <common>
 0003:00037a0c       _u_mvl_var_destroy         0051ba0c     <common>
 0003:00037a10       __mvl_comm_serve_active    0051ba10     <common>
 0003:00037a1a       _mvl_conn_filtered_logging 0051ba1a     <common>
 0003:00037a1b       __mvl_persist_aa_objs      0051ba1b     <common>
 0003:00037a1c       _u_mvl_check_timeout       0051ba1c     <common>
 0003:00037a20       _rcb_name_no_index         0051ba20     <common>
 0003:00037a2b       _scl_debug_mode            0051ba2b     <common>
 0003:00037a2c       _scl_debug_mode_error_count 0051ba2c     <common>
 0003:00037a30       _scl2_btype_list           0051ba30     <common>
 0003:00037a34       _mvl_obj_nosort            0051ba34     <common>
 0003:00037a40       _qMemElemSize              0051ba40     <common>
 0003:00037a4c       _slog_service_fun          0051ba4c     <common>
 0003:00037a64       __slog_remote_fun          0051ba64     <common>
 0003:00037a68       __slog_dyn_log_fun         0051ba68     <common>
 0003:00037a80       _slogTimeText              0051ba80     <common>
 0003:00037aa0       _slog_dyn_log_fun          0051baa0     <common>
 0003:00037aa4       _slog_remote_fun           0051baa4     <common>
 0003:00037aa8       _slogRemoteFlags           0051baa8     <common>
 0003:00037aac       _u_rt_type_process         0051baac     <common>
 0003:00037ab8       _ml_log_unsol_req_info_fun 0051bab8     <common>
 0003:00037acc       _ml_log_req_info_fun       0051bacc     <common>
 0003:00037ad0       _ml_log_unsol_ind_info_fun 0051bad0     <common>
 0003:00037ad4       _ml_log_resp_info_fun      0051bad4     <common>
 0003:00037ad8       _ml_log_error_resp_fun     0051bad8     <common>
 0003:00037adc       _ml_log_conf_info_fun      0051badc     <common>
 0003:00037ae0       _ml_log_ind_info_fun       0051bae0     <common>
 0003:00037ae4       _ml_log_reject_send_fun    0051bae4     <common>
 0003:00037ae8       _ml_log_error_conf_fun     0051bae8     <common>
 0003:00037aec       _ml_log_reject_recv_fun    0051baec     <common>
 0003:00037af0       _m_free_os_fun             0051baf0     <common>
 0003:00037b00       _m_calloc_os_fun           0051bb00     <common>
 0003:00037b04       _m_realloc_os_fun          0051bb04     <common>
 0003:00037b10       _cs_send                   0051bb10     <common>
 0003:00037b40       _mmsl_enc_buf              0051bb40     <common>
 0003:00037b44       __mmsdec_msglen            0051bb44     <common>
 0003:00037b48       __mms_dec_info_pres        0051bb48     <common>
 0003:00037b49       _cs_send_reset_val         0051bb49     <common>
 0003:00037b4c       _mmsl_dec_info_size        0051bb4c     <common>
 0003:00037b60       _adtnl_err_info            0051bb60     <common>
 0003:00037b94       _m_hw_rt_aa_ctrl           0051bb94     <common>
 0003:00037b98       __mmsdec_rslt              0051bb98     <common>
 0003:00037b9c       __mms_dec_info             0051bb9c     <common>
 0003:00037ba0       __mmsdec_msgptr            0051bba0     <common>
 0003:00037ba4       _m_alt_acc_packed          0051bba4     <common>
 0003:00037ba8       _m_hw_dec_aa               0051bba8     <common>
 0003:00037bac       _mms_op_err                0051bbac     <common>
 0003:00037bb0       _m_use_dis_float           0051bbb0     <common>
 0003:00037bb4       _mmsl_msg_len              0051bbb4     <common>
 0003:00037bb8       _mmsl_enc_buf_size         0051bbb8     <common>
 0003:00037bbc       _mmsl_msg_start            0051bbbc     <common>
 0003:00037bc0       _modifier_list             0051bbc0     <common>
 0003:00037bcc       _sxLogOverrunAsFlow        0051bbcc     <common>
 0003:00037bd5       _sxUseFormatting           0051bbd5     <common>
 0003:00037bd6       _sxUseSax                  0051bbd6     <common>
 0003:00037bdf       _sxIgnoreNS                0051bbdf     <common>
 0003:00037be0       _gs_hwEventTime            0051bbe0     <common>
 0003:00037e2c       _gs_track                  0051be2c     <common>
 0003:00037e40       _gs_currSemOwnerFile       0051be40     <common>
 0003:00038360       _gs_currSemOwnerLine       0051c360     <common>
 0003:000383c0       _gs_currSemFreeLine        0051c3c0     <common>
 0003:00038410       _gs_hwMutexTime            0051c410     <common>
 0003:00038420       _gs_util_mutex             0051c420     <common>
 0003:00038444       _gs_currSemOwnerIndex      0051c444     <common>
 0003:00038460       _gs_currSemFreeFile        0051c460     <common>
 0003:00038980       _gs_glb_mutex              0051c980     <common>
 0003:000389a4       _sockCtxList               0051c9a4     <common>
 0003:000389b4       _sock_debug_sel            0051c9b4     <common>
 0003:000389b8       _sxdDefXmlStyle            0051c9b8     <common>
 0003:000389c4       _list_debug_sel            0051c9c4     <common>
 0003:000389d0       _pdv_data_ptr              0051c9d0     <common>
 0003:000389e0       _pdv_data_len              0051c9e0     <common>
 0003:000389e4       _p_user_data_is_outer      0051c9e4     <common>
 0003:000389e5       _expected_pdv_pci          0051c9e5     <common>
 0003:000389e8       _decode_acse_conn          0051c9e8     <common>
 0003:000389f4       _cltp_decode_nsdu_fun      0051c9f4     <common>
 0003:00038a00       _clnpl_invalid_mac_handler 0051ca00     <common>
 0003:00038a10       _es_is_config_resp_disable 0051ca10     <common>
 0003:00038a14       _clnp_snet_read_hook_ptr   0051ca14     <common>
 0003:00038a20       _session_cfg               0051ca20     <common>
 0003:00038a30       _cosp_only_ssel            0051ca30     <common>
 0003:00038a38       _tp4RetransCount           0051ca38     <common>
 0003:00038a4c       _tp_conn_arr               0051ca4c     <common>
 0003:00038a50       _only_loc_tsap             0051ca50     <common>
 0003:00038a58       _only_user_bind_id         0051ca58     <common>
 0003:00038a60       _tp_cfg                    0051ca60     <common>
 0003:00038a70       _only_loc_psel             0051ca70     <common>
 0003:00038a7e       _copp_bind_called          0051ca7e     <common>
 0003:00038a80       _audt_msgsize              0051ca80     <common>
 0003:00038aa0       _clnp_param                0051caa0     <common>
 0003:00038adc       _clnp_read_fun_co          0051cadc     <common>
 0003:00038ae0       _hMainEvent                0051cae0     <common>
 0003:00038ae4       _clnp_read_fun_cl          0051cae4     <common>
 0003:00038ae8       _adhandle                  0051cae8     <common>
 0003:00038af8       _hMMSEvent                 0051caf8     <common>
 0003:00038afc       _netmask                   0051cafc     <common>
 0003:00038b00       _acse_msgsize              0051cb00     <common>
 0003:00038b10       _cosp_buf                  0051cb10     <common>
 0003:00038b14       _cosp_msgsize              0051cb14     <common>
 0003:00038b18       __debugger_hook_dummy      0051cb18     <common>
 0003:00038b24       ___active_heap             0051cb24     <common>
 0003:00038b30       ___sbh_initialized         0051cb30     <common>
 0003:00038b44       ___sbh_cntHeaderList       0051cb44     <common>
 0003:00038b48       ___sbh_pHeaderList         0051cb48     <common>
 0003:00038b4c       ___sbh_threshold           0051cb4c     <common>
 0003:00038b50       ___sbh_pHeaderScan         0051cb50     <common>
 0003:00038b54       ___sbh_sizeHeaderList      0051cb54     <common>
 0003:00038b58       ___sbh_indGroupDefer       0051cb58     <common>
 0003:00038b5c       __nhandle                  0051cb5c     <common>
 0003:00038ba0       ___pioinfo                 0051cba0     <common>
 0003:00038ca0       ___setlc_active            0051cca0     <common>
 0003:00038cb0       ___unguarded_readlc_active 0051ccb0     <common>
 0003:00038cb4       ___sse2_available          0051ccb4     <common>
 0003:00038cc0       __pDestructExceptionObject 0051ccc0     <common>
 0003:00038ccc       __acmdln                   0051cccc     <common>
 0003:00038cd8       ___piob                    0051ccd8     <common>
 0003:00039020       __bufin                    0051d020     <common>
 0003:0003a020       __nstream                  0051e020     <common>
 0003:0003a024       ___env_initialized         0051e024     <common>
 0003:0003a034       ___onexitend               0051e034     <common>
 0003:0003a038       ___onexitbegin             0051e038     <common>
 0003:0003a03c       ___mbctype_initialized     0051e03c     <common>
 0003:0003a040       ___dyn_tls_init_callback   0051e040     <common>
 0004:00000000       __IMPORT_DESCRIPTOR_WS2_32 0051f000     ws2_32:WS2_32.dll
 0004:00000014       __IMPORT_DESCRIPTOR_WINMM  0051f014     winmm:WINMM.dll
 0004:00000028       __IMPORT_DESCRIPTOR_wpcap  0051f028     wpcap:wpcap.dll
 0004:0000003c       __IMPORT_DESCRIPTOR_packet 0051f03c     Packet:packet.dll
 0004:00000050       __IMPORT_DESCRIPTOR_KERNEL32 0051f050     kernel32:KERNEL32.dll
 0004:00000064       __IMPORT_DESCRIPTOR_ADVAPI32 0051f064     advapi32:ADVAPI32.dll
 0004:00000078       __NULL_IMPORT_DESCRIPTOR   0051f078     ws2_32:WS2_32.dll
 0004:0000046c       __imp__InitializeSecurityDescriptor@8 0051f46c     advapi32:ADVAPI32.dll
 0004:00000470       __imp__SetSecurityDescriptorDacl@16 0051f470     advapi32:ADVAPI32.dll
 0004:00000474       \177ADVAPI32_NULL_THUNK_DATA 0051f474     advapi32:ADVAPI32.dll
 0004:000004a0       __imp__SetEnvironmentVariableA@8 0051f4a0     kernel32:KERNEL32.dll
 0004:000004a4       __imp__CompareStringW@24   0051f4a4     kernel32:KERNEL32.dll
 0004:000004a8       __imp__CompareStringA@24   0051f4a8     kernel32:KERNEL32.dll
 0004:000004ac       __imp__GetProcessHeap@0    0051f4ac     kernel32:KERNEL32.dll
 0004:000004b0       __imp__SetEndOfFile@4      0051f4b0     kernel32:KERNEL32.dll
 0004:000004b4       __imp__CreateFileA@28      0051f4b4     kernel32:KERNEL32.dll
 0004:000004b8       __imp__GetConsoleOutputCP@0 0051f4b8     kernel32:KERNEL32.dll
 0004:000004bc       __imp__WriteConsoleA@20    0051f4bc     kernel32:KERNEL32.dll
 0004:000004c0       __imp__GetLocaleInfoW@16   0051f4c0     kernel32:KERNEL32.dll
 0004:000004c4       __imp__HeapSize@12         0051f4c4     kernel32:KERNEL32.dll
 0004:000004c8       __imp__IsValidLocale@8     0051f4c8     kernel32:KERNEL32.dll
 0004:000004cc       __imp__EnumSystemLocalesA@8 0051f4cc     kernel32:KERNEL32.dll
 0004:000004d0       __imp__GetUserDefaultLCID@0 0051f4d0     kernel32:KERNEL32.dll
 0004:000004d4       __imp__GetStringTypeW@16   0051f4d4     kernel32:KERNEL32.dll
 0004:000004d8       __imp__GetStringTypeA@20   0051f4d8     kernel32:KERNEL32.dll
 0004:000004dc       __imp__SetFilePointer@16   0051f4dc     kernel32:KERNEL32.dll
 0004:000004e0       __imp__FlushFileBuffers@4  0051f4e0     kernel32:KERNEL32.dll
 0004:000004e4       __imp__GetCurrentProcessId@0 0051f4e4     kernel32:KERNEL32.dll
 0004:000004e8       __imp__GetTickCount@0      0051f4e8     kernel32:KERNEL32.dll
 0004:000004ec       __imp__GetEnvironmentStringsW@0 0051f4ec     kernel32:KERNEL32.dll
 0004:000004f0       __imp__FreeEnvironmentStringsW@4 0051f4f0     kernel32:KERNEL32.dll
 0004:000004f4       __imp__GetEnvironmentStrings@0 0051f4f4     kernel32:KERNEL32.dll
 0004:000004f8       __imp__FreeEnvironmentStringsA@4 0051f4f8     kernel32:KERNEL32.dll
 0004:000004fc       __imp__SetStdHandle@8      0051f4fc     kernel32:KERNEL32.dll
 0004:00000500       __imp__ReadFile@20         0051f500     kernel32:KERNEL32.dll
 0004:00000504       __imp__RtlUnwind@16        0051f504     kernel32:KERNEL32.dll
 0004:00000508       __imp__GetConsoleMode@8    0051f508     kernel32:KERNEL32.dll
 0004:0000050c       __imp__GetConsoleCP@0      0051f50c     kernel32:KERNEL32.dll
 0004:00000510       __imp__HeapDestroy@4       0051f510     kernel32:KERNEL32.dll
 0004:00000514       __imp__HeapCreate@12       0051f514     kernel32:KERNEL32.dll
 0004:00000518       __imp__VirtualAlloc@16     0051f518     kernel32:KERNEL32.dll
 0004:0000051c       __imp__VirtualFree@12      0051f51c     kernel32:KERNEL32.dll
 0004:00000520       __imp__GetStartupInfoA@4   0051f520     kernel32:KERNEL32.dll
 0004:00000524       __imp__SetHandleCount@4    0051f524     kernel32:KERNEL32.dll
 0004:00000528       __imp__InitializeCriticalSectionAndSpinCount@8 0051f528     kernel32:KERNEL32.dll
 0004:0000052c       __imp__LoadLibraryA@4      0051f52c     kernel32:KERNEL32.dll
 0004:00000530       __imp__InterlockedExchange@8 0051f530     kernel32:KERNEL32.dll
 0004:00000534       __imp__FreeLibrary@4       0051f534     kernel32:KERNEL32.dll
 0004:00000538       __imp__GetLocalTime@4      0051f538     kernel32:KERNEL32.dll
 0004:0000053c       __imp__QueryPerformanceCounter@4 0051f53c     kernel32:KERNEL32.dll
 0004:00000540       __imp__QueryPerformanceFrequency@4 0051f540     kernel32:KERNEL32.dll
 0004:00000544       __imp__InitializeCriticalSection@4 0051f544     kernel32:KERNEL32.dll
 0004:00000548       __imp__GetLastError@0      0051f548     kernel32:KERNEL32.dll
 0004:0000054c       __imp__CreateMutexA@12     0051f54c     kernel32:KERNEL32.dll
 0004:00000550       __imp__LocalFree@4         0051f550     kernel32:KERNEL32.dll
 0004:00000554       __imp__LocalAlloc@8        0051f554     kernel32:KERNEL32.dll
 0004:00000558       __imp__GetCurrentThreadId@0 0051f558     kernel32:KERNEL32.dll
 0004:0000055c       __imp__EnterCriticalSection@4 0051f55c     kernel32:KERNEL32.dll
 0004:00000560       __imp__ReleaseMutex@4      0051f560     kernel32:KERNEL32.dll
 0004:00000564       __imp__LeaveCriticalSection@4 0051f564     kernel32:KERNEL32.dll
 0004:00000568       __imp__CloseHandle@4       0051f568     kernel32:KERNEL32.dll
 0004:0000056c       __imp__DeleteCriticalSection@4 0051f56c     kernel32:KERNEL32.dll
 0004:00000570       __imp__CreateEventA@16     0051f570     kernel32:KERNEL32.dll
 0004:00000574       __imp__WaitForSingleObject@8 0051f574     kernel32:KERNEL32.dll
 0004:00000578       __imp__WaitForMultipleObjects@16 0051f578     kernel32:KERNEL32.dll
 0004:0000057c       __imp__SetEvent@4          0051f57c     kernel32:KERNEL32.dll
 0004:00000580       __imp__PulseEvent@4        0051f580     kernel32:KERNEL32.dll
 0004:00000584       __imp__ResetEvent@4        0051f584     kernel32:KERNEL32.dll
 0004:00000588       __imp__RaiseException@16   0051f588     kernel32:KERNEL32.dll
 0004:0000058c       __imp__GetVersionExA@4     0051f58c     kernel32:KERNEL32.dll
 0004:00000590       __imp__FormatMessageA@28   0051f590     kernel32:KERNEL32.dll
 0004:00000594       __imp__Sleep@4             0051f594     kernel32:KERNEL32.dll
 0004:00000598       __imp__FileTimeToSystemTime@8 0051f598     kernel32:KERNEL32.dll
 0004:0000059c       __imp__SystemTimeToFileTime@8 0051f59c     kernel32:KERNEL32.dll
 0004:000005a0       __imp__GetSystemTimeAsFileTime@4 0051f5a0     kernel32:KERNEL32.dll
 0004:000005a4       __imp__FileTimeToLocalFileTime@8 0051f5a4     kernel32:KERNEL32.dll
 0004:000005a8       __imp__LocalFileTimeToFileTime@8 0051f5a8     kernel32:KERNEL32.dll
 0004:000005ac       __imp__GetLocaleInfoA@16   0051f5ac     kernel32:KERNEL32.dll
 0004:000005b0       __imp__WriteConsoleW@20    0051f5b0     kernel32:KERNEL32.dll
 0004:000005b4       __imp__GetFileType@4       0051f5b4     kernel32:KERNEL32.dll
 0004:000005b8       __imp__GetStdHandle@4      0051f5b8     kernel32:KERNEL32.dll
 0004:000005bc       __imp__GetModuleFileNameW@12 0051f5bc     kernel32:KERNEL32.dll
 0004:000005c0       __imp__GetModuleHandleW@4  0051f5c0     kernel32:KERNEL32.dll
 0004:000005c4       __imp__GetProcAddress@8    0051f5c4     kernel32:KERNEL32.dll
 0004:000005c8       __imp__ExitProcess@4       0051f5c8     kernel32:KERNEL32.dll
 0004:000005cc       __imp__SetConsoleCtrlHandler@8 0051f5cc     kernel32:KERNEL32.dll
 0004:000005d0       __imp__HeapAlloc@12        0051f5d0     kernel32:KERNEL32.dll
 0004:000005d4       __imp__HeapFree@12         0051f5d4     kernel32:KERNEL32.dll
 0004:000005d8       __imp__GetFileInformationByHandle@8 0051f5d8     kernel32:KERNEL32.dll
 0004:000005dc       __imp__PeekNamedPipe@24    0051f5dc     kernel32:KERNEL32.dll
 0004:000005e0       __imp__GetCommandLineA@0   0051f5e0     kernel32:KERNEL32.dll
 0004:000005e4       __imp__HeapReAlloc@16      0051f5e4     kernel32:KERNEL32.dll
 0004:000005e8       __imp__DeleteFileA@4       0051f5e8     kernel32:KERNEL32.dll
 0004:000005ec       __imp__ExitThread@4        0051f5ec     kernel32:KERNEL32.dll
 0004:000005f0       __imp__CreateThread@24     0051f5f0     kernel32:KERNEL32.dll
 0004:000005f4       __imp__GetTimeFormatA@24   0051f5f4     kernel32:KERNEL32.dll
 0004:000005f8       __imp__GetDateFormatA@24   0051f5f8     kernel32:KERNEL32.dll
 0004:000005fc       __imp__GetTimeZoneInformation@4 0051f5fc     kernel32:KERNEL32.dll
 0004:00000600       __imp__TerminateProcess@8  0051f600     kernel32:KERNEL32.dll
 0004:00000604       __imp__GetCurrentProcess@0 0051f604     kernel32:KERNEL32.dll
 0004:00000608       __imp__UnhandledExceptionFilter@4 0051f608     kernel32:KERNEL32.dll
 0004:0000060c       __imp__SetUnhandledExceptionFilter@4 0051f60c     kernel32:KERNEL32.dll
 0004:00000610       __imp__IsDebuggerPresent@0 0051f610     kernel32:KERNEL32.dll
 0004:00000614       __imp__LoadLibraryW@4      0051f614     kernel32:KERNEL32.dll
 0004:00000618       __imp__GetModuleHandleA@4  0051f618     kernel32:KERNEL32.dll
 0004:0000061c       __imp__GetCPInfo@8         0051f61c     kernel32:KERNEL32.dll
 0004:00000620       __imp__InterlockedIncrement@4 0051f620     kernel32:KERNEL32.dll
 0004:00000624       __imp__InterlockedDecrement@4 0051f624     kernel32:KERNEL32.dll
 0004:00000628       __imp__GetACP@0            0051f628     kernel32:KERNEL32.dll
 0004:0000062c       __imp__GetOEMCP@0          0051f62c     kernel32:KERNEL32.dll
 0004:00000630       __imp__IsValidCodePage@4   0051f630     kernel32:KERNEL32.dll
 0004:00000634       __imp__TlsGetValue@4       0051f634     kernel32:KERNEL32.dll
 0004:00000638       __imp__TlsAlloc@0          0051f638     kernel32:KERNEL32.dll
 0004:0000063c       __imp__TlsSetValue@8       0051f63c     kernel32:KERNEL32.dll
 0004:00000640       __imp__TlsFree@4           0051f640     kernel32:KERNEL32.dll
 0004:00000644       __imp__SetLastError@4      0051f644     kernel32:KERNEL32.dll
 0004:00000648       __imp__GetCurrentThread@0  0051f648     kernel32:KERNEL32.dll
 0004:0000064c       __imp__LCMapStringA@24     0051f64c     kernel32:KERNEL32.dll
 0004:00000650       __imp__WideCharToMultiByte@32 0051f650     kernel32:KERNEL32.dll
 0004:00000654       __imp__MultiByteToWideChar@24 0051f654     kernel32:KERNEL32.dll
 0004:00000658       __imp__LCMapStringW@24     0051f658     kernel32:KERNEL32.dll
 0004:0000065c       __imp__WriteFile@20        0051f65c     kernel32:KERNEL32.dll
 0004:00000660       __imp__GetModuleFileNameA@12 0051f660     kernel32:KERNEL32.dll
 0004:00000664       __imp__FatalAppExitA@8     0051f664     kernel32:KERNEL32.dll
 0004:00000668       \177KERNEL32_NULL_THUNK_DATA 0051f668     kernel32:KERNEL32.dll
 0004:000006ec       __imp__timeGetTime@0       0051f6ec     winmm:WINMM.dll
 0004:000006f0       \177WINMM_NULL_THUNK_DATA  0051f6f0     winmm:WINMM.dll
 0004:0000071c       __imp__ioctlsocket@12      0051f71c     ws2_32:WS2_32.dll
 0004:00000720       __imp__accept@12           0051f720     ws2_32:WS2_32.dll
 0004:00000724       __imp__ntohs@4             0051f724     ws2_32:WS2_32.dll
 0004:00000728       __imp__inet_ntoa@4         0051f728     ws2_32:WS2_32.dll
 0004:0000072c       __imp____WSAFDIsSet@8      0051f72c     ws2_32:WS2_32.dll
 0004:00000730       __imp__getsockopt@20       0051f730     ws2_32:WS2_32.dll
 0004:00000734       __imp__recv@16             0051f734     ws2_32:WS2_32.dll
 0004:00000738       __imp__select@20           0051f738     ws2_32:WS2_32.dll
 0004:0000073c       __imp__send@16             0051f73c     ws2_32:WS2_32.dll
 0004:00000740       __imp__bind@12             0051f740     ws2_32:WS2_32.dll
 0004:00000744       __imp__setsockopt@20       0051f744     ws2_32:WS2_32.dll
 0004:00000748       __imp__socket@12           0051f748     ws2_32:WS2_32.dll
 0004:0000074c       __imp__WSAGetLastError@0   0051f74c     ws2_32:WS2_32.dll
 0004:00000750       __imp__inet_addr@4         0051f750     ws2_32:WS2_32.dll
 0004:00000754       __imp__gethostbyname@4     0051f754     ws2_32:WS2_32.dll
 0004:00000758       __imp__htons@4             0051f758     ws2_32:WS2_32.dll
 0004:0000075c       __imp__connect@12          0051f75c     ws2_32:WS2_32.dll
 0004:00000760       __imp__closesocket@4       0051f760     ws2_32:WS2_32.dll
 0004:00000764       __imp__WSAStartup@8        0051f764     ws2_32:WS2_32.dll
 0004:00000768       __imp__htonl@4             0051f768     ws2_32:WS2_32.dll
 0004:0000076c       __imp__ntohl@4             0051f76c     ws2_32:WS2_32.dll
 0004:00000770       __imp__listen@8            0051f770     ws2_32:WS2_32.dll
 0004:00000774       __imp__getpeername@12      0051f774     ws2_32:WS2_32.dll
 0004:00000778       \177WS2_32_NULL_THUNK_DATA 0051f778     ws2_32:WS2_32.dll
 0004:000007b4       __imp__PacketRequest       0051f7b4     Packet:packet.dll
 0004:000007b8       __imp__PacketCloseAdapter  0051f7b8     Packet:packet.dll
 0004:000007bc       __imp__PacketOpenAdapter   0051f7bc     Packet:packet.dll
 0004:000007c0       \177packet_NULL_THUNK_DATA 0051f7c0     Packet:packet.dll
 0004:000007ec       __imp__pcap_next           0051f7ec     wpcap:wpcap.dll
 0004:000007f0       __imp__pcap_findalldevs    0051f7f0     wpcap:wpcap.dll
 0004:000007f4       __imp__pcap_open_live      0051f7f4     wpcap:wpcap.dll
 0004:000007f8       __imp__pcap_setfilter      0051f7f8     wpcap:wpcap.dll
 0004:000007fc       __imp__pcap_setnonblock    0051f7fc     wpcap:wpcap.dll
 0004:00000800       __imp__pcap_getevent       0051f800     wpcap:wpcap.dll
 0004:00000804       __imp__pcap_setmintocopy   0051f804     wpcap:wpcap.dll
 0004:00000808       __imp__pcap_compile        0051f808     wpcap:wpcap.dll
 0004:0000080c       __imp__pcap_geterr         0051f80c     wpcap:wpcap.dll
 0004:00000810       __imp__pcap_freealldevs    0051f810     wpcap:wpcap.dll
 0004:00000814       __imp__pcap_sendpacket     0051f814     wpcap:wpcap.dll
 0004:00000818       \177wpcap_NULL_THUNK_DATA  0051f818     wpcap:wpcap.dll

 entry point at        0001:0008be76

