 sositcps0_ld

 Timestamp is 4f8c002d (Mon Apr 16 19:19:09 2012)

 Preferred load address is 00400000

 Start         Length     Name                   Class
 0001:00000000 000abeaeH .text                   CODE
 0002:00000000 00000104H .CRT$XCA                DATA
 0002:00000104 00000104H .CRT$XCZ                DATA
 0002:00000208 00000104H .CRT$XIA                DATA
 0002:0000030c 00000113H .CRT$XIC                DATA
 0002:00000420 00000104H .CRT$XIY                DATA
 0002:00000524 00000104H .CRT$XIZ                DATA
 0002:00000628 00000104H .CRT$XPA                DATA
 0002:0000072c 00000104H .CRT$XPX                DATA
 0002:00000830 00000104H .CRT$XPXA               DATA
 0002:00000934 00000104H .CRT$XPZ                DATA
 0002:00000a38 00000104H .CRT$XTA                DATA
 0002:00000b3c 00000104H .CRT$XTZ                DATA
 0002:00000c40 000034d2H .rdata                  DATA
 0002:00004114 00000174H .rdata$debug            DATA
 0002:00004290 0000010eH .rdata$sxdata           DATA
 0002:000043a0 00000104H .rtc$IAA                DATA
 0002:000044a4 00000104H .rtc$IMZ                DATA
 0002:000045a8 00000104H .rtc$IZZ                DATA
 0002:000046ac 00000104H .rtc$TAA                DATA
 0002:000047b0 00000104H .rtc$TMZ                DATA
 0002:000048b4 00000104H .rtc$TZZ                DATA
 0002:000049b8 00000cdeH .xdata$x                DATA
 0002:00005696 00000000H .edata                  DATA
 0003:00000000 0001df0eH .data                   DATA
 0003:0001df20 000041e4H .bss                    DATA
 0004:00000000 00000050H .idata$2                DATA
 0004:00000050 00000014H .idata$3                DATA
 0004:00000064 00000368H .idata$4                DATA
 0004:000003cc 00000368H .idata$5                DATA
 0004:00000734 00000af3H .idata$6                DATA
 0005:00000000 00000169H .rsrc$01                DATA
 0005:00000170 000001b6H .rsrc$02                DATA

  Address         Publics by Value              Rva+Base       Lib:Object

 0000:00000000       __except_list              00000000     <absolute>
 0000:00000003       ___safe_se_handler_count   00000003     <absolute>
 0000:00000000       ___ImageBase               00400000     <linker-defined>
 0001:00000420       _wait_any_event            00401420 f   event.obj
 0001:000004a0       _logCfgAddMaskGroup        004014a0 f   logcfgx.obj
 0001:000004d0       _logCfgRemoveMaskGroup     004014d0 f   logcfgx.obj
 0001:00000500       _logCfgRemoveAllMaskGroups 00401500 f   logcfgx.obj
 0001:00000510       __logcfg_save_logmasks     00401510 f   logcfgx.obj
 0001:000005d0       __logcfg_get_logmasks      004015d0 f   logcfgx.obj
 0001:000007c0       __logcfg_get_logmasks_size 004017c0 f   logcfgx.obj
 0001:000008b0       _logCfgFindTagValPath      004018b0 f   logcfgx.obj
 0001:00000900       _logCfgFindTagVal          00401900 f   logcfgx.obj
 0001:00000970       _logCfgClearTagVals        00401970 f   logcfgx.obj
 0001:000009f0       _logcfgx_ex                004019f0 f   logcfgx.obj
 0001:00000a20       _logcfgx_exx               00401a20 f   logcfgx.obj
 0001:000028c0       _slog_ipc_std_cmd_service  004038c0 f   logcfgx.obj
 0001:000028f0       _slog_ipc_std_cmd_service_ex 004038f0 f   logcfgx.obj
 0001:00003740       __mvl_net_service          00404740 f   mvl_acse.obj
 0001:00003830       __mvl_free_comm_event      00404830 f   mvl_acse.obj
 0001:000038d0       _mvl_set_max_msg_size      004048d0 f   mvl_acse.obj
 0001:00003930       _mvl_start_acse            00404930 f   mvl_acse.obj
 0001:00003e50       _mvl_end_acse              00404e50 f   mvl_acse.obj
 0001:00004060       __mvl_send_msg             00405060 f   mvl_acse.obj
 0001:000041c0       _find_loc_dib_entry        004051c0 f   mvl_acse.obj
 0001:00004220       _find_rem_dib_entry        00405220 f   mvl_acse.obj
 0001:00004280       _mvl_dib_entry_to_app_ref  00405280 f   mvl_acse.obj
 0001:00004340       _mvla_set_init_ar          00405340 f   mvl_acse.obj
 0001:000043c0       _mvl_abort_req             004053c0 f   mvl_acse.obj
 0001:000043e0       _mvl_abort_req_ex          004053e0 f   mvl_acse.obj
 0001:000044e0       _mvl_release_req           004054e0 f   mvl_acse.obj
 0001:00004520       _mvla_release_req          00405520 f   mvl_acse.obj
 0001:00004560       __mvl_release              00405560 f   mvl_acse.obj
 0001:00004640       _mvl_add_bind_ctrl         00405640 f   mvl_acse.obj
 0001:00004bd0       _u_copp_bind_cnf           00405bd0 f   mvl_acse.obj
 0001:00004c10       _u_copp_unbind_cnf         00405c10 f   mvl_acse.obj
 0001:00004c30       _u_a_associate_ind         00405c30 f   mvl_acse.obj
 0001:000053d0       _u_a_associate_cnf         004063d0 f   mvl_acse.obj
 0001:000053e0       _u_a_data_ind              004063e0 f   mvl_acse.obj
 0001:00005630       _u_a_release_ind           00406630 f   mvl_acse.obj
 0001:00005720       _u_a_abort_ind             00406720 f   mvl_acse.obj
 0001:00005840       _u_a_release_cnf           00406840 f   mvl_acse.obj
 0001:00005940       _u_a_except                00406940 f   mvl_acse.obj
 0001:00005ac0       _mvl_aa_resize             00406ac0 f   mvl_acse.obj
 0001:00005c00       __mvl_clear_aa_objs        00406c00 f   mvl_acse.obj
 0001:00005d00       _mvl_aa_resize_conn        00406d00 f   mvl_acse.obj
 0001:00005e30       _mvl_match_remote_ar       00406e30 f   mvl_acse.obj
 0001:00005e50       _mvl_match_local_ar        00406e50 f   mvl_acse.obj
 0001:00005e70       _mvl_cmp_local_addr        00406e70 f   mvl_acse.obj
 0001:00005e90       _mvl_cmp_remote_addr       00406e90 f   mvl_acse.obj
 0001:00005eb0       _mvl_net_info_to_chan      00406eb0 f   mvl_acse.obj
 0001:000068a0       _mvl_cancel_ind_rcvd       004078a0 f   MVLOP_EN.obj
 0001:000068c0       _mvl_concl_ind_rcvd        004078c0 f   MVLOP_EN.obj
 0001:000068e0       _mvl_concl_conf_rcvd       004078e0 f   MVLOP_EN.obj
 0001:00006900       _mvl_ind_rcvd              00407900 f   MVLOP_EN.obj
 0001:00006c40       _mvl_conf_rcvd             00407c40 f   MVLOP_EN.obj
 0001:00006db0       __mvl_tmpnam               00407db0 f   MVLOP_EN.obj
 0001:00006ee0       __mvl_getpath              00407ee0 f   MVLOP_EN.obj
 0001:00007110       _u_mvl_reject_ind          00408110 f   reject.obj
 0001:00007250       _main                      00408250 f   server.obj
 0001:000074b0       _ctrlCfun                  004084b0 f   server.obj
 0001:000078c0       _preReadCurrMemCount       004088c0 f   server.obj
 0001:000078f0       _preReadMaxDynMemPtrs      004088f0 f   server.obj
 0001:00007920       _preReadMaxMemAllocated    00408920 f   server.obj
 0001:00007950       _preReadCurrMemSize        00408950 f   server.obj
 0001:00008310       _preReadAA                 00409310 f   server.obj
 0001:00008490       _postReadAA                00409490 f   server.obj
 0001:000084d0       _procWriteAA               004094d0 f   server.obj
 0001:00008570       _preWriteAA                00409570 f   server.obj
 0001:00008580       _postWriteAA               00409580 f   server.obj
 0001:00008620       _u_mvl_read_ind            00409620 f   server.obj
 0001:00008700       _u_mvl_write_ind           00409700 f   server.obj
 0001:000087d0       _u_mvl_info_rpt_ind        004097d0 f   server.obj
 0001:000089a0       _u_mvl_jread_ind           004099a0 f   server.obj
 0001:000089c0       _u_mvl_ident_ind           004099c0 f   server.obj
 0001:000089e0       _u_mvl_status_ind          004099e0 f   server.obj
 0001:00008a00       _u_mvl_namelist_ind        00409a00 f   server.obj
 0001:00008a20       _u_mvl_getvar_ind          00409a20 f   server.obj
 0001:00008a40       _u_mvl_getdom_ind          00409a40 f   server.obj
 0001:00008a60       _u_mvl_fopen_ind           00409a60 f   server.obj
 0001:00008b90       _u_mvl_fread_ind           00409b90 f   server.obj
 0001:00008c60       _u_mvl_fclose_ind          00409c60 f   server.obj
 0001:00008cf0       _u_mvl_fdir_ind            00409cf0 f   server.obj
 0001:00008d10       _u_mvl_fdelete_ind         00409d10 f   server.obj
 0001:00008d50       _u_mvl_frename_ind         00409d50 f   server.obj
 0001:00008da0       _u_mvl_obtfile_ind         00409da0 f   server.obj
 0001:00008dc0       _u_mvl_defvlist_ind        00409dc0 f   server.obj
 0001:00008de0       _u_mvl_getvlist_ind        00409de0 f   server.obj
 0001:00008e00       _u_mvl_delvlist_ind        00409e00 f   server.obj
 0001:00008e20       _u_mvl_jinit_ind           00409e20 f   server.obj
 0001:00008e50       _u_mvl_jstat_ind           00409e50 f   server.obj
 0001:00008f00       _u_mvl_getcl_ind           00409f00 f   server.obj
 0001:00008fd0       _u_mvl_concl_ind           00409fd0 f   server.obj
 0001:00009020       _u_mvl_connect_ind_ex      0040a020 f   server.obj
 0001:00009bf0       _slogIpcInit               0040abf0 f   slogipc.obj
 0001:00009e70       _slogIpcStop               0040ae70 f   slogipc.obj
 0001:00009ff0       _slogIpcEvent              0040aff0 f   slogipc.obj
 0001:0000a010       _slogIpcEventEx            0040b010 f   slogipc.obj
 0001:0000a020       _slogIpc                   0040b020 f   slogipc.obj
 0001:0000a5b0       _slogIpcSendData           0040b5b0 f   slogipc.obj
 0001:0000a690       _slogIpcSendRawData        0040b690 f   slogipc.obj
 0001:0000a9d0       _slog_ipc_std_cmd_fun      0040b9d0 f   slogipc.obj
 0001:0000aab0       _slogIpcCallingEnable      0040bab0 f   slogipc.obj
 0001:0000aad0       _slogIpcCallingEnableEx    0040bad0 f   slogipc.obj
 0001:0000b3f0       _slogIpcActiveCount        0040c3f0 f   slogipc.obj
 0001:0000b470       __slogIpcInitHdr           0040c470 f   slogipc.obj
 0001:0000bb10       _mvl_init_mms_objs         0040cb10 f   srvrobj.obj
 0001:0000c7f0       _mvl_init_type_ctrl        0040d7f0 f   srvrobj.obj
 0001:0000cf28       _htonl@4                   0040df28 f   ws2_32:WS2_32.dll
 0001:0000cf2e       _ntohl@4                   0040df2e f   ws2_32:WS2_32.dll
 0001:0000cf40       _init_mem_chk              0040df40 f   mem_ld:mem_chks.obj
 0001:0000d160       _x_chk_malloc              0040e160 f   mem_ld:mem_chks.obj
 0001:0000d4b0       _x_chk_calloc              0040e4b0 f   mem_ld:mem_chks.obj
 0001:0000d840       _x_chk_realloc             0040e840 f   mem_ld:mem_chks.obj
 0001:0000dd30       _x_chk_free                0040ed30 f   mem_ld:mem_chks.obj
 0001:0000e0a0       _x_chk_strdup              0040f0a0 f   mem_ld:mem_chks.obj
 0001:0000e0e0       _dyn_mem_ptr_status        0040f0e0 f   mem_ld:mem_chks.obj
 0001:0000e0f0       _dyn_mem_ptr_status2       0040f0f0 f   mem_ld:mem_chks.obj
 0001:0000e2c0       _dyn_mem_ptr_statistics    0040f2c0 f   mem_ld:mem_chks.obj
 0001:0000e430       _chk_hp                    0040f430 f   mem_ld:mem_chks.obj
 0001:0000e450       _msoft_heap_check          0040f450 f   mem_ld:mem_chks.obj
 0001:0000e460       _chk_alloc_ptr             0040f460 f   mem_ld:mem_chks.obj
 0001:0000e6e0       _check_mem_list            0040f6e0 f   mem_ld:mem_chks.obj
 0001:0000ebb0       _asn1r_get_vstr_maxlen     0040fbb0 f   asn1_ld:ard_vstr.obj
 0001:0000ec10       _asn1r_get_vstr            0040fc10 f   asn1_ld:ard_vstr.obj
 0001:0000ecb0       _asn1r_get_utf8            0040fcb0 f   asn1_ld:ard_vstr.obj
 0001:0000edb0       _asn1r_utf8_to_local       0040fdb0 f   asn1_ld:ard_vstr.obj
 0001:0000ee00       _asn1r_decode_asn1_seq     0040fe00 f   asn1_ld:asn1r.obj
 0001:0000ee70       _asn1r_decode_asn1         0040fe70 f   asn1_ld:asn1r.obj
 0001:0000f840       _asn1r_head_decode         00410840 f   asn1_ld:asn1r.obj
 0001:00010370       _asn1r_set_all_cstr_done   00411370 f   asn1_ld:asn1r.obj
 0001:000103a0       _asn1r_tag_add             004113a0 f   asn1_ld:asn1r.obj
 0001:00010430       _asn1r_tag_restore         00411430 f   asn1_ld:asn1r.obj
 0001:00010450       _asn1r_strt_asn1_bld       00411450 f   asn1_ld:asn1r.obj
 0001:000104f0       _asn1r_strt_constr         004114f0 f   asn1_ld:asn1r.obj
 0001:00010590       _asn1r_fin_constr          00411590 f   asn1_ld:asn1r.obj
 0001:00010720       _asn1r_fin_prim            00411720 f   asn1_ld:asn1r.obj
 0001:00010a60       _asn1r_set_dec_err         00411a60 f   asn1_ld:asn1r.obj
 0001:00010ab0       _asn1r_done_err            00411ab0 f   asn1_ld:asn1r.obj
 0001:00010b20       _asn1r_class_err           00411b20 f   asn1_ld:asn1r.obj
 0001:00010b70       _asn1r_cstr_done_err       00411b70 f   asn1_ld:asn1r.obj
 0001:00010bc0       _asn1r_chk_getcstr_done    00411bc0 f   asn1_ld:asn1r.obj
 0001:00010c00       _asn1_objidcmp             00411c00 f   asn1_ld:asn1r.obj
 0001:00010e40       _asn1_convert_btod_to_utc  00411e40 f   asn1_ld:asn1r.obj
 0001:00010f20       _asn1_convert_utc_to_btod  00411f20 f   asn1_ld:asn1r.obj
 0001:00010fc0       _asn1_convert_timet_to_btime6 00411fc0 f   asn1_ld:asn1r.obj
 0001:00011080       _bstrcpy                   00412080 f   asn1_ld:asn1r.obj
 0001:00011130       _bvstrcpy                  00412130 f   asn1_ld:asn1r.obj
 0001:00011160       _bstrcmp                   00412160 f   asn1_ld:asn1r.obj
 0001:00011200       _asn1r_skip_elmnt          00412200 f   asn1_ld:asn1r.obj
 0001:000112c0       _copp_initialize           004122c0 f   ositcps_ld:acse2enc.obj
 0001:00011390       _copp_terminate            00412390 f   ositcps_ld:acse2enc.obj
 0001:000113c0       _copp_event                004123c0 f   ositcps_ld:acse2enc.obj
 0001:000113d0       _a_associate_req           004123d0 f   ositcps_ld:acse2enc.obj
 0001:00012040       _a_associate_rsp           00413040 f   ositcps_ld:acse2enc.obj
 0001:00012780       _a_release_req             00413780 f   ositcps_ld:acse2enc.obj
 0001:00012940       _a_release_rsp             00413940 f   ositcps_ld:acse2enc.obj
 0001:00012b60       _a_abort_req               00413b60 f   ositcps_ld:acse2enc.obj
 0001:00012d50       _a_data_req                00413d50 f   ositcps_ld:acse2enc.obj
 0001:00012e80       _a_buffers_avail           00413e80 f   ositcps_ld:acse2enc.obj
 0001:00012ea0       _a_get_event_handles       00413ea0 f   ositcps_ld:acse2enc.obj
 0001:00012ee0       _a_get_security_info       00413ee0 f   ositcps_ld:acse2enc.obj
 0001:00012f50       _a_free_security_info      00413f50 f   ositcps_ld:acse2enc.obj
 0001:00012fd0       _a_free_part_security_info 00413fd0 f   ositcps_ld:acse2enc.obj
 0001:00013010       _copp_bind                 00414010 f   ositcps_ld:copp_enc.obj
 0001:00013190       _copp_unbind               00414190 f   ositcps_ld:copp_enc.obj
 0001:000131e0       _copp_con_req              004141e0 f   ositcps_ld:copp_enc.obj
 0001:00013690       _copp_rel_req              00414690 f   ositcps_ld:copp_enc.obj
 0001:000138b0       _copp_con_rsp_pos          004148b0 f   ositcps_ld:copp_enc.obj
 0001:00013cd0       _copp_con_rsp_neg          00414cd0 f   ositcps_ld:copp_enc.obj
 0001:00014170       _copp_rel_rsp_pos          00415170 f   ositcps_ld:copp_enc.obj
 0001:000143a0       _copp_u_abort_req          004153a0 f   ositcps_ld:copp_enc.obj
 0001:00014680       _copp_data_req             00415680 f   ositcps_ld:copp_enc.obj
 0001:00014890       _copp_p_abort_req          00415890 f   ositcps_ld:copp_enc.obj
 0001:000149d0       _dib_match_remote_ar       004159d0 f   ositcps_ld:acse2dib.obj
 0001:00014b20       _dib_match_local_ar        00415b20 f   ositcps_ld:acse2dib.obj
 0001:00014c70       _dib_cmp_local_addr        00415c70 f   ositcps_ld:acse2dib.obj
 0001:00014e90       _dib_cmp_remote_addr       00415e90 f   ositcps_ld:acse2dib.obj
 0001:00015340       _osicfgx                   00416340 f   ositcps_ld:osicfgx.obj
 0001:00017020       _tp0_initialize            00418020 f   ositcps_ld:tp0main.obj
 0001:00017260       _tp0_terminate             00418260 f   ositcps_ld:tp0main.obj
 0001:00017360       _tp0_bind                  00418360 f   ositcps_ld:tp0main.obj
 0001:000174f0       _tp0_unbind                004184f0 f   ositcps_ld:tp0main.obj
 0001:00017540       _tp0_session_timer         00418540 f   ositcps_ld:tp0main.obj
 0001:000175f0       _tp0_timer_tick            004185f0 f   ositcps_ld:tp0main.obj
 0001:00017670       _tp0_buffers_avail         00418670 f   ositcps_ld:tp0main.obj
 0001:000176b0       _tp0_event                 004186b0 f   ositcps_ld:tp0main.obj
 0001:000176c0       _tp0_data                  004186c0 f   ositcps_ld:tp0main.obj
 0001:00017800       _tp0_disconnect            00418800 f   ositcps_ld:tp0main.obj
 0001:00017920       _tp0_process_dt            00418920 f   ositcps_ld:tp0main.obj
 0001:00017b50       _tp0_process_dr            00418b50 f   ositcps_ld:tp0main.obj
 0001:00017c80       _tp0_conn_clean            00418c80 f   ositcps_ld:tp0main.obj
 0001:00017c90       _tp0_send_dt               00418c90 f   ositcps_ld:tp0main.obj
 0001:00017d40       _tp0_send_cr               00418d40 f   ositcps_ld:tp0main.obj
 0001:00017df0       _tp0_send_cc               00418df0 f   ositcps_ld:tp0main.obj
 0001:00017ea0       _tp0_send_dr               00418ea0 f   ositcps_ld:tp0main.obj
 0001:00017f50       _tp0_connect_outstanding_count 00418f50 f   ositcps_ld:tp0main.obj
 0001:00017fb0       _tp0_convert_ip            00418fb0 f   ositcps_ld:tp0main.obj
 0001:00018040       _cosp_bind                 00419040 f   ositcps_ld:cospmain.obj
 0001:000182a0       _tp4_bind_cnf              004192a0 f   ositcps_ld:cospmain.obj
 0001:00018310       _cosp_unbind               00419310 f   ositcps_ld:cospmain.obj
 0001:000183b0       _tp4_unbind_cnf            004193b0 f   ositcps_ld:cospmain.obj
 0001:00018410       _acse_free_con             00419410 f   ositcps_ld:cospmain.obj
 0001:00018470       _tp4_connect_ind           00419470 f   ositcps_ld:cospmain.obj
 0001:000185f0       _cosp_con_rsp_pos          004195f0 f   ositcps_ld:cospmain.obj
 0001:000187c0       _cosp_con_rsp_neg          004197c0 f   ositcps_ld:cospmain.obj
 0001:00018a30       _cosp_con_req              00419a30 f   ositcps_ld:cospmain.obj
 0001:00018d60       _tp4_connect_cnf           00419d60 f   ositcps_ld:cospmain.obj
 0001:00018ea0       _cosp_rel_rsp_pos          00419ea0 f   ositcps_ld:cospmain.obj
 0001:00019120       _cosp_rel_req              0041a120 f   ositcps_ld:cospmain.obj
 0001:00019300       _tp4_disconnect_ind        0041a300 f   ositcps_ld:cospmain.obj
 0001:00019490       _tp4_session_timer_expired 0041a490 f   ositcps_ld:cospmain.obj
 0001:00019510       _cosp_u_abort_req          0041a510 f   ositcps_ld:cospmain.obj
 0001:00019850       _tp4_data_ind              0041a850 f   ositcps_ld:cospmain.obj
 0001:0001a0a0       _tp4_expdata_ind           0041b0a0 f   ositcps_ld:cospmain.obj
 0001:0001a0c0       _cosp_data_req             0041b0c0 f   ositcps_ld:cospmain.obj
 0001:0001ad40       _np_init                   0041bd40 f   ositcps_ld:tp0_socks.obj
 0001:0001b580       _np_end                    0041c580 f   ositcps_ld:tp0_socks.obj
 0001:0001b840       _np_event                  0041c840 f   ositcps_ld:tp0_socks.obj
 0001:0001bc90       _handle_accepted_conn      0041cc90 f   ositcps_ld:tp0_socks.obj
 0001:0001be40       _handle_connect_success    0041ce40 f   ositcps_ld:tp0_socks.obj
 0001:0001bfe0       _handle_disconnect         0041cfe0 f   ositcps_ld:tp0_socks.obj
 0001:0001c0b0       _handle_data               0041d0b0 f   ositcps_ld:tp0_socks.obj
 0001:0001c170       _np_connect_req            0041d170 f   ositcps_ld:tp0_socks.obj
 0001:0001c4d0       _np_disconnect_req         0041d4d0 f   ositcps_ld:tp0_socks.obj
 0001:0001c810       _np_data_req               0041d810 f   ositcps_ld:tp0_socks.obj
 0001:0001ca00       _np_get_tx_queue_cnt       0041da00 f   ositcps_ld:tp0_socks.obj
 0001:0001cef0       _sock_info_alloc2          0041def0 f   ositcps_ld:tp0_socks.obj
 0001:0001cf50       _sock_info_free            0041df50 f   ositcps_ld:tp0_socks.obj
 0001:0001d310       _tp4_init_timer            0041e310 f   ositcps_ld:tp4port.obj
 0001:0001d320       _tp4_check_timer           0041e320 f   ositcps_ld:tp4port.obj
 0001:0001d400       _tp_encode_cx              0041e400 f   ositcps_ld:tp4_enc.obj
 0001:0001d8b0       _tp_encode_dr              0041e8b0 f   ositcps_ld:tp4_enc.obj
 0001:0001d930       _tp_encode_dc              0041e930 f   ositcps_ld:tp4_enc.obj
 0001:0001d9a0       _tp_encode_dt              0041e9a0 f   ositcps_ld:tp4_enc.obj
 0001:0001da50       _tp0_encode_dt             0041ea50 f   ositcps_ld:tp4_enc.obj
 0001:0001dad0       _tp_encode_ak              0041ead0 f   ositcps_ld:tp4_enc.obj
 0001:0001dbb0       _tp_decode_cx              0041ebb0 f   ositcps_ld:tpx_dec.obj
 0001:0001e1d0       _tp_decode_dr              0041f1d0 f   ositcps_ld:tpx_dec.obj
 0001:0001e380       _tp_decode_dc              0041f380 f   ositcps_ld:tpx_dec.obj
 0001:0001e520       _tp_decode_dt              0041f520 f   ositcps_ld:tpx_dec.obj
 0001:0001e750       _tp0_decode_dt             0041f750 f   ositcps_ld:tpx_dec.obj
 0001:0001e870       _tp_decode_ak              0041f870 f   ositcps_ld:tpx_dec.obj
 0001:0001ea70       _tp_decode_er              0041fa70 f   ositcps_ld:tpx_dec.obj
 0001:0001ede0       _tp_log_tsdu               0041fde0 f   ositcps_ld:tpx_dec.obj
 0001:0001f860       _u_cosp_bind_cnf           00420860 f   ositcps_ld:copp_dec.obj
 0001:0001f8c0       _u_cosp_unbind_cnf         004208c0 f   ositcps_ld:copp_dec.obj
 0001:0001f910       _u_cosp_rel_cnf_pos        00420910 f   ositcps_ld:copp_dec.obj
 0001:0001fb80       _u_cosp_rel_ind            00420b80 f   ositcps_ld:copp_dec.obj
 0001:0001fe10       _u_cosp_p_abort_ind        00420e10 f   ositcps_ld:copp_dec.obj
 0001:0001fed0       _u_cosp_data_ind           00420ed0 f   ositcps_ld:copp_dec.obj
 0001:00020130       _START_p_user_data         00421130 f   ositcps_ld:copp_dec.obj
 0001:00020160       _START_pdv_list            00421160 f   ositcps_ld:copp_dec.obj
 0001:00020390       _tp0_accept                00421390 f   ositcps_ld:tp0calld.obj
 0001:00020440       _tp0_process_cr            00421440 f   ositcps_ld:tp0calld.obj
 0001:000208a0       _cosp_envelope_len         004218a0 f   ositcps_ld:cosp_enc.obj
 0001:00020a80       _cosp_enc_cn_ac            00421a80 f   ositcps_ld:cosp_enc.obj
 0001:00020d80       _cosp_enc_rf               00421d80 f   ositcps_ld:cosp_enc.obj
 0001:00020f20       _cosp_enc_fn_dn            00421f20 f   ositcps_ld:cosp_enc.obj
 0001:000210a0       _cosp_enc_u_ab             004220a0 f   ositcps_ld:cosp_enc.obj
 0001:00021250       _cosp_enc_p_ab             00422250 f   ositcps_ld:cosp_enc.obj
 0001:000212b0       _cosp_enc_dt               004222b0 f   ositcps_ld:cosp_enc.obj
 0001:00021440       _tp0_connect               00422440 f   ositcps_ld:tp0callg.obj
 0001:000216e0       _tp0_process_cc            004226e0 f   ositcps_ld:tp0callg.obj
 0001:00021970       _u_cosp_con_ind            00422970 f   ositcps_ld:coppdcp.obj
 0001:00021db0       _u_cosp_con_cnf_pos        00422db0 f   ositcps_ld:coppdcp.obj
 0001:00022cd0       _cosp_dec_cn_ac            00423cd0 f   ositcps_ld:cosp_dec.obj
 0001:000235b0       _cosp_dec_rf               004245b0 f   ositcps_ld:cosp_dec.obj
 0001:000239e0       _cosp_dec_fn_dn            004249e0 f   ositcps_ld:cosp_dec.obj
 0001:00023d00       _cosp_dec_ab               00424d00 f   ositcps_ld:cosp_dec.obj
 0001:000240b0       _cosp_dec_dt               004250b0 f   ositcps_ld:cosp_dec.obj
 0001:000245e0       _u_cosp_con_cnf_neg        004255e0 f   ositcps_ld:coppdcpr.obj
 0001:00024f00       _u_cosp_u_abort_ind        00425f00 f   ositcps_ld:coppdaru.obj
 0001:000254e0       _np_data_ind               004264e0 f   ositcps_ld:tp0_dec.obj
 0001:00025880       _np_disconnect_ind         00426880 f   ositcps_ld:tp0_dec.obj
 0001:00025940       _np_connect_cnf_pos        00426940 f   ositcps_ld:tp0_dec.obj
 0001:00025980       _u_copp_con_cnf            00426980 f   ositcps_ld:acse2dec.obj
 0001:00025d20       _u_copp_rel_cnf_pos        00426d20 f   ositcps_ld:acse2dec.obj
 0001:00025f60       _u_copp_con_ind            00426f60 f   ositcps_ld:acse2dec.obj
 0001:000266f0       _u_copp_rel_ind            004276f0 f   ositcps_ld:acse2dec.obj
 0001:00026910       _u_copp_p_abort_ind        00427910 f   ositcps_ld:acse2dec.obj
 0001:000269b0       _u_copp_u_abort_ind        004279b0 f   ositcps_ld:acse2dec.obj
 0001:00026b30       _u_copp_data_ind           00427b30 f   ositcps_ld:acse2dec.obj
 0001:000281c0       _asn1_skip_elmnt           004291c0 f   ositcps_ld:acse2dec.obj
 0001:00028260       _tp4_except                00429260 f   ositcps_ld:acse2dec.obj
 0001:00028320       _a_get_rem_ip_addr         00429320 f   ositcps_ld:acse2dec.obj
 0001:000287b0       _checksum_insert           004297b0 f   ositcps_ld:checksum.obj
 0001:00028890       _checksum_verified         00429890 f   ositcps_ld:checksum.obj
 0001:000289f0       __slogc                    004299f0 f   slog_ld:slog.obj
 0001:00028a30       __slog                     00429a30 f   slog_ld:slog.obj
 0001:00028a70       _slog                      00429a70 f   slog_ld:slog.obj
 0001:00028ab0       _slogx                     00429ab0 f   slog_ld:slog.obj
 0001:00028ec0       _slogSetTimeText           00429ec0 f   slog_ld:slog.obj
 0001:00028ff0       _slogTrimFileName          00429ff0 f   slog_ld:slog.obj
 0001:00029070       _slogSetHdr                0042a070 f   slog_ld:slog.obj
 0001:00029250       _slogCallStack             0042a250 f   slog_ld:slog.obj
 0001:00029280       _slogDelBuf                0042a280 f   slog_ld:slog.obj
 0001:000292d0       _slog_max_msg_size_set     0042a2d0 f   slog_ld:slog.obj
 0001:00029370       _slog_start                0042a370 f   slog_ld:slog.obj
 0001:000293a0       _slog_end                  0042a3a0 f   slog_ld:slog.obj
 0001:00029480       __slogXML                  0042a480 f   slog_ld:slog.obj
 0001:000299d0       _slogFile                  0042a9d0 f   slog_ld:slogfil.obj
 0001:00029ec0       _slogCloseFile             0042aec0 f   slog_ld:slogfil.obj
 0001:00029f30       _slogCloneFile             0042af30 f   slog_ld:slogfil.obj
 0001:0002a080       _slogCloneFileEx           0042b080 f   slog_ld:slogfil.obj
 0001:0002a1d0       _slogDeleteFile            0042b1d0 f   slog_ld:slogfil.obj
 0001:0002a420       _slog_get_index_file_name  0042b420 f   slog_ld:slogfil.obj
 0001:0002aab0       _slogHex                   0042bab0 f   slog_ld:sloghex.obj
 0001:0002aad0       __slogHex                  0042bad0 f   slog_ld:sloghex.obj
 0001:0002afc0       __slogStr                  0042bfc0 f   slog_ld:sloghex.obj
 0001:0002b370       _slogMem                   0042c370 f   slog_ld:slogmem.obj
 0001:0002b520       _slogDumpMem               0042c520 f   slog_ld:slogmem.obj
 0001:0002b810       _slogResetMem              0042c810 f   slog_ld:slogmem.obj
 0001:0002b8b0       _slogMemInit               0042c8b0 f   slog_ld:slogmem.obj
 0001:0002b9a0       _slogGetMemMsg             0042c9a0 f   slog_ld:slogmem.obj
 0001:0002bbd0       _slogGetMemCount           0042cbd0 f   slog_ld:slogmem.obj
 0001:0002bc50       _qMemInit                  0042cc50 f   slog_ld:qmem.obj
 0001:0002bd40       _qMemAlloc                 0042cd40 f   slog_ld:qmem.obj
 0001:0002beb0       _qMemFree                  0042ceb0 f   slog_ld:qmem.obj
 0001:0002bf10       __ms_set_cs_check          0042cf10 f   mmsl_ld:mms_ced.obj
 0001:0002bf30       __ms_set_cs_check2         0042cf30 f   mmsl_ld:mms_ced.obj
 0001:0002bf70       __ms_chk_for_extern        0042cf70 f   mmsl_ld:mms_ced.obj
 0001:0002c020       _mms_req_not_supp          0042d020 f   mmsl_ld:mms_ced.obj
 0001:0002c090       _mms_rsp_not_supp          0042d090 f   mmsl_ld:mms_ced.obj
 0001:0002c0d0       __mms_null_pdu_dec         0042d0d0 f   mmsl_ld:mms_ced.obj
 0001:0002c110       __mms_dec_done_ok          0042d110 f   mmsl_ld:mms_ced.obj
 0001:0002c140       __mms_dec_buf_free         0042d140 f   mmsl_ld:mms_ced.obj
 0001:0002c160       __ms_fin_pdu               0042d160 f   mmsl_ld:mms_ced.obj
 0001:0002c1a0       __ms_fin_pdu_log           0042d1a0 f   mmsl_ld:mms_ced.obj
 0001:0002c250       _mms_init_req              0042d250 f   mmsl_ld:rs_init.obj
 0001:0002c290       _mpl_init_resp             0042d290 f   mmsl_ld:rs_init.obj
 0001:0002c340       _mms_cancel_req            0042d340 f   mmsl_ld:rs_cancl.obj
 0001:0002c390       _mpl_cancel_resp           0042d390 f   mmsl_ld:rs_cancl.obj
 0001:0002c440       _mms_info_rpt_req          0042d440 f   mmsl_ld:rs_info.obj
 0001:0002c750       _mms_getcl_req             0042d750 f   mmsl_ld:rs_getcl.obj
 0001:0002c840       _mpl_getcl_resp            0042d840 f   mmsl_ld:rs_getcl.obj
 0001:0002c860       __ms_mk_getcl_resp         0042d860 f   mmsl_ld:rs_getcl.obj
 0001:0002c940       _mms_get_dom_attr_req      0042d940 f   mmsl_ld:rs_getdo.obj
 0001:0002c9b0       _mpl_getdom_resp           0042d9b0 f   mmsl_ld:rs_getdo.obj
 0001:0002c9d0       __ms_mk_getdom_resp        0042d9d0 f   mmsl_ld:rs_getdo.obj
 0001:0002cba0       _mms_get_vlist_req         0042dba0 f   mmsl_ld:rs_getvl.obj
 0001:0002cc20       _mpl_getvlist_resp         0042dc20 f   mmsl_ld:rs_getvl.obj
 0001:0002cc40       __ms_mk_getvlist_resp      0042dc40 f   mmsl_ld:rs_getvl.obj
 0001:0002ccd0       _mms_get_var_req           0042dcd0 f   mmsl_ld:rs_getva.obj
 0001:0002ce00       _mpl_getvar_resp           0042de00 f   mmsl_ld:rs_getva.obj
 0001:0002ce20       __ms_mk_getvar_resp        0042de20 f   mmsl_ld:rs_getva.obj
 0001:0002cee0       _mms_write_req             0042dee0 f   mmsl_ld:rs_write.obj
 0001:0002d1d0       _mpl_write_resp            0042e1d0 f   mmsl_ld:rs_write.obj
 0001:0002d1f0       __ms_mk_write_resp         0042e1f0 f   mmsl_ld:rs_write.obj
 0001:0002d2a0       _mms_read_req              0042e2a0 f   mmsl_ld:rs_read.obj
 0001:0002d4b0       _mpl_read_resp             0042e4b0 f   mmsl_ld:rs_read.obj
 0001:0002d4d0       __ms_mk_read_resp          0042e4d0 f   mmsl_ld:rs_read.obj
 0001:0002d5b0       _mms_namelist_req          0042e5b0 f   mmsl_ld:rs_namel.obj
 0001:0002d9f0       _mpl_namelist_resp         0042e9f0 f   mmsl_ld:rs_namel.obj
 0001:0002da10       __ms_mk_namel_resp         0042ea10 f   mmsl_ld:rs_namel.obj
 0001:0002daf0       _mms_status_req            0042eaf0 f   mmsl_ld:rs_stat.obj
 0001:0002db60       _mpl_status_resp           0042eb60 f   mmsl_ld:rs_stat.obj
 0001:0002db80       __ms_mk_stat_resp          0042eb80 f   mmsl_ld:rs_stat.obj
 0001:0002dc20       __ms_mms_decode            0042ec20 f   mmsl_ld:mmsdec.obj
 0001:0002e830       __m_get_dec_buf            0042f830 f   mmsl_ld:mmsdec.obj
 0001:0002e870       _mpl_init_err              0042f870 f   mmsl_ld:mms_err2.obj
 0001:0002e890       __mms_fin_null_resp        0042f890 f   mmsl_ld:mmsl_fin.obj
 0001:0002e960       __mms_fin_null_req         0042f960 f   mmsl_ld:mmsl_fin.obj
 0001:0002ea50       __mms_resp_fin             0042fa50 f   mmsl_ld:mmsl_fin.obj
 0001:0002eb20       __mms_req_fin              0042fb20 f   mmsl_ld:mmsl_fin.obj
 0001:0002ec00       __mms_unconf_req_fin       0042fc00 f   mmsl_ld:mmsl_fin.obj
 0001:0002ec90       _mpl_resp_log              0042fc90 f   mmsl_ld:mmsl_fin.obj
 0001:0002ed10       _mpl_req_log               0042fd10 f   mmsl_ld:mmsl_fin.obj
 0001:0002ed60       _mpl_unsol_req_log         0042fd60 f   mmsl_ld:mmsl_fin.obj
 0001:0002edb0       __mms_init_dec             0042fdb0 f   mmsl_ld:mmsinit.obj
 0001:0002f3d0       __ms_mk_init               004303d0 f   mmsl_ld:mmsinit.obj
 0001:0002f630       __ms_mk_cancel             00430630 f   mmsl_ld:mmscancl.obj
 0001:0002f710       __ms_get_va_address        00430710 f   mmsl_ld:mms_ced4.obj
 0001:0002f9d0       __ms_get_va_access_rslt    004309d0 f   mmsl_ld:mms_ced4.obj
 0001:0002fc10       __ms_get_va_data           00430c10 f   mmsl_ld:mms_ced4.obj
 0001:0002fca0       __ms_get_va_type_spec      00430ca0 f   mmsl_ld:mms_ced4.obj
 0001:0002fd30       __ms_get_va_scat_access    00430d30 f   mmsl_ld:mms_ced4.obj
 0001:0002fda0       __ms_get_va_alt_access     00430da0 f   mmsl_ld:mms_ced4.obj
 0001:0002fe50       __ms_get_va_var_spec       00430e50 f   mmsl_ld:mms_ced4.obj
 0001:00030130       __ms_get_va_var_list       00431130 f   mmsl_ld:mms_ced4.obj
 0001:00030350       __ms_get_va_spec           00431350 f   mmsl_ld:mms_ced4.obj
 0001:000304c0       __ms_wr_va_address         004314c0 f   mmsl_ld:mms_ced4.obj
 0001:00030570       __ms_wr_va_access_rslt     00431570 f   mmsl_ld:mms_ced4.obj
 0001:000305c0       __ms_wr_va_data            004315c0 f   mmsl_ld:mms_ced4.obj
 0001:000305e0       __ms_wr_va_type_spec       004315e0 f   mmsl_ld:mms_ced4.obj
 0001:00030600       __ms_wr_va_scat_access     00431600 f   mmsl_ld:mms_ced4.obj
 0001:00030620       __ms_wr_va_alt_access      00431620 f   mmsl_ld:mms_ced4.obj
 0001:00030640       __ms_wr_va_var_spec        00431640 f   mmsl_ld:mms_ced4.obj
 0001:00030780       __ms_wr_va_var_list        00431780 f   mmsl_ld:mms_ced4.obj
 0001:00030840       __ms_wr_va_spec            00431840 f   mmsl_ld:mms_ced4.obj
 0001:000308d0       __ms_get_mms_objname       004318d0 f   mmsl_ld:mms_ced3.obj
 0001:00030bc0       __ms_wr_mms_objname        00431bc0 f   mmsl_ld:mms_ced3.obj
 0001:00030cf0       _mms_err_invoke_fun        00431cf0 f   mmsl_ld:mms_err.obj
 0001:00030e00       _mms_err_rsp               00431e00 f   mmsl_ld:mms_err.obj
 0001:00030e50       __mms_get_service_err      00431e50 f   mmsl_ld:mms_err.obj
 0001:000316e0       _mpl_err_resp              004326e0 f   mmsl_ld:mms_err.obj
 0001:000317f0       __ms_mk_err_resp           004327f0 f   mmsl_ld:mms_err.obj
 0001:00031960       __ms_wr_service_err        00432960 f   mmsl_ld:mms_err.obj
 0001:00031c50       _mms_reject                00432c50 f   mmsl_ld:mms_rej.obj
 0001:00031e00       _mpl_reject_resp           00432e00 f   mmsl_ld:mms_rej.obj
 0001:00031eb0       __ms_mk_reject             00432eb0 f   mmsl_ld:mms_rej.obj
 0001:00031f60       _mvl_comm_serve            00432f60 f   mvl_ld:MVL_SERV.obj
 0001:00032870       _mvl_clr_ind_que           00433870 f   mvl_ld:MVL_SERV.obj
 0001:00032af0       __mvl_ind_reject           00433af0 f   mvl_ld:MVL_SERV.obj
 0001:00032b50       __mvl_conf_reject          00433b50 f   mvl_ld:MVL_SERV.obj
 0001:00032b80       __mvl_send_reject          00433b80 f   mvl_ld:MVL_SERV.obj
 0001:00032e40       __mplas_err_resp           00433e40 f   mvl_ld:MVL_SERV.obj
 0001:00032ec0       __mvl_send_err_f           00433ec0 f   mvl_ld:MVL_SERV.obj
 0001:00032ef0       __mvl_send_error           00433ef0 f   mvl_ld:MVL_SERV.obj
 0001:00033000       _mvl_wait_req_done         00434000 f   mvl_ld:MVL_SERV.obj
 0001:00033080       __mvl_get_req_ctrl         00434080 f   mvl_ld:MVL_SERV.obj
 0001:00033170       __mvl_find_req_ctrl        00434170 f   mvl_ld:MVL_SERV.obj
 0001:00033200       __mvl_set_net_req_done     00434200 f   mvl_ld:MVL_SERV.obj
 0001:00033280       __mvl_set_req_done         00434280 f   mvl_ld:MVL_SERV.obj
 0001:000332b0       _mvl_free_req_ctrl         004342b0 f   mvl_ld:MVL_SERV.obj
 0001:000333c0       __mvl_concat_filename      004343c0 f   mvl_ld:MVL_SERV.obj
 0001:00033470       __mvl_calloc_os            00434470 f   mvl_ld:MVL_SERV.obj
 0001:00033490       __mvl_realloc_os           00434490 f   mvl_ld:MVL_SERV.obj
 0001:000334b0       __mvl_free_os              004344b0 f   mvl_ld:MVL_SERV.obj
 0001:000334d0       _mvl_req_bufs_avail        004344d0 f   mvl_ld:MVL_SERV.obj
 0001:000335a0       _mvl_ureq_bufs_avail       004345a0 f   mvl_ld:MVL_SERV.obj
 0001:00033680       _mvl_mod_arr_size          00434680 f   mvl_ld:MVL_TYPE.obj
 0001:000336d0       _mvl_get_runtime           004346d0 f   mvl_ld:MVL_TYPE.obj
 0001:00033720       _mvl_get_runtime_dyn       00434720 f   mvl_ld:MVL_TYPE.obj
 0001:00033780       _mvl_type_ctrl_find        00434780 f   mvl_ld:MVL_TYPE.obj
 0001:000337d0       _mvl_type_ctrl_find_dyn    004347d0 f   mvl_ld:MVL_TYPE.obj
 0001:00033810       _mvl_typeid_to_typename    00434810 f   mvl_ld:MVL_TYPE.obj
 0001:00033840       _mvl_typename_to_typeid    00434840 f   mvl_ld:MVL_TYPE.obj
 0001:000338c0       _mvlu_add_rt_type          004348c0 f   mvl_ld:MVL_TYPE.obj
 0001:000339b0       _mvlu_free_rt_type         004349b0 f   mvl_ld:MVL_TYPE.obj
 0001:000339f0       _mvl_vmd_resize            004349f0 f   mvl_ld:Mvl_obj.obj
 0001:00033b70       _mvl_dom_resize            00434b70 f   mvl_ld:Mvl_obj.obj
 0001:00033ca0       __mvl_resize_ptr_tbl       00434ca0 f   mvl_ld:Mvl_obj.obj
 0001:00033d30       _mvl_nvl_remove_all        00434d30 f   mvl_ld:Mvl_obj.obj
 0001:00033ea0       _mvl_var_in_nvl            00434ea0 f   mvl_ld:Mvl_obj.obj
 0001:00033f00       _mvl_var_deletable         00434f00 f   mvl_ld:Mvl_obj.obj
 0001:00034080       _mvl_nvl_deletable         00435080 f   mvl_ld:Mvl_obj.obj
 0001:00034090       _mvl_vmd_dom_add           00435090 f   mvl_ld:Mvl_obj.obj
 0001:000340f0       _mvl_dom_create            004350f0 f   mvl_ld:Mvl_obj.obj
 0001:00034190       _mvl_dom_cleanup           00435190 f   mvl_ld:Mvl_obj.obj
 0001:00034370       _mvl_vmd_dom_remove        00435370 f   mvl_ld:Mvl_obj.obj
 0001:00034430       _mvl_dom_destroy           00435430 f   mvl_ld:Mvl_obj.obj
 0001:000344d0       _mvl_vmd_var_add           004354d0 f   mvl_ld:Mvl_obj.obj
 0001:000345b0       _mvl_var_create            004355b0 f   mvl_ld:Mvl_obj.obj
 0001:000346b0       _mvl_var_add_alloc         004356b0 f   mvl_ld:Mvl_obj.obj
 0001:00034780       _mvl_var_create_alloc      00435780 f   mvl_ld:Mvl_obj.obj
 0001:00034860       _mvl_var_create_derived    00435860 f   mvl_ld:Mvl_obj.obj
 0001:00034970       _mvl_vmd_var_remove        00435970 f   mvl_ld:Mvl_obj.obj
 0001:00034a20       _mvl_var_destroy           00435a20 f   mvl_ld:Mvl_obj.obj
 0001:00034a80       _mvl_vmd_nvl_add           00435a80 f   mvl_ld:Mvl_obj.obj
 0001:00034b80       _mvl_nvl_create            00435b80 f   mvl_ld:Mvl_obj.obj
 0001:00034d10       _mvl_vmd_nvl_remove        00435d10 f   mvl_ld:Mvl_obj.obj
 0001:00034dc0       _mvl_nvl_destroy           00435dc0 f   mvl_ld:Mvl_obj.obj
 0001:00034e60       _mvl_vmd_jou_add           00435e60 f   mvl_ld:Mvl_obj.obj
 0001:00034ec0       _mvl_jou_create            00435ec0 f   mvl_ld:Mvl_obj.obj
 0001:00034f50       _mvl_vmd_jou_remove        00435f50 f   mvl_ld:Mvl_obj.obj
 0001:00034f90       _mvl_jou_destroy           00435f90 f   mvl_ld:Mvl_obj.obj
 0001:00034fd0       _mvl_vmd_create            00435fd0 f   mvl_ld:Mvl_obj.obj
 0001:000350d0       _mvl_vmd_destroy           004360d0 f   mvl_ld:Mvl_obj.obj
 0001:00035280       __mvl_process_cancel_ind   00436280 f   mvl_ld:s_cancel.obj
 0001:000352b0       __mvl_process_concl_ind    004362b0 f   mvl_ld:s_concl.obj
 0001:000352d0       _mplas_concl_resp          004362d0 f   mvl_ld:s_concl.obj
 0001:00035360       _mplas_concl_err           00436360 f   mvl_ld:s_concl.obj
 0001:00035420       __mvl_process_getcl_ind    00436420 f   mvl_ld:S_GETCL.obj
 0001:00035440       _mplas_getcl_resp          00436440 f   mvl_ld:S_GETCL.obj
 0001:00035490       __mvl_process_getdom_ind   00436490 f   mvl_ld:S_GETDOM.obj
 0001:000354b0       _mvlas_getdom_resp         004364b0 f   mvl_ld:S_GETDOM.obj
 0001:00035580       _mplas_getdom_resp         00436580 f   mvl_ld:S_GETDOM.obj
 0001:000355d0       __mvl_process_jstat_ind    004365d0 f   mvl_ld:s_jstat.obj
 0001:000355f0       _mplas_jstat_resp          004365f0 f   mvl_ld:s_jstat.obj
 0001:00035640       __mvl_process_jread_ind    00436640 f   mvl_ld:S_jread.obj
 0001:00035660       _mvlas_jread_resp          00436660 f   mvl_ld:S_jread.obj
 0001:00035980       _mplas_jread_resp          00436980 f   mvl_ld:S_jread.obj
 0001:00035bb0       __mvl_process_jinit_ind    00436bb0 f   mvl_ld:S_JINIT.obj
 0001:00035bd0       _mplas_jinit_resp          00436bd0 f   mvl_ld:S_JINIT.obj
 0001:00035c20       __mvl_process_delvlist_ind 00436c20 f   mvl_ld:s_delvl.obj
 0001:00035c40       _mvlas_delvlist_resp       00436c40 f   mvl_ld:s_delvl.obj
 0001:00035e50       _mplas_delvlist_resp       00436e50 f   mvl_ld:s_delvl.obj
 0001:00035f50       __mvl_process_defvlist_ind 00436f50 f   mvl_ld:s_defvl.obj
 0001:00035f70       _mvlas_defvlist_resp       00436f70 f   mvl_ld:s_defvl.obj
 0001:000360c0       _mplas_defvlist_resp       004370c0 f   mvl_ld:s_defvl.obj
 0001:00036110       __mvl_process_frename_ind  00437110 f   mvl_ld:s_fren.obj
 0001:000361c0       _mplas_frename_resp        004371c0 f   mvl_ld:s_fren.obj
 0001:00036210       __mvl_process_obtfile_ind  00437210 f   mvl_ld:s_obtfi.obj
 0001:00036320       _mvlas_obtfile_resp        00437320 f   mvl_ld:s_obtfi.obj
 0001:00036340       _mvlas_obtfile_resp_ex     00437340 f   mvl_ld:s_obtfi.obj
 0001:00036530       _send_file_open            00437530 f   mvl_ld:s_obtfi.obj
 0001:00036570       _u_fopen_done              00437570 f   mvl_ld:s_obtfi.obj
 0001:00036740       _send_file_read            00437740 f   mvl_ld:s_obtfi.obj
 0001:00036790       _u_fread_done              00437790 f   mvl_ld:s_obtfi.obj
 0001:000369b0       _send_file_close           004379b0 f   mvl_ld:s_obtfi.obj
 0001:00036a00       _u_fclose_done             00437a00 f   mvl_ld:s_obtfi.obj
 0001:00036b70       _mplas_obtfile_resp        00437b70 f   mvl_ld:s_obtfi.obj
 0001:00036bc0       __mvl_process_fdelete_ind  00437bc0 f   mvl_ld:s_fdel.obj
 0001:00036c20       _mplas_fdelete_resp        00437c20 f   mvl_ld:s_fdel.obj
 0001:00036c70       __mvl_process_fclose_ind   00437c70 f   mvl_ld:s_fclose.obj
 0001:00036c90       _mplas_fclose_resp         00437c90 f   mvl_ld:s_fclose.obj
 0001:00036ce0       __mvl_process_fread_ind    00437ce0 f   mvl_ld:s_fread.obj
 0001:00036d20       _mplas_fread_resp          00437d20 f   mvl_ld:s_fread.obj
 0001:00036d70       __mvl_process_fopen_ind    00437d70 f   mvl_ld:s_fopen.obj
 0001:00036de0       _mplas_fopen_resp          00437de0 f   mvl_ld:s_fopen.obj
 0001:00036e40       __mvl_process_fdir_ind     00437e40 f   mvl_ld:s_fdir.obj
 0001:00036f20       _mplas_fdir_resp           00437f20 f   mvl_ld:s_fdir.obj
 0001:000370b0       _mvlas_fdir_resp           004380b0 f   mvl_ld:s_fdir.obj
 0001:00037670       __mvl_process_getvla_ind   00438670 f   mvl_ld:s_getvla.obj
 0001:00037690       _mvlas_getvlist_resp       00438690 f   mvl_ld:s_getvla.obj
 0001:00037860       _mplas_getvlist_resp       00438860 f   mvl_ld:s_getvla.obj
 0001:000378b0       __mvl_process_getvaa_ind   004388b0 f   mvl_ld:s_getvaa.obj
 0001:000378d0       _mvlas_getvar_resp         004388d0 f   mvl_ld:s_getvaa.obj
 0001:00037af0       _mplas_getvar_resp         00438af0 f   mvl_ld:s_getvaa.obj
 0001:00037b40       __mvl_process_getnam_ind   00438b40 f   mvl_ld:s_getnam.obj
 0001:00037b60       _mvlas_namelist_resp       00438b60 f   mvl_ld:s_getnam.obj
 0001:00037d40       _mplas_namelist_resp       00438d40 f   mvl_ld:s_getnam.obj
 0001:00037d90       _u_gnl_ind_vars            00438d90 f   mvl_ld:s_getnam.obj
 0001:00037ea0       _u_gnl_ind_nvls            00438ea0 f   mvl_ld:s_getnam.obj
 0001:00037fb0       _u_gnl_ind_doms            00438fb0 f   mvl_ld:s_getnam.obj
 0001:00037fe0       _u_gnl_ind_jous            00438fe0 f   mvl_ld:s_getnam.obj
 0001:00038200       __mvl_process_status_ind   00439200 f   mvl_ld:s_status.obj
 0001:00038220       _mplas_status_resp         00439220 f   mvl_ld:s_status.obj
 0001:00038270       __mvl_process_ident_ind    00439270 f   mvl_ld:S_IDENT.obj
 0001:00038290       _mplas_ident_resp          00439290 f   mvl_ld:S_IDENT.obj
 0001:000382e0       __mvl_process_write_ind    004392e0 f   mvl_ld:S_WRITE.obj
 0001:00038410       _mvlas_write_resp          00439410 f   mvl_ld:S_WRITE.obj
 0001:00038c10       __mvl_process_read_ind     00439c10 f   mvl_ld:S_READ.obj
 0001:00039030       _mvlas_read_resp           0043a030 f   mvl_ld:S_READ.obj
 0001:000393e0       __mvl_process_info_ind     0043a3e0 f   mvl_ld:c_info.obj
 0001:00039480       _mvl_info_data_to_local    0043a480 f   mvl_ld:c_info.obj
 0001:000396a0       _mvl_fclose                0043a6a0 f   mvl_ld:c_fclose.obj
 0001:00039720       _mvla_fclose               0043a720 f   mvl_ld:c_fclose.obj
 0001:00039790       __mvla_send_fclose         0043a790 f   mvl_ld:c_fclose.obj
 0001:000397e0       __mvl_process_fclose_conf  0043a7e0 f   mvl_ld:c_fclose.obj
 0001:000397f0       _mvl_fread                 0043a7f0 f   mvl_ld:c_fread.obj
 0001:00039870       _mvla_fread                0043a870 f   mvl_ld:c_fread.obj
 0001:000398e0       __mvla_send_fread          0043a8e0 f   mvl_ld:c_fread.obj
 0001:00039930       __mvl_process_fread_conf   0043a930 f   mvl_ld:c_fread.obj
 0001:00039950       _mvl_fopen                 0043a950 f   mvl_ld:c_fopen.obj
 0001:000399e0       _mvla_fopen                0043a9e0 f   mvl_ld:c_fopen.obj
 0001:00039a50       __mvla_send_fopen          0043aa50 f   mvl_ld:c_fopen.obj
 0001:00039af0       __mvl_process_fopen_conf   0043aaf0 f   mvl_ld:c_fopen.obj
 0001:00039b10       _mvl_info_variables        0043ab10 f   mvl_ld:s_info.obj
 0001:00039c20       _mvl_encode_info_rpt       0043ac20 f   mvl_ld:s_info.obj
 0001:00039f80       _mvl_obj_insert            0043af80 f   mvl_ld:mvl_objb.obj
 0001:0003a0c0       _mvl_obj_delete            0043b0c0 f   mvl_ld:mvl_objb.obj
 0001:0003a140       _mvl_obj_find              0043b140 f   mvl_ld:mvl_objb.obj
 0001:0003a170       _mvl_obj_find_key          0043b170 f   mvl_ld:mvl_objb.obj
 0001:0003a1c0       _mvl_vmd_dom_insert        0043b1c0 f   mvl_ld:mvl_objb.obj
 0001:0003a1f0       _mvl_vmd_var_insert        0043b1f0 f   mvl_ld:mvl_objb.obj
 0001:0003a380       _mvl_vmd_nvl_insert        0043b380 f   mvl_ld:mvl_objb.obj
 0001:0003a540       _mvl_vmd_jou_insert        0043b540 f   mvl_ld:mvl_objb.obj
 0001:0003a6d0       _mvl_vmd_dom_delete        0043b6d0 f   mvl_ld:mvl_objb.obj
 0001:0003a700       _mvl_vmd_var_delete        0043b700 f   mvl_ld:mvl_objb.obj
 0001:0003a880       _mvl_vmd_nvl_delete        0043b880 f   mvl_ld:mvl_objb.obj
 0001:0003aa00       _mvl_vmd_jou_delete        0043ba00 f   mvl_ld:mvl_objb.obj
 0001:0003ab80       _mvl_vmd_find_dom          0043bb80 f   mvl_ld:mvl_objb.obj
 0001:0003abb0       _mvl_vmd_dom_find_last     0043bbb0 f   mvl_ld:mvl_objb.obj
 0001:0003abe0       _mvl_vmd_find_var          0043bbe0 f   mvl_ld:mvl_objb.obj
 0001:0003ad50       _mvl_vmd_find_nvl          0043bd50 f   mvl_ld:mvl_objb.obj
 0001:0003aec0       _mvl_vmd_find_jou          0043bec0 f   mvl_ld:mvl_objb.obj
 0001:0003b040       _mvl_sort_objs             0043c040 f   mvl_ld:mvl_objb.obj
 0001:0003b150       __mvl_obj_compare          0043c150 f   mvl_ld:mvl_objb.obj
 0001:0003b180       __mvl_objname_to_va        0043c180 f   mvl_ld:MVL_VAR.obj
 0001:0003b230       _mvl_scope_set             0043c230 f   mvl_ld:MVL_VAR.obj
 0001:0003b2b0       _mvl_get_va_asn1_data      0043c2b0 f   mvl_ld:MVL_VAR.obj
 0001:0003b520       __mvl_get_asn1_aa          0043c520 f   mvl_ld:MVL_VAR.obj
 0001:0003b5f0       __m_get_aa_asn1_buf        0043c5f0 f   mvl_ld:MVL_VAR.obj
 0001:0003b660       __m_set_aa_asn1_buf_end    0043c660 f   mvl_ld:MVL_VAR.obj
 0001:0003b670       __m_free_aa_asn1_buf       0043c670 f   mvl_ld:MVL_VAR.obj
 0001:0003b6b0       _mvl_type_id_create        0043c6b0 f   mvl_ld:mvl_typ2.obj
 0001:0003b710       _mvl_type_id_destroy       0043c710 f   mvl_ld:mvl_typ2.obj
 0001:0003b780       _mvl_type_id_destroy_all_dyn 0043c780 f   mvl_ld:mvl_typ2.obj
 0001:0003b7e0       _mvl_vmd_type_id_create    0043c7e0 f   mvl_ld:mvl_typ2.obj
 0001:0003ba10       _mvl_type_id_create_from_tdl 0043ca10 f   mvl_ld:mvl_typ2.obj
 0001:0003bb50       _mvl_vmd_type_id_destroy   0043cb50 f   mvl_ld:mvl_typ2.obj
 0001:0003bbc0       _mvl_vmd_type_id_destroy_all 0043cbc0 f   mvl_ld:mvl_typ2.obj
 0001:0003bc50       _mvl_type_count            0043cc50 f   mvl_ld:mvl_typ2.obj
 0001:0003bca0       _mvl_vmd_type_ctrl_find    0043cca0 f   mvl_ld:mvl_typ2.obj
 0001:0003bd00       __mvl_send_resp_i          0043cd00 f   mvl_ld:mvl_send.obj
 0001:0003bd60       __mvl_send_resp            0043cd60 f   mvl_ld:mvl_send.obj
 0001:0003beb0       __mvl_send_req             0043ceb0 f   mvl_ld:mvl_send.obj
 0001:0003c0f0       _u_mvl_start_jread         0043d0f0 f   mvl_ld:mvl_ijou.obj
 0001:0003c4e0       _u_mvl_get_next_jread_entry 0043d4e0 f   mvl_ld:mvl_ijou.obj
 0001:0003c540       _u_mvl_free_jread_entry    0043d540 f   mvl_ld:mvl_ijou.obj
 0001:0003c550       _u_mvl_end_jread           0043d550 f   mvl_ld:mvl_ijou.obj
 0001:0003caa0       _gs_mutex_create           0043daa0 f   utility_ld:glbsem_w32.obj
 0001:0003cae0       _gs_translate_name         0043dae0 f   utility_ld:glbsem_w32.obj
 0001:0003cb90       _gs_named_mutex_create     0043db90 f   utility_ld:glbsem_w32.obj
 0001:0003ce60       _gs_mutex_get_tm           0043de60 f   utility_ld:glbsem_w32.obj
 0001:0003ced0       _gs_mutex_free             0043ded0 f   utility_ld:glbsem_w32.obj
 0001:0003cf80       _gs_mutex_destroy          0043df80 f   utility_ld:glbsem_w32.obj
 0001:0003d010       _gs_get_event_sem          0043e010 f   utility_ld:glbsem_w32.obj
 0001:0003d080       _gs_get_named_event_sem    0043e080 f   utility_ld:glbsem_w32.obj
 0001:0003d1d0       _gs_wait_event_sem         0043e1d0 f   utility_ld:glbsem_w32.obj
 0001:0003d2c0       _gs_wait_mult_event_sem    0043e2c0 f   utility_ld:glbsem_w32.obj
 0001:0003d3f0       _gs_signal_event_sem       0043e3f0 f   utility_ld:glbsem_w32.obj
 0001:0003d460       _gs_pulse_event_sem        0043e460 f   utility_ld:glbsem_w32.obj
 0001:0003d4d0       _gs_reset_event_sem        0043e4d0 f   utility_ld:glbsem_w32.obj
 0001:0003d540       _gs_free_event_sem         0043e540 f   utility_ld:glbsem_w32.obj
 0001:0003d5b0       _gs_start_thread           0043e5b0 f   utility_ld:glbsem_w32.obj
 0001:0003d690       _gs_wait_thread            0043e690 f   utility_ld:glbsem_w32.obj
 0001:0003d780       _gs_close_thread           0043e780 f   utility_ld:glbsem_w32.obj
 0001:0003d840       _gs_set_thread_name        0043e840 f   utility_ld:glbsem_w32.obj
 0001:0003d8d0       _gs_is_win_ver             0043e8d0 f   utility_ld:glbsem_w32.obj
 0001:0003dce0       _list_unlink               0043ece0 f   utility_ld:genlists.obj
 0001:0003ddf0       _list_add_first            0043edf0 f   utility_ld:genlists.obj
 0001:0003de90       _list_add_last             0043ee90 f   utility_ld:genlists.obj
 0001:0003df30       _list_get_first            0043ef30 f   utility_ld:genlists.obj
 0001:0003df60       _list_get_last             0043ef60 f   utility_ld:genlists.obj
 0001:0003dfa0       _list_move_to_first        0043efa0 f   utility_ld:genlists.obj
 0001:0003dfe0       _list_find_node            0043efe0 f   utility_ld:genlists.obj
 0001:0003e050       _list_add_node_after       0043f050 f   utility_ld:genlists.obj
 0001:0003e100       _list_get_next             0043f100 f   utility_ld:genlists.obj
 0001:0003e180       _list_get_sizeof           0043f180 f   utility_ld:genlists.obj
 0001:0003e1c0       _list_find_prev            0043f1c0 f   utility_ld:genlists.obj
 0001:0003e240       _list_find_last            0043f240 f   utility_ld:genlists.obj
 0001:0003e270       _sx_add_string             0043f270 f   utility_ld:sx_enc.obj
 0001:0003e2a0       _sx_add_buf                0043f2a0 f   utility_ld:sx_enc.obj
 0001:0003e400       _sx_start_encode           0043f400 f   utility_ld:sx_enc.obj
 0001:0003e440       _sx_start_encodeEx         0043f440 f   utility_ld:sx_enc.obj
 0001:0003e4a0       _sx_init_encode            0043f4a0 f   utility_ld:sx_enc.obj
 0001:0003e540       _sx_init_encodeEx          0043f540 f   utility_ld:sx_enc.obj
 0001:0003e660       _sx_end_encode             0043f660 f   utility_ld:sx_enc.obj
 0001:0003e760       _sx_end_element            0043f760 f   utility_ld:sx_enc.obj
 0001:0003e7b0       _sx_write_element          0043f7b0 f   utility_ld:sx_enc.obj
 0001:0003fab0       _sx_wr_string              00440ab0 f   utility_ld:sx_enc.obj
 0001:0003fe60       _sx_wrx_string_el          00440e60 f   utility_ld:sx_enc.obj
 0001:0003fec0       _sx_wr_nstring             00440ec0 f   utility_ld:sx_enc.obj
 0001:00040220       _sx_wrx_nstring_el         00441220 f   utility_ld:sx_enc.obj
 0001:00040280       _sx_wr_bitstring           00441280 f   utility_ld:sx_enc.obj
 0001:000405b0       _sx_wrx_bitstring_el       004415b0 f   utility_ld:sx_enc.obj
 0001:00040610       _sx_wr_int                 00441610 f   utility_ld:sx_enc.obj
 0001:00040800       _sx_wrx_int_el             00441800 f   utility_ld:sx_enc.obj
 0001:00040860       _sx_wr_uint                00441860 f   utility_ld:sx_enc.obj
 0001:00040a50       _sx_wrx_uint_el            00441a50 f   utility_ld:sx_enc.obj
 0001:00040ab0       _sx_wr_ulong               00441ab0 f   utility_ld:sx_enc.obj
 0001:00040ca0       _sx_wrx_ulong_el           00441ca0 f   utility_ld:sx_enc.obj
 0001:00040d00       _sx_wr_uint32_hex          00441d00 f   utility_ld:sx_enc.obj
 0001:00040ef0       _sx_wrx_uint32_hex_el      00441ef0 f   utility_ld:sx_enc.obj
 0001:00040f50       _sx_wr_double              00441f50 f   utility_ld:sx_enc.obj
 0001:00041140       _sx_wrx_double_el          00442140 f   utility_ld:sx_enc.obj
 0001:000411a0       _sx_wr_float               004421a0 f   utility_ld:sx_enc.obj
 0001:00041390       _sx_wrx_float_el           00442390 f   utility_ld:sx_enc.obj
 0001:000413f0       _sx_wr_long                004423f0 f   utility_ld:sx_enc.obj
 0001:000415e0       _sx_wrx_long_el            004425e0 f   utility_ld:sx_enc.obj
 0001:00041640       _sx_wr_bool                00442640 f   utility_ld:sx_enc.obj
 0001:00041910       _sx_wrx_bool_el            00442910 f   utility_ld:sx_enc.obj
 0001:00041970       _sx_wr_time                00442970 f   utility_ld:sx_enc.obj
 0001:00041b90       _sx_wr_tm                  00442b90 f   utility_ld:sx_enc.obj
 0001:00041d90       _XmlDurationToString       00442d90 f   utility_ld:sx_enc.obj
 0001:000420e0       _sx_wr_duration            004430e0 f   utility_ld:sx_enc.obj
 0001:000422d0       _sx_wr_xtime               004432d0 f   utility_ld:sx_enc.obj
 0001:00042540       _sx_wrx_duration_el        00443540 f   utility_ld:sx_enc.obj
 0001:000425a0       _sx_wrx_xtime_el           004435a0 f   utility_ld:sx_enc.obj
 0001:00042600       _sx_wrx_time_el            00443600 f   utility_ld:sx_enc.obj
 0001:00042660       _sx_wrx_tm_el              00443660 f   utility_ld:sx_enc.obj
 0001:000426c0       _sx_wr_cdata               004436c0 f   utility_ld:sx_enc.obj
 0001:00042c10       _sx_wrx_cdata_el           00443c10 f   utility_ld:sx_enc.obj
 0001:00042c70       _sx_wr_comment             00443c70 f   utility_ld:sx_enc.obj
 0001:00043490       _sx_format_string_enc      00444490 f   utility_ld:sx_enc.obj
 0001:000435e0       _sx_format_nstring_enc     004445e0 f   utility_ld:sx_enc.obj
 0001:00043740       _sx_parseExx_mt            00444740 f   utility_ld:sx_dec.obj
 0001:00043930       _sx_parse_mt               00444930 f   utility_ld:sx_dec.obj
 0001:00043a90       _sx_parseEx_mt             00444a90 f   utility_ld:sx_dec.obj
 0001:00043c30       _sxStartElement            00444c30 f   utility_ld:sx_dec.obj
 0001:00043f60       _sxEndElement              00444f60 f   utility_ld:sx_dec.obj
 0001:00044150       _sx_push                   00445150 f   utility_ld:sx_dec.obj
 0001:00044220       _sx_pop                    00445220 f   utility_ld:sx_dec.obj
 0001:00044340       __uibed_find_element       00445340 f   utility_ld:sx_dec.obj
 0001:000443d0       _sx_get_element_contents   004453d0 f   utility_ld:sx_dec.obj
 0001:000444b0       _sx_find_element_contents  004454b0 f   utility_ld:sx_dec.obj
 0001:00044620       _sx_get_entity             00445620 f   utility_ld:sx_dec.obj
 0001:00044740       _sx_get_bool               00445740 f   utility_ld:sx_dec.obj
 0001:00044790       _sx_get_int                00445790 f   utility_ld:sx_dec.obj
 0001:000447b0       _sx_get_float              004457b0 f   utility_ld:sx_dec.obj
 0001:000447d0       _sx_get_double             004457d0 f   utility_ld:sx_dec.obj
 0001:000447f0       _sx_get_uchar              004457f0 f   utility_ld:sx_dec.obj
 0001:00044810       _sx_get_int16              00445810 f   utility_ld:sx_dec.obj
 0001:00044850       _sx_get_uint16             00445850 f   utility_ld:sx_dec.obj
 0001:00044870       _sx_get_uint32             00445870 f   utility_ld:sx_dec.obj
 0001:000448b0       _sx_get_uint32_hex         004458b0 f   utility_ld:sx_dec.obj
 0001:000448f0       _sx_get_int32              004458f0 f   utility_ld:sx_dec.obj
 0001:00044930       _sx_get_long               00445930 f   utility_ld:sx_dec.obj
 0001:00044950       _sx_get_ulong              00445950 f   utility_ld:sx_dec.obj
 0001:00044970       _sx_get_uint               00445970 f   utility_ld:sx_dec.obj
 0001:00044990       _sx_get_value              00445990 f   utility_ld:sx_dec.obj
 0001:00044a30       _sx_get_alloc_string       00445a30 f   utility_ld:sx_dec.obj
 0001:00044a90       _sx_get_string             00445a90 f   utility_ld:sx_dec.obj
 0001:00044b40       _sx_format_string_dec      00445b40 f   utility_ld:sx_dec.obj
 0001:00044d20       _sx_get_bool_attr          00445d20 f   utility_ld:sx_dec.obj
 0001:00044d70       _sx_get_int_attr           00445d70 f   utility_ld:sx_dec.obj
 0001:00044d90       _sx_get_float_attr         00445d90 f   utility_ld:sx_dec.obj
 0001:00044db0       _sx_get_double_attr        00445db0 f   utility_ld:sx_dec.obj
 0001:00044dd0       _sx_get_uchar_attr         00445dd0 f   utility_ld:sx_dec.obj
 0001:00044df0       _sx_get_int16_attr         00445df0 f   utility_ld:sx_dec.obj
 0001:00044e30       _sx_get_uint16_attr        00445e30 f   utility_ld:sx_dec.obj
 0001:00044e70       _sx_get_uint32_attr        00445e70 f   utility_ld:sx_dec.obj
 0001:00044eb0       _sx_get_int32_attr         00445eb0 f   utility_ld:sx_dec.obj
 0001:00044ef0       _sx_get_long_attr          00445ef0 f   utility_ld:sx_dec.obj
 0001:00044f10       _sx_get_ulong_attr         00445f10 f   utility_ld:sx_dec.obj
 0001:00044f30       _sx_get_uint_attr          00445f30 f   utility_ld:sx_dec.obj
 0001:00044f50       _XmlStringToDuration       00445f50 f   utility_ld:sx_dec.obj
 0001:00045300       _sx_get_duration_attr      00446300 f   utility_ld:sx_dec.obj
 0001:000453b0       _sx_get_xtime_attr         004463b0 f   utility_ld:sx_dec.obj
 0001:00045460       _sx_get_tm_attr            00446460 f   utility_ld:sx_dec.obj
 0001:00045510       _sx_get_attr_value         00446510 f   utility_ld:sx_dec.obj
 0001:000455f0       _sx_get_attr               004465f0 f   utility_ld:sx_dec.obj
 0001:00045670       _sx_get_attr_ptr           00446670 f   utility_ld:sx_dec.obj
 0001:000456e0       _sx_get_bitstring          004466e0 f   utility_ld:sx_dec.obj
 0001:00045890       _sx_get_string_ptr         00446890 f   utility_ld:sx_dec.obj
 0001:000458f0       _sx_get_string_YesNo       004468f0 f   utility_ld:sx_dec.obj
 0001:000459b0       _sx_get_string_OnOff_mask  004469b0 f   utility_ld:sx_dec.obj
 0001:00045a80       _sx_get_string_OnOff_bool  00446a80 f   utility_ld:sx_dec.obj
 0001:00045b40       _sx_get_time               00446b40 f   utility_ld:sx_dec.obj
 0001:00045bf0       _sx_get_tm                 00446bf0 f   utility_ld:sx_dec.obj
 0001:00045c90       _sx_get_tm_ex              00446c90 f   utility_ld:sx_dec.obj
 0001:00045e30       _sx_get_duration           00446e30 f   utility_ld:sx_dec.obj
 0001:00045ee0       _sx_get_xtime              00446ee0 f   utility_ld:sx_dec.obj
 0001:00045f90       _sx_get_time_ex            00446f90 f   utility_ld:sx_dec.obj
 0001:00046150       _sx_rip_xml                00447150 f   utility_ld:sx_dec.obj
 0001:00047e80       _sx_load_characters        00448e80 f   utility_ld:sx_dec.obj
 0001:00047f20       _ascii_to_hex_str          00448f20 f   utility_ld:str_util.obj
 0001:00048040       _hex_to_ascii_str          00449040 f   utility_ld:str_util.obj
 0001:00048140       _strnstr                   00449140 f   utility_ld:str_util.obj
 0001:00048200       _strncat_maxstrlen         00449200 f   utility_ld:str_util.obj
 0001:00048250       _strncpy_safe              00449250 f   utility_ld:str_util.obj
 0001:00048280       _asciiToSlong              00449280 f   utility_ld:str_util.obj
 0001:000482d0       _asciiToUlong              004492d0 f   utility_ld:str_util.obj
 0001:00048320       _asciiToSint               00449320 f   utility_ld:str_util.obj
 0001:00048380       _asciiToUint               00449380 f   utility_ld:str_util.obj
 0001:000483e0       _asciiToSint32             004493e0 f   utility_ld:str_util.obj
 0001:00048440       _asciiToUint32             00449440 f   utility_ld:str_util.obj
 0001:000484a0       _asciiToSint16             004494a0 f   utility_ld:str_util.obj
 0001:00048520       _asciiToUint16             00449520 f   utility_ld:str_util.obj
 0001:00048590       _asciiToUchar              00449590 f   utility_ld:str_util.obj
 0001:00048600       _asciiToSint8              00449600 f   utility_ld:str_util.obj
 0001:00048670       _asciiToUint8              00449670 f   utility_ld:str_util.obj
 0001:000486e0       _asciiToFloat              004496e0 f   utility_ld:str_util.obj
 0001:00048760       _asciiToDouble             00449760 f   utility_ld:str_util.obj
 0001:000487b0       _sInt8ToAscii              004497b0 f   utility_ld:str_util.obj
 0001:000487d0       _uInt8ToAscii              004497d0 f   utility_ld:str_util.obj
 0001:000487f0       _sInt16ToAscii             004497f0 f   utility_ld:str_util.obj
 0001:00048810       _uInt16ToAscii             00449810 f   utility_ld:str_util.obj
 0001:00048830       _sInt32ToAscii             00449830 f   utility_ld:str_util.obj
 0001:00048850       _uInt32ToAscii             00449850 f   utility_ld:str_util.obj
 0001:00048870       _sIntToAscii               00449870 f   utility_ld:str_util.obj
 0001:00048890       _uIntToAscii               00449890 f   utility_ld:str_util.obj
 0001:000488b0       _sLongToAscii              004498b0 f   utility_ld:str_util.obj
 0001:000488d0       _uLongToAscii              004498d0 f   utility_ld:str_util.obj
 0001:000489e0       _getKeywordFromFile        004499e0 f   utility_ld:str_util.obj
 0001:00048c20       _get_next_string           00449c20 f   utility_ld:str_util.obj
 0001:00048d50       _gs_init                   00449d50 f   utility_ld:glbsem.obj
 0001:00048dd0       _gs_log_sem_state          00449dd0 f   utility_ld:glbsem.obj
 0001:00048e90       _gs_get_semx               00449e90 f   utility_ld:glbsem.obj
 0001:00049040       _gs_free_semx              0044a040 f   utility_ld:glbsem.obj
 0001:000492e0       _stimeInit                 0044a2e0 f   utility_ld:stime.obj
 0001:000493f0       _sGetMsTime                0044a3f0 f   utility_ld:stime.obj
 0001:00049450       _sGetSysMsTime             0044a450 f   utility_ld:stime.obj
 0001:000494a0       _sResetMsTime              0044a4a0 f   utility_ld:stime.obj
 0001:000494e0       _stimeExit                 0044a4e0 f   utility_ld:stime.obj
 0001:00049520       _sMsSleep                  0044a520 f   utility_ld:stime.obj
 0001:00049530       _sockStart                 0044a530 f   utility_ld:gensock2.obj
 0001:00049550       _sockStartEx               0044a550 f   utility_ld:gensock2.obj
 0001:00049840       _sockEnd                   0044a840 f   utility_ld:gensock2.obj
 0001:00049a20       _sockInitCalling           0044aa20 f   utility_ld:gensock2.obj
 0001:00049fa0       _sockInitListen            0044afa0 f   utility_ld:gensock2.obj
 0001:0004a3d0       _sockTxMsg                 0044b3d0 f   utility_ld:gensock2.obj
 0001:0004a410       _sockTxQueueAdd            0044b410 f   utility_ld:gensock2.obj
 0001:0004a4c0       _sockTxQueueDestroy        0044b4c0 f   utility_ld:gensock2.obj
 0001:0004a550       _sockTxQueueProc           0044b550 f   utility_ld:gensock2.obj
 0001:0004a710       _sockTxQueueGroupCntGet    0044b710 f   utility_ld:gensock2.obj
 0001:0004a760       _sockTx                    0044b760 f   utility_ld:gensock2.obj
 0001:0004a830       __sockTx                   0044b830 f   utility_ld:gensock2.obj
 0001:0004aaf0       _sockClose                 0044baf0 f   utility_ld:gensock2.obj
 0001:0004abf0       _sockFree                  0044bbf0 f   utility_ld:gensock2.obj
 0001:0004ae40       _sockServiceWakeAll        0044be40 f   utility_ld:gensock2.obj
 0001:0004ae80       _sockServiceWake           0044be80 f   utility_ld:gensock2.obj
 0001:0004afb0       _sockCtrlService           0044bfb0 f   utility_ld:gensock2.obj
 0001:0004b270       _sockInitFds               0044c270 f   utility_ld:gensock2.obj
 0001:0004b3a0       _sockAddReadFds            0044c3a0 f   utility_ld:gensock2.obj
 0001:0004b450       _sockAddWriteFds           0044c450 f   utility_ld:gensock2.obj
 0001:0004b510       _sockAddExceptFds          0044c510 f   utility_ld:gensock2.obj
 0001:0004b5d0       _sockSelectResultProcess   0044c5d0 f   utility_ld:gensock2.obj
 0001:0004c650       __sockRecv                 0044d650 f   utility_ld:gensock2.obj
 0001:0004c810       __sockAllocSock            0044d810 f   utility_ld:gensock2.obj
 0001:0004cb10       __sockAddSock              0044db10 f   utility_ld:gensock2.obj
 0001:0004d0c0       _sockCreateWakeupSockets   0044e0c0 f   utility_ld:gensock2.obj
 0001:0004d820       _sockLogState              0044e820 f   utility_ld:gensock2.obj
 0001:0004d9a0       _sockLogSockState          0044e9a0 f   utility_ld:gensock2.obj
 0001:0004dbb0       _sockGetRemAddrInfo        0044ebb0 f   utility_ld:gensock2.obj
 0001:0004dc50       _sockUsrFun                0044ec50 f   utility_ld:gensock2.obj
 0001:0004dde0       _convertIPAddr             0044ede0 f   utility_ld:gensock2.obj
 0001:0004e050       _sockEventPut              0044f050 f   utility_ld:gensock2.obj
 0001:0004e0a0       _sockEventGet              0044f0a0 f   utility_ld:gensock2.obj
 0001:0004e0f0       _sockEventQueueFlush       0044f0f0 f   utility_ld:gensock2.obj
 0001:0004e180       _tstrTimeToString          0044f180 f   utility_ld:time_str.obj
 0001:0004e1d0       _tstrTimeToStringGmt       0044f1d0 f   utility_ld:time_str.obj
 0001:0004e220       _getDateOrder              0044f220 f   utility_ld:time_str.obj
 0001:0004e280       _storeDateValue            0044f280 f   utility_ld:time_str.obj
 0001:0004e700       _storeTimeValue            0044f700 f   utility_ld:time_str.obj
 0001:0004ec60       _tstrStringToTm            0044fc60 f   utility_ld:time_str.obj
 0001:0004f480       _tstrStringToTime          00450480 f   utility_ld:time_str.obj
 0001:0004f510       _tstrStringToTimeGmt       00450510 f   utility_ld:time_str.obj
 0001:0004f580       _tstrTmToString            00450580 f   utility_ld:time_str.obj
 0001:0004f5b0       _Btime6StringToVals        004505b0 f   utility_ld:time_str.obj
 0001:0004f750       _Btime6ValsToString        00450750 f   utility_ld:time_str.obj
 0001:0004f8f0       _Btime4StringToVals        004508f0 f   utility_ld:time_str.obj
 0001:0004fb10       _Btime4ValsToString        00450b10 f   utility_ld:time_str.obj
 0001:0004fcc0       _UtcStringToVals           00450cc0 f   utility_ld:time_str.obj
 0001:000501f0       _UtcValsToString           004511f0 f   utility_ld:time_str.obj
 0001:000503b0       _XmlStringToUtcValue       004513b0 f   utility_ld:time_str.obj
 0001:00050590       _UtcValueToXmlString       00451590 f   utility_ld:time_str.obj
 0001:00050760       _CalculateTimeZoneOffset   00451760 f   utility_ld:time_str.obj
 0001:00050820       _GetTimeAndUsec            00451820 f   utility_ld:time_str.obj
 0001:00050860       _usr_mkgmtime              00451860 f   utility_ld:time_str.obj
 0001:00050cc0       _mms_file_read_rsp         00451cc0 f   mmsle_ld:rq_fread.obj
 0001:00050ed0       _mpl_fread                 00451ed0 f   mmsle_ld:rq_fread.obj
 0001:00050ef0       __ms_mk_fread_req          00451ef0 f   mmsle_ld:rq_fread.obj
 0001:00050f20       _mms_file_open_rsp         00451f20 f   mmsle_ld:rq_fopen.obj
 0001:00051140       _mpl_fopen                 00452140 f   mmsle_ld:rq_fopen.obj
 0001:00051160       __ms_mk_fopen_req          00452160 f   mmsle_ld:rq_fopen.obj
 0001:000511e0       _mms_file_dir_req          004521e0 f   mmsle_ld:rs_fdir.obj
 0001:00051490       _mpl_fdir_resp             00452490 f   mmsle_ld:rs_fdir.obj
 0001:000514b0       __ms_mk_fdir_resp          004524b0 f   mmsle_ld:rs_fdir.obj
 0001:00051710       _mms_file_delete_req       00452710 f   mmsle_ld:rs_fdele.obj
 0001:00051840       _mpl_fdelete_resp          00452840 f   mmsle_ld:rs_fdele.obj
 0001:00051860       _mms_file_rename_req       00452860 f   mmsle_ld:rs_frena.obj
 0001:00051a60       _mpl_frename_resp          00452a60 f   mmsle_ld:rs_frena.obj
 0001:00051a80       _mms_file_close_req        00452a80 f   mmsle_ld:rs_fclos.obj
 0001:00051af0       _mpl_fclose_resp           00452af0 f   mmsle_ld:rs_fclos.obj
 0001:00051b10       _mms_file_read_req         00452b10 f   mmsle_ld:rs_fread.obj
 0001:00051b80       _mpl_fread_resp            00452b80 f   mmsle_ld:rs_fread.obj
 0001:00051ba0       __ms_mk_fread_resp         00452ba0 f   mmsle_ld:rs_fread.obj
 0001:00051c20       _mms_file_open_req         00452c20 f   mmsle_ld:rs_fopen.obj
 0001:00051de0       _mpl_fopen_resp            00452de0 f   mmsle_ld:rs_fopen.obj
 0001:00051e00       __ms_mk_fopen_resp         00452e00 f   mmsle_ld:rs_fopen.obj
 0001:00051ec0       _mms_jstat_req             00452ec0 f   mmsle_ld:rs_jstat.obj
 0001:00051f60       _mpl_jstat_resp            00452f60 f   mmsle_ld:rs_jstat.obj
 0001:00051f80       __ms_mk_jstat_resp         00452f80 f   mmsle_ld:rs_jstat.obj
 0001:00051ff0       _mms_jinit_req             00452ff0 f   mmsle_ld:rs_jinit.obj
 0001:00052320       _mpl_jinit_resp            00453320 f   mmsle_ld:rs_jinit.obj
 0001:00052340       __ms_mk_jinit_resp         00453340 f   mmsle_ld:rs_jinit.obj
 0001:00052370       _mms_jread_req             00453370 f   mmsle_ld:rs_jread.obj
 0001:00052d00       _mpl_jread_resp            00453d00 f   mmsle_ld:rs_jread.obj
 0001:00052d20       __ms_mk_jread_resp         00453d20 f   mmsle_ld:rs_jread.obj
 0001:00052f50       _mms_obtain_file_req       00453f50 f   mmsle_ld:rs_obtfi.obj
 0001:00053260       _mpl_obtfile_resp          00454260 f   mmsle_ld:rs_obtfi.obj
 0001:00053280       _mms_del_vlist_req         00454280 f   mmsle_ld:rs_delvl.obj
 0001:000532a0       _mpl_delvlist_resp         004542a0 f   mmsle_ld:rs_delvl.obj
 0001:000532c0       __ms_mk_delvlist_resp      004542c0 f   mmsle_ld:rs_delvl.obj
 0001:00053330       _mms_def_vlist_req         00454330 f   mmsle_ld:rs_defvl.obj
 0001:00053490       _mpl_defvlist_resp         00454490 f   mmsle_ld:rs_defvl.obj
 0001:000534b0       _mpl_fclose                004544b0 f   mmsle_ld:rq_fclos.obj
 0001:000534d0       __ms_mk_fclose_req         004544d0 f   mmsle_ld:rq_fclos.obj
 0001:00053500       __ms_get_mms_fname         00454500 f   mmsle_ld:mms_ced2.obj
 0001:00053640       __ms_wr_mms_fname          00454640 f   mmsle_ld:mms_ced2.obj
 0001:000536b0       __ms_get_jou_ent_cont      004546b0 f   mmsle_ld:mms_ced1.obj
 0001:00053cb0       __ms_wr_jou_ent_cont       00454cb0 f   mmsle_ld:mms_ced1.obj
 0001:00053f00       _mms_del_type_req          00454f00 f   mmsle_ld:rs_delty.obj
 0001:00054290       _mpl_deltype_resp          00455290 f   mmsle_ld:rs_delty.obj
 0001:000542b0       __ms_mk_deltype_resp       004552b0 f   mmsle_ld:rs_delty.obj
 0001:00054315       __invoke_watson_if_error   00455315 f i LIBCMT:wassert.obj
 0001:00054357       __wassert                  00455357 f   LIBCMT:wassert.obj
 0001:00054aa9       __fclose_nolock            00455aa9 f   LIBCMT:fclose.obj
 0001:00054b20       _fclose                    00455b20 f   LIBCMT:fclose.obj
 0001:00054b9c       __fwrite_nolock            00455b9c f   LIBCMT:fwrite.obj
 0001:00054cfe       _fwrite                    00455cfe f   LIBCMT:fwrite.obj
 0001:00054d80       __fsopen                   00455d80 f   LIBCMT:fopen.obj
 0001:00054e44       _fopen                     00455e44 f   LIBCMT:fopen.obj
 0001:00054e5b       _fopen_s                   00455e5b f   LIBCMT:fopen.obj
 0001:00054eb0       _strstr                    00455eb0 f   LIBCMT:strstr.obj
 0001:00054f36       @__security_check_cookie@4 00455f36 f   LIBCMT:secchk.obj
 0001:00054f50       __alloca_probe             00455f50     LIBCMT:chkstk.obj
 0001:00054f50       __chkstk                   00455f50 f   LIBCMT:chkstk.obj
 0001:00054f80       _strlen                    00455f80 f   LIBCMT:strlen.obj
 0001:00055010       _strcmp                    00456010 f   LIBCMT:strcmp.obj
 0001:000550a0       _memcpy                    004560a0 f   LIBCMT:memcpy.obj
 0001:00055410       _strcpy                    00456410 f   LIBCMT:strcat.obj
 0001:00055420       _strcat                    00456420 f   LIBCMT:strcat.obj
 0001:00055508       _sprintf                   00456508 f   LIBCMT:sprintf.obj
 0001:00055585       __sprintf_l                00456585 f   LIBCMT:sprintf.obj
 0001:000555a1       _sprintf_s                 004565a1 f   LIBCMT:sprintf.obj
 0001:000555bf       __sprintf_s_l              004565bf f   LIBCMT:sprintf.obj
 0001:000555de       __snprintf_s               004565de f   LIBCMT:sprintf.obj
 0001:000555ff       __snprintf_s_l             004565ff f   LIBCMT:sprintf.obj
 0001:00055621       __sprintf_p                00456621 f   LIBCMT:sprintf.obj
 0001:0005563f       __sprintf_p_l              0045663f f   LIBCMT:sprintf.obj
 0001:0005565e       __scprintf                 0045665e f   LIBCMT:sprintf.obj
 0001:00055673       __scprintf_p               00456673 f   LIBCMT:sprintf.obj
 0001:00055688       __scprintf_l               00456688 f   LIBCMT:sprintf.obj
 0001:000556a1       __scprintf_p_l             004566a1 f   LIBCMT:sprintf.obj
 0001:000556ba       __fpclear                  004566ba f   LIBCMT:_fpinit_.obj
 0001:000556bb       __cfltcvt_init             004566bb f   LIBCMT:_fpinit_.obj
 0001:0005571b       ___setfflag                0045671b f   LIBCMT:_fpinit_.obj
 0001:00055730       __fpmath                   00456730 f   LIBCMT:_fpinit_.obj
 0001:00055753       __fread_nolock_s           00456753 f   LIBCMT:fread.obj
 0001:0005595d       __fread_nolock             0045695d f   LIBCMT:fread.obj
 0001:0005597a       _fread_s                   0045697a f   LIBCMT:fread.obj
 0001:00055a10       _fread                     00456a10 f   LIBCMT:fread.obj
 0001:00055a2d       __fstat64i32               00456a2d f   LIBCMT:fstati32.obj
 0001:00055d90       _memset                    00456d90 f   LIBCMT:memset.obj
 0001:00055e0a       __initp_misc_winsig        00456e0a f   LIBCMT:winsig.obj
 0001:00055efa       ___get_sigabrt             00456efa f   LIBCMT:winsig.obj
 0001:00055f07       ___fpecode                 00456f07 f   LIBCMT:winsig.obj
 0001:00055f10       ___pxcptinfoptrs           00456f10 f   LIBCMT:winsig.obj
 0001:00055f19       _signal                    00456f19 f   LIBCMT:winsig.obj
 0001:00056156       _raise                     00457156 f   LIBCMT:winsig.obj
 0001:00056306       __crt_waiting_on_module_handle 00457306 f   LIBCMT:crt0dat.obj
 0001:00056336       __amsg_exit                00457336 f   LIBCMT:crt0dat.obj
 0001:0005635f       ___crtCorExitProcess       0045735f f   LIBCMT:crt0dat.obj
 0001:0005638a       ___crtExitProcess          0045738a f   LIBCMT:crt0dat.obj
 0001:000563a2       __lockexit                 004573a2 f   LIBCMT:crt0dat.obj
 0001:000563ab       __unlockexit               004573ab f   LIBCMT:crt0dat.obj
 0001:000563d1       __initterm_e               004573d1 f   LIBCMT:crt0dat.obj
 0001:000563f5       __get_wpgmptr              004573f5 f   LIBCMT:crt0dat.obj
 0001:00056431       __get_pgmptr               00457431 f   LIBCMT:crt0dat.obj
 0001:0005646d       __cinit                    0045746d f   LIBCMT:crt0dat.obj
 0001:0005661e       _exit                      0045761e f   LIBCMT:crt0dat.obj
 0001:00056634       __exit                     00457634 f   LIBCMT:crt0dat.obj
 0001:0005664a       __cexit                    0045764a f   LIBCMT:crt0dat.obj
 0001:00056659       __c_exit                   00457659 f   LIBCMT:crt0dat.obj
 0001:00056668       __init_pointers            00457668 f   LIBCMT:crt0dat.obj
 0001:000566b6       _puts                      004576b6 f   LIBCMT:puts.obj
 0001:00056815       _printf                    00457815 f   LIBCMT:printf.obj
 0001:000568c4       __printf_l                 004578c4 f   LIBCMT:printf.obj
 0001:000568dd       __printf_s_l               004578dd f   LIBCMT:printf.obj
 0001:000568f6       _printf_s                  004578f6 f   LIBCMT:printf.obj
 0001:0005690e       __printf_p_l               0045790e f   LIBCMT:printf.obj
 0001:00056927       __printf_p                 00457927 f   LIBCMT:printf.obj
 0001:0005693f       __set_printf_count_output  0045793f f   LIBCMT:printf.obj
 0001:00056969       __get_printf_count_output  00457969 f   LIBCMT:printf.obj
 0001:0005697f       _setbuf                    0045797f f   LIBCMT:setbuf.obj
 0001:000569a7       ___iob_func                004579a7 f   LIBCMT:_file.obj
 0001:000569ad       ___initstdio               004579ad f   LIBCMT:_file.obj
 0001:00056a5e       ___endstdio                00457a5e f   LIBCMT:_file.obj
 0001:00056a7e       __lock_file                00457a7e f   LIBCMT:_file.obj
 0001:00056abf       __lock_file2               00457abf f   LIBCMT:_file.obj
 0001:00056af1       __unlock_file              00457af1 f   LIBCMT:_file.obj
 0001:00056b2d       __unlock_file2             00457b2d f   LIBCMT:_file.obj
 0001:00056b5c       __time64                   00457b5c f   LIBCMT:time64.obj
 0001:00056bad       __fseek_nolock             00457bad f   LIBCMT:fseek.obj
 0001:00056c37       _fseek                     00457c37 f   LIBCMT:fseek.obj
 0001:00056cbc       _feof                      00457cbc f   LIBCMT:feoferr.obj
 0001:00056cf0       _ferror                    00457cf0 f   LIBCMT:feoferr.obj
 0001:00056d24       _remove                    00457d24 f   LIBCMT:unlink.obj
 0001:00056d54       __unlink                   00457d54 f   LIBCMT:unlink.obj
 0001:00056d5f       _rename                    00457d5f f   LIBCMT:rename.obj
 0001:00056d92       _V6_HeapAlloc              00457d92 f   LIBCMT:malloc.obj
 0001:00056de1       __heap_alloc               00457de1 f i LIBCMT:malloc.obj
 0001:00056e5b       _malloc                    00457e5b f   LIBCMT:malloc.obj
 0001:00056f25       _free                      00457f25 f   LIBCMT:free.obj
 0001:00057175       _mainCRTStartup            00458175 f   LIBCMT:crt0.obj
 0001:0005717f       _calloc                    0045817f f   LIBCMT:calloc.obj
 0001:000571bf       _realloc                   004581bf f   LIBCMT:realloc.obj
 0001:000573da       _abs                       004583da f   LIBCMT:abs.obj
 0001:000573ea       __abs64                    004583ea f   LIBCMT:abs.obj
 0001:00057410       __ftol2_sse                00458410 f   LIBCMT:ftol2.obj
 0001:00057419       __ftol2_pentium4           00458419 f   LIBCMT:ftol2.obj
 0001:0005742c       __ftol2_sse_excpt          0045842c f   LIBCMT:ftol2.obj
 0001:00057446       __ftol2                    00458446 f   LIBCMT:ftol2.obj
 0001:000574c0       __allrem                   004584c0 f   LIBCMT:llrem.obj
 0001:00057572       _ldiv                      00458572 f   LIBCMT:ldiv.obj
 0001:00057580       __difftime64               00458580 f   LIBCMT:difftm64.obj
 0001:00058b39       _memcmp                    00459b39 f   LIBCMT:memcmp.obj
 0001:0005a1d0       _strchr                    0045b1d0 f   LIBCMT:strchr.obj
 0001:0005a1d6       ___from_strstr_to_strchr   0045b1d6     LIBCMT:strchr.obj
 0001:0005a28e       _atol                      0045b28e f   LIBCMT:atox.obj
 0001:0005a2a4       __atol_l                   0045b2a4 f   LIBCMT:atox.obj
 0001:0005a2bd       _atoi                      0045b2bd f   LIBCMT:atox.obj
 0001:0005a2c8       __atoi_l                   0045b2c8 f   LIBCMT:atox.obj
 0001:0005a2d3       __atoi64                   0045b2d3 f   LIBCMT:atox.obj
 0001:0005a2e9       __atoi64_l                 0045b2e9 f   LIBCMT:atox.obj
 0001:0005a310       _strncpy                   0045b310 f   LIBCMT:strncpy.obj
 0001:0005a434       __vsnprintf_l              0045b434 f   LIBCMT:vsnprint.obj
 0001:0005a4e7       __vsnprintf                0045b4e7 f   LIBCMT:vsnprint.obj
 0001:0005a504       _fprintf                   0045b504 f   LIBCMT:fprintf.obj
 0001:0005a620       __fprintf_l                0045b620 f   LIBCMT:fprintf.obj
 0001:0005a63c       __fprintf_s_l              0045b63c f   LIBCMT:fprintf.obj
 0001:0005a658       _fprintf_s                 0045b658 f   LIBCMT:fprintf.obj
 0001:0005a673       __fprintf_p_l              0045b673 f   LIBCMT:fprintf.obj
 0001:0005a68f       __fprintf_p                0045b68f f   LIBCMT:fprintf.obj
 0001:0005a6b0       _strncat                   0045b6b0 f   LIBCMT:strncat.obj
 0001:0005a7e5       ??0_LocaleUpdate@@QAE@PAUlocaleinfo_struct@@@Z 0045b7e5 f i LIBCMT:_ctype.obj
 0001:0005a86c       ??1_LocaleUpdate@@QAE@XZ   0045b86c f i LIBCMT:_ctype.obj
 0001:0005a87a       ?GetLocaleT@_LocaleUpdate@@QAEPAUlocaleinfo_struct@@XZ 0045b87a f i LIBCMT:_ctype.obj
 0001:0005a87d       __isalpha_l                0045b87d f i LIBCMT:_ctype.obj
 0001:0005a8d3       _isalpha                   0045b8d3 f i LIBCMT:_ctype.obj
 0001:0005a903       __isupper_l                0045b903 f i LIBCMT:_ctype.obj
 0001:0005a954       _isupper                   0045b954 f i LIBCMT:_ctype.obj
 0001:0005a982       __islower_l                0045b982 f i LIBCMT:_ctype.obj
 0001:0005a9d3       _islower                   0045b9d3 f i LIBCMT:_ctype.obj
 0001:0005aa01       __isdigit_l                0045ba01 f i LIBCMT:_ctype.obj
 0001:0005aa52       _isdigit                   0045ba52 f i LIBCMT:_ctype.obj
 0001:0005aa80       __isxdigit_l               0045ba80 f i LIBCMT:_ctype.obj
 0001:0005aad6       _isxdigit                  0045bad6 f i LIBCMT:_ctype.obj
 0001:0005ab06       __isspace_l                0045bb06 f i LIBCMT:_ctype.obj
 0001:0005ab57       _isspace                   0045bb57 f i LIBCMT:_ctype.obj
 0001:0005ab85       __ispunct_l                0045bb85 f i LIBCMT:_ctype.obj
 0001:0005abd6       _ispunct                   0045bbd6 f i LIBCMT:_ctype.obj
 0001:0005ac04       __isalnum_l                0045bc04 f i LIBCMT:_ctype.obj
 0001:0005ac5a       _isalnum                   0045bc5a f i LIBCMT:_ctype.obj
 0001:0005ac8a       __isprint_l                0045bc8a f i LIBCMT:_ctype.obj
 0001:0005ace0       _isprint                   0045bce0 f i LIBCMT:_ctype.obj
 0001:0005ad10       __isgraph_l                0045bd10 f i LIBCMT:_ctype.obj
 0001:0005ad66       _isgraph                   0045bd66 f i LIBCMT:_ctype.obj
 0001:0005ad96       __iscntrl_l                0045bd96 f i LIBCMT:_ctype.obj
 0001:0005ade7       _iscntrl                   0045bde7 f i LIBCMT:_ctype.obj
 0001:0005ae15       ___isascii                 0045be15 f i LIBCMT:_ctype.obj
 0001:0005ae27       ___toascii                 0045be27 f i LIBCMT:_ctype.obj
 0001:0005ae34       __iscsymf_l                0045be34 f i LIBCMT:_ctype.obj
 0001:0005ae57       ___iscsymf                 0045be57 f i LIBCMT:_ctype.obj
 0001:0005ae76       __iscsym_l                 0045be76 f i LIBCMT:_ctype.obj
 0001:0005ae99       ___iscsym                  0045be99 f i LIBCMT:_ctype.obj
 0001:0005aeba       __flush                    0045beba f   LIBCMT:fflush.obj
 0001:0005af22       __fflush_nolock            0045bf22 f   LIBCMT:fflush.obj
 0001:0005b044       _fflush                    0045c044 f   LIBCMT:fflush.obj
 0001:0005b097       __flushall                 0045c097 f   LIBCMT:fflush.obj
 0001:0005b0a0       __ftell_nolock             0045c0a0 f   LIBCMT:ftell.obj
 0001:0005b23d       _ftell                     0045c23d f   LIBCMT:ftell.obj
 0001:0005b2ab       _strncmp                   0045c2ab f   LIBCMT:strncmp.obj
 0001:0005b36b       _fgets                     0045c36b f   LIBCMT:fgets.obj
 0001:0005b4b3       _vfscanf                   0045c4b3 f   LIBCMT:fscanf.obj
 0001:0005b5bd       _fscanf                    0045c5bd f   LIBCMT:fscanf.obj
 0001:0005b5dd       __fscanf_l                 0045c5dd f   LIBCMT:fscanf.obj
 0001:0005b5fe       _fscanf_s                  0045c5fe f   LIBCMT:fscanf.obj
 0001:0005b61e       __fscanf_s_l               0045c61e f   LIBCMT:fscanf.obj
 0001:0005b63f       __ctime64_s                0045c63f f   LIBCMT:ctime64.obj
 0001:0005b6c9       __ctime64                  0045c6c9 f   LIBCMT:ctime64.obj
 0001:0005b72c       __get_sys_err_msg          0045c72c f i LIBCMT:strerror.obj
 0001:0005b754       _strerror                  0045c754 f   LIBCMT:strerror.obj
 0001:0005b7c0       _strerror_s                0045c7c0 f   LIBCMT:strerror.obj
 0001:0005b821       __get_errno_from_oserr     0045c821 f   LIBCMT:dosmap.obj
 0001:0005b863       __errno                    0045c863 f   LIBCMT:dosmap.obj
 0001:0005b876       ___doserrno                0045c876 f   LIBCMT:dosmap.obj
 0001:0005b889       __dosmaperr                0045c889 f   LIBCMT:dosmap.obj
 0001:0005b8ac       __set_errno                0045c8ac f   LIBCMT:dosmap.obj
 0001:0005b8cd       __get_errno                0045c8cd f   LIBCMT:dosmap.obj
 0001:0005b8fc       __set_doserrno             0045c8fc f   LIBCMT:dosmap.obj
 0001:0005b91d       __get_doserrno             0045c91d f   LIBCMT:dosmap.obj
 0001:0005b94c       _fputs                     0045c94c f   LIBCMT:fputs.obj
 0001:0005bd10       __mktime64                 0045cd10 f   LIBCMT:mktime64.obj
 0001:0005bd22       __mkgmtime64               0045cd22 f   LIBCMT:mktime64.obj
 0001:0005be00       _qsort                     0045ce00 f   LIBCMT:qsort.obj
 0001:0005c04d       _bsearch                   0045d04d f   LIBCMT:bsearch.obj
 0001:0005c110       _memmove                   0045d110 f   LIBCMT:memmove.obj
 0001:0005c475       __endthreadex              0045d475 f   LIBCMT:threadex.obj
 0001:0005c576       __beginthreadex            0045d576 f   LIBCMT:threadex.obj
 0001:0005c660       __except_handler4          0045d660 f   LIBCMT:chandler4.obj
 0001:0005c7ec       __MarkAllocaS              0045d7ec f i LIBCMT:strftime.obj
 0001:0005c802       __freea                    0045d802 f i LIBCMT:strftime.obj
 0001:0005c822       __Getdays_l                0045d822 f   LIBCMT:strftime.obj
 0001:0005c922       __Getdays                  0045d922 f   LIBCMT:strftime.obj
 0001:0005c92b       __Getmonths_l              0045d92b f   LIBCMT:strftime.obj
 0001:0005ca2b       __Getmonths                0045da2b f   LIBCMT:strftime.obj
 0001:0005ca34       __Gettnames_l              0045da34 f   LIBCMT:strftime.obj
 0001:0005cd8b       __Gettnames                0045dd8b f   LIBCMT:strftime.obj
 0001:0005d6ae       __Strftime_l               0045e6ae f   LIBCMT:strftime.obj
 0001:0005d852       __strftime_l               0045e852 f   LIBCMT:strftime.obj
 0001:0005d872       _strftime                  0045e872 f   LIBCMT:strftime.obj
 0001:0005d891       __Strftime                 0045e891 f   LIBCMT:strftime.obj
 0001:0005d8b1       __localtime64_s            0045e8b1 f   LIBCMT:loctim64.obj
 0001:0005db69       __localtime64              0045eb69 f   LIBCMT:loctim64.obj
 0001:0005dbfa       _sscanf                    0045ebfa f   LIBCMT:sscanf.obj
 0001:0005dc1c       __sscanf_l                 0045ec1c f   LIBCMT:sscanf.obj
 0001:0005dc3f       _sscanf_s                  0045ec3f f   LIBCMT:sscanf.obj
 0001:0005dc61       __sscanf_s_l               0045ec61 f   LIBCMT:sscanf.obj
 0001:0005dc84       __toupper                  0045ec84 f   LIBCMT:toupper.obj
 0001:0005dc91       __toupper_l                0045ec91 f   LIBCMT:toupper.obj
 0001:0005dda7       _toupper                   0045eda7 f   LIBCMT:toupper.obj
 0001:0005e002       _strtol                    0045f002 f   LIBCMT:strtol.obj
 0001:0005e02d       __strtol_l                 0045f02d f   LIBCMT:strtol.obj
 0001:0005e04a       _strtoul                   0045f04a f   LIBCMT:strtol.obj
 0001:0005e076       __strtoul_l                0045f076 f   LIBCMT:strtol.obj
 0001:0005e093       _fabs                      0045f093 f   LIBCMT:_fabs_.obj
 0001:0005e14d       __strtod_l                 0045f14d f   LIBCMT:strtod.obj
 0001:0005e26c       _strtod                    0045f26c f   LIBCMT:strtod.obj
 0001:0005e290       _strpbrk                   0045f290 f   LIBCMT:strpbrk.obj
 0001:0005e2d0       __gmtime64_s               0045f2d0 f   LIBCMT:gmtime64.obj
 0001:0005e513       __gmtime64                 0045f513 f   LIBCMT:gmtime64.obj
 0001:0005e540       __allmul                   0045f540 f   LIBCMT:llmul.obj
 0001:0005e580       __alldiv                   0045f580 f   LIBCMT:lldiv.obj
 0001:0005e62a       __ftime64_s                0045f62a f   LIBCMT:ftime64.obj
 0001:0005e7a0       __ftime64                  0045f7a0 f   LIBCMT:ftime64.obj
 0001:0005e7ab       __initp_misc_invarg        0045f7ab f   LIBCMT:invarg.obj
 0001:0005e7ba       __invoke_watson            0045f7ba f   LIBCMT:invarg.obj
 0001:0005e8e2       __set_invalid_parameter_handler 0045f8e2 f   LIBCMT:invarg.obj
 0001:0005e909       __get_invalid_parameter_handler 0045f909 f   LIBCMT:invarg.obj
 0001:0005e916       ?_invoke_watson@@YAXPBG00II@Z 0045f916 f   LIBCMT:invarg.obj
 0001:0005e921       __invalid_parameter        0045f921 f   LIBCMT:invarg.obj
 0001:0005e947       __invalid_parameter_noinfo 0045f947 f   LIBCMT:invarg.obj
 0001:0005e957       ?_invalid_parameter@@YAXPBG00II@Z 0045f957 f   LIBCMT:invarg.obj
 0001:0005e962       __vswprintf_helper         0045f962 f   LIBCMT:vswprnc.obj
 0001:0005ea5a       __vswprintf_c              0045fa5a f   LIBCMT:vswprnc.obj
 0001:0005ea83       __vswprintf_c_l            0045fa83 f   LIBCMT:vswprnc.obj
 0001:0005eaad       __vswprintf_s_l            0045faad f   LIBCMT:vswprnc.obj
 0001:0005eb38       _vswprintf_s               0045fb38 f   LIBCMT:vswprnc.obj
 0001:0005eb55       __vsnwprintf_s_l           0045fb55 f   LIBCMT:vswprnc.obj
 0001:0005ec61       __vsnwprintf_s             0045fc61 f   LIBCMT:vswprnc.obj
 0001:0005ec81       __vswprintf_p              0045fc81 f   LIBCMT:vswprnc.obj
 0001:0005ecaa       __vswprintf_p_l            0045fcaa f   LIBCMT:vswprnc.obj
 0001:0005ecd4       _fwprintf                  0045fcd4 f   LIBCMT:fwprintf.obj
 0001:0005ed68       __fwprintf_l               0045fd68 f   LIBCMT:fwprintf.obj
 0001:0005ed84       __fwprintf_s_l             0045fd84 f   LIBCMT:fwprintf.obj
 0001:0005eda0       _fwprintf_s                0045fda0 f   LIBCMT:fwprintf.obj
 0001:0005edbb       __fwprintf_p_l             0045fdbb f   LIBCMT:fwprintf.obj
 0001:0005edd7       __fwprintf_p               0045fdd7 f   LIBCMT:fwprintf.obj
 0001:0005edf2       _setvbuf                   0045fdf2 f   LIBCMT:setvbuf.obj
 0001:0005eef0       _abort                     0045fef0 f   LIBCMT:abort.obj
 0001:0005f007       __set_abort_behavior       00460007 f   LIBCMT:abort.obj
 0001:0005f028       ___crtMessageBoxW          00460028 f   LIBCMT:crtmboxw.obj
 0001:0005f287       __itow_s                   00460287 f   LIBCMT:xtows.obj
 0001:0005f2b3       __ltow_s                   004602b3 f   LIBCMT:xtows.obj
 0001:0005f2da       __ultow_s                  004602da f   LIBCMT:xtows.obj
 0001:0005f3fa       __i64tow_s                 004603fa f   LIBCMT:xtows.obj
 0001:0005f42f       __ui64tow_s                0046042f f   LIBCMT:xtows.obj
 0001:0005f44e       _wcsncat_s                 0046044e f   LIBCMT:wcsncat_s.obj
 0001:0005f53c       _wcsncpy_s                 0046053c f   LIBCMT:wcsncpy_s.obj
 0001:0005f60f       _wcslen                    0046060f f   LIBCMT:wcslen.obj
 0001:0005f629       _wcscat_s                  00460629 f   LIBCMT:wcscat_s.obj
 0001:0005f6a6       _wcscpy_s                  004606a6 f   LIBCMT:wcscpy_s.obj
 0001:0005f715       __set_error_mode           00460715 f   LIBCMT:errmode.obj
 0001:0005f760       ___set_app_type            00460760 f   LIBCMT:errmode.obj
 0001:0005f76f       ___get_app_type            0046076f f   LIBCMT:errmode.obj
 0001:0005f775       __close_nolock             00460775 f   LIBCMT:close.obj
 0001:0005f811       __close                    00460811 f   LIBCMT:close.obj
 0001:0005f8de       __fileno                   004608de f   LIBCMT:fileno.obj
 0001:0005f8de       _fileno                    004608de f   LIBCMT:fileno.obj
 0001:0005f910       __freebuf                  00460910 f   LIBCMT:_freebuf.obj
 0001:0005f944       __SEH_prolog4              00460944 f   LIBCMT:sehprolg4.obj
 0001:0005f989       __SEH_epilog4              00460989 f   LIBCMT:sehprolg4.obj
 0001:0005f99d       __flsbuf                   0046099d f   LIBCMT:_flsbuf.obj
 0001:0005fb01       __write_nolock             00460b01 f   LIBCMT:write.obj
 0001:00060234       __write                    00461234 f   LIBCMT:write.obj
 0001:00060310       __openfile                 00461310 f   LIBCMT:_open.obj
 0001:000605d9       __getstream                004615d9 f   LIBCMT:stream.obj
 0001:00060714       __local_unwind4            00461714 f   LIBCMT:exsup4.obj
 0001:000607ea       __seh_longjmp_unwind4@4    004617ea f   LIBCMT:exsup4.obj
 0001:00060806       @_EH4_CallFilterFunc@8     00461806 f   LIBCMT:exsup4.obj
 0001:0006081d       @_EH4_TransferToHandler@8  0046181d f   LIBCMT:exsup4.obj
 0001:00060836       @_EH4_GlobalUnwind@4       00461836 f   LIBCMT:exsup4.obj
 0001:00060850       @_EH4_LocalUnwind@16       00461850 f   LIBCMT:exsup4.obj
 0001:00060867       ___report_gsfailure        00461867 f   LIBCMT:gs_report.obj
 0001:000609f4       __VEC_memcpy               004619f4 f   LIBCMT:p4_memcpy.obj
 0001:00060b27       __get_sse2_info            00461b27 f   LIBCMT:cpu_disp.obj
 0001:00060b89       ___sse2_available_init     00461b89 f   LIBCMT:cpu_disp.obj
 0001:00060c3c       _get_int_arg               00461c3c f i LIBCMT:output.obj
 0001:00060c4e       _get_int64_arg             00461c4e f i LIBCMT:output.obj
 0001:00060c63       _get_short_arg             00461c63 f i LIBCMT:output.obj
 0001:00060c76       __output_l                 00461c76 f   LIBCMT:output.obj
 0001:0006180e       __vsprintf_l               0046280e f   LIBCMT:vsprintf.obj
 0001:0006188c       _vsprintf                  0046288c f   LIBCMT:vsprintf.obj
 0001:000618a6       __vscprintf_helper         004628a6 f   LIBCMT:vsprintf.obj
 0001:000618fd       __vscprintf                004628fd f   LIBCMT:vsprintf.obj
 0001:00061919       __vscprintf_l              00462919 f   LIBCMT:vsprintf.obj
 0001:00061936       __vscprintf_p              00462936 f   LIBCMT:vsprintf.obj
 0001:00061952       __vscprintf_p_l            00462952 f   LIBCMT:vsprintf.obj
 0001:0006196f       __vsnprintf_helper         0046296f f   LIBCMT:vsnprnc.obj
 0001:00061a3b       __vsnprintf_c              00462a3b f   LIBCMT:vsnprnc.obj
 0001:00061a64       __vsnprintf_c_l            00462a64 f   LIBCMT:vsnprnc.obj
 0001:00061a8e       __vsprintf_s_l             00462a8e f   LIBCMT:vsnprnc.obj
 0001:00061b16       _vsprintf_s                00462b16 f   LIBCMT:vsnprnc.obj
 0001:00061b33       __vsnprintf_s_l            00462b33 f   LIBCMT:vsnprnc.obj
 0001:00061c3a       __vsnprintf_s              00462c3a f   LIBCMT:vsnprnc.obj
 0001:00061c5a       __vsprintf_p               00462c5a f   LIBCMT:vsnprnc.obj
 0001:00061c83       __vsprintf_p_l             00462c83 f   LIBCMT:vsnprnc.obj
 0001:00061cad       ?strrchr@@YAPADPADH@Z      00462cad f i LIBCMT:cvt.obj
 0001:00061cb8       __forcdecpt_l              00462cb8 f   LIBCMT:cvt.obj
 0001:00061d2b       __cropzeros_l              00462d2b f   LIBCMT:cvt.obj
 0001:00061dad       __positive                 00462dad f   LIBCMT:cvt.obj
 0001:00061dc9       __fassign_l                00462dc9 f   LIBCMT:cvt.obj
 0001:00061e0b       __fassign                  00462e0b f   LIBCMT:cvt.obj
 0001:00061e44       __forcdecpt                00462e44 f   LIBCMT:cvt.obj
 0001:00061e57       __cropzeros                00462e57 f   LIBCMT:cvt.obj
 0001:00061fd9       __cftoe_l                  00462fd9 f   LIBCMT:cvt.obj
 0001:000620a9       __cftoe                    004630a9 f   LIBCMT:cvt.obj
 0001:000620c9       __cftoa_l                  004630c9 f   LIBCMT:cvt.obj
 0001:0006243c       __cftoa                    0046343c f   LIBCMT:cvt.obj
 0001:00062553       __cftof_l                  00463553 f   LIBCMT:cvt.obj
 0001:0006260e       __cftof                    0046360e f   LIBCMT:cvt.obj
 0001:0006262b       __cftog_l                  0046362b f   LIBCMT:cvt.obj
 0001:00062725       __cftog                    00463725 f   LIBCMT:cvt.obj
 0001:00062745       __cfltcvt_l                00463745 f   LIBCMT:cvt.obj
 0001:000627cd       __cfltcvt                  004637cd f   LIBCMT:cvt.obj
 0001:000627f0       __initp_misc_cfltcvt_tab   004637f0 f   LIBCMT:cmiscdat.obj
 0001:00062811       __setdefaultprecision      00463811 f   LIBCMT:fp8.obj
 0001:0006283c       __ms_p5_test_fdiv          0046383c f   LIBCMT:_testfdiv_.obj
 0001:0006287a       __ms_p5_mp_test_fdiv       0046387a f   LIBCMT:_testfdiv_.obj
 0001:000628a3       __filbuf                   004638a3 f   LIBCMT:_filbuf.obj
 0001:000629ce       __read_nolock              004639ce f   LIBCMT:read.obj
 0001:00062f90       __read                     00463f90 f   LIBCMT:read.obj
 0001:0006308d       _memcpy_s                  0046408d f   LIBCMT:memcpy_s.obj
 0001:0006310a       __set_osfhnd               0046410a f   LIBCMT:osfinfo.obj
 0001:0006318b       __free_osfhnd              0046418b f   LIBCMT:osfinfo.obj
 0001:00063211       __get_osfhandle            00464211 f   LIBCMT:osfinfo.obj
 0001:00063288       ___lock_fhandle            00464288 f   LIBCMT:osfinfo.obj
 0001:00063328       __unlock_fhandle           00464328 f   LIBCMT:osfinfo.obj
 0001:0006334f       __alloc_osfhnd             0046434f f   LIBCMT:osfinfo.obj
 0001:000634e9       __open_osfhandle           004644e9 f   LIBCMT:osfinfo.obj
 0001:000635ff       ___loctotime64_t           004645ff f   LIBCMT:dtoxtm64.obj
 0001:0006386a       __ioinit                   0046486a f   LIBCMT:ioinit.obj
 0001:00063abe       __ioterm                   00464abe f   LIBCMT:ioinit.obj
 0001:00063b63       __VEC_memzero              00464b63 f   LIBCMT:p4_memset.obj
 0001:00063bf2       __mtinitlocks              00464bf2 f   LIBCMT:mlock.obj
 0001:00063c3d       __mtdeletelocks            00464c3d f   LIBCMT:mlock.obj
 0001:00063c94       __unlock                   00464c94 f   LIBCMT:mlock.obj
 0001:00063cab       __lockerr_exit             00464cab f   LIBCMT:mlock.obj
 0001:00063cc3       __mtinitlocknum            00464cc3 f   LIBCMT:mlock.obj
 0001:00063d86       __lock                     00464d86 f   LIBCMT:mlock.obj
 0001:00063db9       __crt_wait_module_handle   00464db9 f i LIBCMT:tidtable.obj
 0001:00063dd3       __encode_pointer           00464dd3 f   LIBCMT:tidtable.obj
 0001:00063e45       __encoded_null             00464e45 f   LIBCMT:tidtable.obj
 0001:00063e4e       __decode_pointer           00464e4e f   LIBCMT:tidtable.obj
 0001:00063ec0       ___crtTlsAlloc@4           00464ec0 f   LIBCMT:tidtable.obj
 0001:00063ec9       ___fls_getvalue@4          00464ec9 f   LIBCMT:tidtable.obj
 0001:00063ee3       ___get_flsindex            00464ee3 f   LIBCMT:tidtable.obj
 0001:00063ee9       ___set_flsgetvalue         00464ee9 f   LIBCMT:tidtable.obj
 0001:00063f1d       ___fls_setvalue@8          00464f1d f   LIBCMT:tidtable.obj
 0001:00063f3a       __mtterm                   00464f3a f   LIBCMT:tidtable.obj
 0001:00063f77       __initptd                  00464f77 f   LIBCMT:tidtable.obj
 0001:0006405e       __getptd_noexit            0046505e f   LIBCMT:tidtable.obj
 0001:000640d7       __getptd                   004650d7 f   LIBCMT:tidtable.obj
 0001:000640f1       __freefls@4                004650f1 f   LIBCMT:tidtable.obj
 0001:00064220       __freeptd                  00465220 f   LIBCMT:tidtable.obj
 0001:0006428e       ___threadid                0046528e f   LIBCMT:tidtable.obj
 0001:00064294       ___threadhandle            00465294 f   LIBCMT:tidtable.obj
 0001:0006429a       __mtinit                   0046529a f   LIBCMT:tidtable.obj
 0001:00064427       __initp_misc_winxfltr      00465427 f   LIBCMT:winxfltr.obj
 0001:0006445d       __XcptFilter               0046545d f   LIBCMT:winxfltr.obj
 0001:000645bd       ___CppXcptFilter           004655bd f   LIBCMT:winxfltr.obj
 0001:000645dd       _wait_a_bit                004655dd f i LIBCMT:crtheap.obj
 0001:00064603       __set_malloc_crt_max_wait  00465603 f   LIBCMT:crtheap.obj
 0001:00064618       __malloc_crt               00465618 f   LIBCMT:crtheap.obj
 0001:0006465d       __calloc_crt               0046565d f   LIBCMT:crtheap.obj
 0001:000646a9       __realloc_crt              004656a9 f   LIBCMT:crtheap.obj
 0001:000646f7       __recalloc_crt             004656f7 f   LIBCMT:crtheap.obj
 0001:00064749       __NMSG_WRITE               00465749 f   LIBCMT:crt0msg.obj
 0001:000648f4       __GET_RTERRMSG             004658f4 f   LIBCMT:crt0msg.obj
 0001:0006491a       __FF_MSGBANNER             0046591a f   LIBCMT:crt0msg.obj
 0001:00064a0d       ___onexitinit              00465a0d f   LIBCMT:onexit.obj
 0001:00064a3e       __onexit                   00465a3e f   LIBCMT:onexit.obj
 0001:00064a7a       _atexit                    00465a7a f   LIBCMT:onexit.obj
 0001:00064a91       __RTC_Initialize           00465a91 f   LIBCMT:_initsect_.obj
 0001:00064ab7       __RTC_Terminate            00465ab7 f   LIBCMT:_initsect_.obj
 0001:00064ae0       __ValidateImageBase        00465ae0 f   LIBCMT:pesect.obj
 0001:00064b20       __FindPESection            00465b20 f   LIBCMT:pesect.obj
 0001:00064b70       __IsNonwritableInCurrentImage 00465b70 f   LIBCMT:pesect.obj
 0001:00064c2d       ?terminate@@YAXXZ          00465c2d f   LIBCMT:hooks.obj
 0001:00064c66       ?unexpected@@YAXXZ         00465c66 f   LIBCMT:hooks.obj
 0001:00064c79       ?_inconsistency@@YAXXZ     00465c79 f   LIBCMT:hooks.obj
 0001:00064cb1       __initp_eh_hooks           00465cb1 f   LIBCMT:hooks.obj
 0001:00064cc2       __initp_misc_rand_s        00465cc2 f   LIBCMT:rand_s.obj
 0001:00064cd1       _rand_s                    00465cd1 f   LIBCMT:rand_s.obj
 0001:00064dd9       ___getlocaleinfo           00465dd9 f   LIBCMT:inithelp.obj
 0001:00064f58       __initp_misc_purevirt      00465f58 f   LIBCMT:inithelp.obj
 0001:00064f67       __initp_misc_initcrit      00465f67 f   LIBCMT:initcrit.obj
 0001:00064f76       ___crtInitCritSecAndSpinCount 00465f76 f   LIBCMT:initcrit.obj
 0001:00064fd6       __initp_heap_handler       00465fd6 f   LIBCMT:handler.obj
 0001:00064fe5       ?_set_new_handler@@YAP6AHI@ZP6AHI@Z@Z 00465fe5 f   LIBCMT:handler.obj
 0001:0006501b       ?_set_new_handler@@YAP6AHI@ZH@Z 0046601b f   LIBCMT:handler.obj
 0001:00065024       ?_query_new_handler@@YAP6AHI@ZXZ 00466024 f   LIBCMT:handler.obj
 0001:00065031       __callnewh                 00466031 f   LIBCMT:handler.obj
 0001:00065059       __stbuf                    00466059 f   LIBCMT:_sftbuf.obj
 0001:000650f5       __ftbuf                    004660f5 f   LIBCMT:_sftbuf.obj
 0001:00065129       _vprintf_helper            00466129 f   LIBCMT:vprintf.obj
 0001:000651b9       __vprintf_l                004661b9 f   LIBCMT:vprintf.obj
 0001:000651d6       __vprintf_s_l              004661d6 f   LIBCMT:vprintf.obj
 0001:000651f3       __vprintf_p_l              004661f3 f   LIBCMT:vprintf.obj
 0001:00065210       _vprintf                   00466210 f   LIBCMT:vprintf.obj
 0001:0006522c       _vprintf_s                 0046622c f   LIBCMT:vprintf.obj
 0001:00065248       __vprintf_p                00466248 f   LIBCMT:vprintf.obj
 0001:00065264       __fcloseall                00466264 f   LIBCMT:closeall.obj
 0001:00065310       __aulldiv                  00466310 f   LIBCMT:ulldiv.obj
 0001:00065378       __lseek_nolock             00466378 f   LIBCMT:lseek.obj
 0001:000653ed       __lseek                    004663ed f   LIBCMT:lseek.obj
 0001:000654c9       __get_sbh_threshold        004664c9 f   LIBCMT:sbheap.obj
 0001:000654ea       __set_amblksiz             004664ea f   LIBCMT:sbheap.obj
 0001:00065535       __get_amblksiz             00466535 f   LIBCMT:sbheap.obj
 0001:00065576       ___sbh_heap_init           00466576 f   LIBCMT:sbheap.obj
 0001:000655c4       ___sbh_find_block          004665c4 f   LIBCMT:sbheap.obj
 0001:000655f4       ___sbh_free_block          004665f4 f   LIBCMT:sbheap.obj
 0001:0006590a       ___sbh_alloc_new_region    0046690a f   LIBCMT:sbheap.obj
 0001:000659ba       ___sbh_alloc_new_group     004669ba f   LIBCMT:sbheap.obj
 0001:00065ac2       ___sbh_resize_block        00466ac2 f   LIBCMT:sbheap.obj
 0001:00065da3       ___sbh_heapmin             00466da3 f   LIBCMT:sbheap.obj
 0001:00065e70       ___sbh_heap_check          00466e70 f   LIBCMT:sbheap.obj
 0001:00066154       __set_sbh_threshold        00467154 f   LIBCMT:sbheap.obj
 0001:00066203       ___sbh_alloc_block         00467203 f   LIBCMT:sbheap.obj
 0001:000664e8       ___heap_select             004674e8 f   LIBCMT:heapinit.obj
 0001:000664ec       __heap_init                004674ec f   LIBCMT:heapinit.obj
 0001:0006651c       __heap_term                0046751c f   LIBCMT:heapinit.obj
 0001:00066590       __get_heap_handle          00467590 f   LIBCMT:heapinit.obj
 0001:00066596       ?__CxxUnhandledExceptionFilter@@YGJPAU_EXCEPTION_POINTERS@@@Z 00467596 f   LIBCMT:unhandld.obj
 0001:000665d8       ___CxxSetUnhandledExceptionFilter 004675d8 f   LIBCMT:unhandld.obj
 0001:000665e6       __setenvp                  004675e6 f   LIBCMT:stdenvp.obj
 0001:000666c4       __set_pgmptr               004676c4 f i LIBCMT:stdargv.obj
 0001:0006686d       __setargv                  0046786d f   LIBCMT:stdargv.obj
 0001:00066928       ___crtGetEnvironmentStringsA 00467928 f   LIBCMT:a_env.obj
 0001:00066a5f       ___security_init_cookie    00467a5f f   LIBCMT:gs_support.obj
 0001:00066af5       __calloc_impl              00467af5 f   LIBCMT:calloc_impl.obj
 0001:00066eaa       __strtoi64                 00467eaa f   LIBCMT:strtoq.obj
 0001:00066ed5       __strtoi64_l               00467ed5 f   LIBCMT:strtoq.obj
 0001:00066ef2       __strtoui64                00467ef2 f   LIBCMT:strtoq.obj
 0001:00066f1e       __strtoui64_l              00467f1e f   LIBCMT:strtoq.obj
 0001:00066f3b       _vfprintf_helper           00467f3b f   LIBCMT:vfprintf.obj
 0001:00067056       __vfprintf_l               00468056 f   LIBCMT:vfprintf.obj
 0001:00067076       __vfprintf_s_l             00468076 f   LIBCMT:vfprintf.obj
 0001:00067096       __vfprintf_p_l             00468096 f   LIBCMT:vfprintf.obj
 0001:000670b6       _vfprintf                  004680b6 f   LIBCMT:vfprintf.obj
 0001:000670d5       _vfprintf_s                004680d5 f   LIBCMT:vfprintf.obj
 0001:000670f4       __vfprintf_p               004680f4 f   LIBCMT:vfprintf.obj
 0001:00067339       ___updatetmbcinfo          00468339 f   LIBCMT:mbctype.obj
 0001:00067459       __setmbcp_nolock           00468459 f   LIBCMT:mbctype.obj
 0001:0006763e       __getmbcp                  0046863e f   LIBCMT:mbctype.obj
 0001:0006767c       __setmbcp                  0046867c f   LIBCMT:mbctype.obj
 0001:00067816       ___initmbctable            00468816 f   LIBCMT:mbctype.obj
 0001:00067834       ____setlc_active_func      00468834 f   LIBCMT:setlocal.obj
 0001:0006783a       ____unguarded_readlc_active_add_func 0046883a f   LIBCMT:setlocal.obj
 0001:00067840       ___freetlocinfo            00468840 f   LIBCMT:setlocal.obj
 0001:00067989       ___addlocaleref            00468989 f   LIBCMT:setlocal.obj
 0001:00067a18       ___removelocaleref         00468a18 f   LIBCMT:setlocal.obj
 0001:00067b15       ___updatetlocinfo          00468b15 f   LIBCMT:setlocal.obj
 0001:00067b8b       __configthreadlocale       00468b8b f   LIBCMT:setlocal.obj
 0001:00067c48       __free_locale              00468c48 f   LIBCMT:setlocal.obj
 0001:00067d0a       ___free_locale             00468d0a f   LIBCMT:setlocal.obj
 0001:00067d15       __get_current_locale       00468d15 f   LIBCMT:setlocal.obj
 0001:00067dc4       ___get_current_locale      00468dc4 f   LIBCMT:setlocal.obj
 0001:00067dc9       ___init_dummy              00468dc9 f   LIBCMT:setlocal.obj
 0001:00067dcc       __strcats                  00468dcc f   LIBCMT:setlocal.obj
 0001:00067e0c       ___lc_strtolc              00468e0c f   LIBCMT:setlocal.obj
 0001:00067f35       ___lc_lctostr              00468f35 f   LIBCMT:setlocal.obj
 0001:0006811f       __expandlocale             0046911f f   LIBCMT:setlocal.obj
 0001:0006886d       __create_locale            0046986d f   LIBCMT:setlocal.obj
 0001:00068962       ___create_locale           00469962 f   LIBCMT:setlocal.obj
 0001:0006896d       _setlocale                 0046996d f   LIBCMT:setlocal.obj
 0001:00068add       __isctype_l                00469add f   LIBCMT:isctype.obj
 0001:00068b95       __isctype                  00469b95 f   LIBCMT:isctype.obj
 0001:00068bc7       __commit                   00469bc7 f   LIBCMT:commit.obj
 0001:00068cff       __INTRN_LOCALE_CONV        00469cff f i LIBCMT:input.obj
 0001:00068d84       __input_l                  00469d84 f   LIBCMT:input.obj
 0001:00069e0b       __input_s_l                0046ae0b f   LIBCMT:inputs.obj
 0001:0006af47       _asctime_s                 0046bf47 f   LIBCMT:asctime.obj
 0001:0006b115       _asctime                   0046c115 f   LIBCMT:asctime.obj
 0001:0006b161       ___sys_nerr                0046c161 f   LIBCMT:syserr.obj
 0001:0006b167       ___sys_errlist             0046c167 f   LIBCMT:syserr.obj
 0001:0006b16d       _strcpy_s                  0046c16d f   LIBCMT:strcpy_s.obj
 0001:0006b1d5       _strncpy_s                 0046c1d5 f   LIBCMT:strncpy_s.obj
 0001:0006b28a       __get_daylight             0046c28a f   LIBCMT:timeset.obj
 0001:0006b2c3       __get_dstbias              0046c2c3 f   LIBCMT:timeset.obj
 0001:0006b2fc       __get_timezone             0046c2fc f   LIBCMT:timeset.obj
 0001:0006b335       __get_tzname               0046c335 f   LIBCMT:timeset.obj
 0001:0006b3d9       ___daylight                0046c3d9 f   LIBCMT:timeset.obj
 0001:0006b3df       ___dstbias                 0046c3df f   LIBCMT:timeset.obj
 0001:0006b3e5       ___timezone                0046c3e5 f   LIBCMT:timeset.obj
 0001:0006b3eb       ___tzname                  0046c3eb f   LIBCMT:timeset.obj
 0001:0006b3f1       __set_daylight             0046c3f1 f i LIBCMT:tzset.obj
 0001:0006b402       __set_dstbias              0046c402 f i LIBCMT:tzset.obj
 0001:0006b413       __set_timezone             0046c413 f i LIBCMT:tzset.obj
 0001:0006bb39       ___tzset                   0046cb39 f   LIBCMT:tzset.obj
 0001:0006bb88       __tzset                    0046cb88 f   LIBCMT:tzset.obj
 0001:0006bbc0       __isindst                  0046cbc0 f   LIBCMT:tzset.obj
 0001:0006bc01       ___ascii_stricmp           0046cc01 f   LIBCMT:stricmp.obj
 0001:0006bc3a       __stricmp_l                0046cc3a f   LIBCMT:stricmp.obj
 0001:0006bd0f       __stricmp                  0046cd0f f   LIBCMT:stricmp.obj
 0001:0006bd0f       _stricmp                   0046cd0f f   LIBCMT:stricmp.obj
 0001:0006bd0f       _strcmpi                   0046cd0f f   LIBCMT:stricmp.obj
 0001:0006bd61       __isleadbyte_l             0046cd61 f i LIBCMT:_wctype.obj
 0001:0006bd99       _isleadbyte                0046cd99 f i LIBCMT:_wctype.obj
 0001:0006bdac       __iswalpha_l               0046cdac f i LIBCMT:_wctype.obj
 0001:0006bdc6       _iswalpha                  0046cdc6 f i LIBCMT:_wctype.obj
 0001:0006bddc       __iswupper_l               0046cddc f i LIBCMT:_wctype.obj
 0001:0006bdf3       _iswupper                  0046cdf3 f i LIBCMT:_wctype.obj
 0001:0006be06       __iswlower_l               0046ce06 f i LIBCMT:_wctype.obj
 0001:0006be1d       _iswlower                  0046ce1d f i LIBCMT:_wctype.obj
 0001:0006be30       __iswdigit_l               0046ce30 f i LIBCMT:_wctype.obj
 0001:0006be47       _iswdigit                  0046ce47 f i LIBCMT:_wctype.obj
 0001:0006be5a       __iswxdigit_l              0046ce5a f i LIBCMT:_wctype.obj
 0001:0006be74       _iswxdigit                 0046ce74 f i LIBCMT:_wctype.obj
 0001:0006be8a       __iswspace_l               0046ce8a f i LIBCMT:_wctype.obj
 0001:0006bea1       _iswspace                  0046cea1 f i LIBCMT:_wctype.obj
 0001:0006beb4       __iswpunct_l               0046ceb4 f i LIBCMT:_wctype.obj
 0001:0006becb       _iswpunct                  0046cecb f i LIBCMT:_wctype.obj
 0001:0006bede       __iswalnum_l               0046cede f i LIBCMT:_wctype.obj
 0001:0006bef8       _iswalnum                  0046cef8 f i LIBCMT:_wctype.obj
 0001:0006bf0e       __iswprint_l               0046cf0e f i LIBCMT:_wctype.obj
 0001:0006bf28       _iswprint                  0046cf28 f i LIBCMT:_wctype.obj
 0001:0006bf3e       __iswgraph_l               0046cf3e f i LIBCMT:_wctype.obj
 0001:0006bf58       _iswgraph                  0046cf58 f i LIBCMT:_wctype.obj
 0001:0006bf6e       __iswcntrl_l               0046cf6e f i LIBCMT:_wctype.obj
 0001:0006bf85       _iswcntrl                  0046cf85 f i LIBCMT:_wctype.obj
 0001:0006bf98       _iswascii                  0046cf98 f i LIBCMT:_wctype.obj
 0001:0006bfac       __iswcsym_l                0046cfac f i LIBCMT:_wctype.obj
 0001:0006bfd6       ___iswcsym                 0046cfd6 f i LIBCMT:_wctype.obj
 0001:0006bffc       __iswcsymf_l               0046cffc f i LIBCMT:_wctype.obj
 0001:0006c026       ___iswcsymf                0046d026 f i LIBCMT:_wctype.obj
 0001:0006c050       __alloca_probe_16          0046d050 f   LIBCMT:alloca16.obj
 0001:0006c066       __alloca_probe_8           0046d066     LIBCMT:alloca16.obj
 0001:0006c07c       __gmtime32_s               0046d07c f   LIBCMT:gmtime.obj
 0001:0006c1af       ___getgmtimebuf            0046d1af f   LIBCMT:gmtime.obj
 0001:0006c1e6       __gmtime32                 0046d1e6 f   LIBCMT:gmtime.obj
 0001:0006c5d0       ___crtLCMapStringA         0046d5d0 f   LIBCMT:a_map.obj
 0001:0006c615       __raise_exc_ex             0046d615 f   LIBCMT:_fpexcept_.obj
 0001:0006c8f1       __raise_exc                0046d8f1 f   LIBCMT:_fpexcept_.obj
 0001:0006c914       __raise_excf               0046d914 f   LIBCMT:_fpexcept_.obj
 0001:0006c937       __handle_exc               0046d937 f   LIBCMT:_fpexcept_.obj
 0001:0006cb19       __set_errno_from_matherr   0046db19 f   LIBCMT:_fpexcept_.obj
 0001:0006cb6c       __errcode                  0046db6c f   LIBCMT:_fpexcept_.obj
 0001:0006cba0       __umatherr                 0046dba0 f   LIBCMT:_fpexcept_.obj
 0001:0006cc40       __handle_qnan1             0046dc40 f   LIBCMT:_fpexcept_.obj
 0001:0006cc95       __handle_qnan2             0046dc95 f   LIBCMT:_fpexcept_.obj
 0001:0006ccf6       __except1                  0046dcf6 f   LIBCMT:_fpexcept_.obj
 0001:0006cdbf       __except2                  0046ddbf f   LIBCMT:_fpexcept_.obj
 0001:0006ce97       __set_exp                  0046de97 f   LIBCMT:_util_.obj
 0001:0006cec3       __get_exp                  0046dec3 f   LIBCMT:_util_.obj
 0001:0006cedb       __add_exp                  0046dedb f   LIBCMT:_util_.obj
 0001:0006cf08       __set_bexp                 0046df08 f   LIBCMT:_util_.obj
 0001:0006cf2f       __sptype                   0046df2f f   LIBCMT:_util_.obj
 0001:0006cf8f       __decomp                   0046df8f f   LIBCMT:_util_.obj
 0001:0006d048       __statfp                   0046e048 f   LIBCMT:_fpctrl_.obj
 0001:0006d058       __clrfp                    0046e058 f   LIBCMT:_fpctrl_.obj
 0001:0006d069       __ctrlfp                   0046e069 f   LIBCMT:_fpctrl_.obj
 0001:0006d092       __set_statfp               0046e092 f   LIBCMT:_fpctrl_.obj
 0001:0006d0ea       ___get_fpsr_sse2           0046e0ea f   LIBCMT:_fpctrl_.obj
 0001:0006d108       ___set_fpsr_sse2           0046e108 f   LIBCMT:_fpctrl_.obj
 0001:0006d17a       ___fclrf_sse2              0046e17a f   LIBCMT:_fpctrl_.obj
 0001:0006d197       ___statfp_sse2             0046e197 f   LIBCMT:_fpctrl_.obj
 0001:0006d1aa       ___clrfp_sse2              0046e1aa f   LIBCMT:_fpctrl_.obj
 0001:0006d1c2       ___ctrlfp_sse2             0046e1c2 f   LIBCMT:_fpctrl_.obj
 0001:0006d1f9       ___set_statfp_sse2         0046e1f9 f   LIBCMT:_fpctrl_.obj
 0001:0006d220       __fltin2                   0046e220 f   LIBCMT:_cfin_.obj
 0001:0006d2d0       __aullrem                  0046e2d0 f   LIBCMT:ullrem.obj
 0001:0006d345       __crt_debugger_hook        0046e345 f   LIBCMT:dbghook.obj
 0001:0006d3f5       __woutput_l                0046e3f5 f   LIBCMT:woutput.obj
 0001:0006e035       __woutput_s_l              0046f035 f   LIBCMT:woutputs.obj
 0001:0006ebd5       __validate_param_reuseW    0046fbd5 f   LIBCMT:woutputp.obj
 0001:0006edd3       __woutput_p_l              0046fdd3 f   LIBCMT:woutputp.obj
 0001:00070093       _vfwprintf_helper          00471093 f   LIBCMT:vfwprint.obj
 0001:00070126       __vfwprintf_l              00471126 f   LIBCMT:vfwprint.obj
 0001:00070146       __vfwprintf_s_l            00471146 f   LIBCMT:vfwprint.obj
 0001:00070166       __vfwprintf_p_l            00471166 f   LIBCMT:vfwprint.obj
 0001:00070186       _vfwprintf                 00471186 f   LIBCMT:vfwprint.obj
 0001:000701a5       _vfwprintf_s               004711a5 f   LIBCMT:vfwprint.obj
 0001:000701c4       __vfwprintf_p              004711c4 f   LIBCMT:vfwprint.obj
 0001:000701f0       __aulldvrm                 004711f0 f   LIBCMT:ulldvrm.obj
 0001:00070285       __lseeki64_nolock          00471285 f   LIBCMT:lseeki64.obj
 0001:0007030a       __lseeki64                 0047130a f   LIBCMT:lseeki64.obj
 0001:00070423       __getbuf                   00471423 f   LIBCMT:_getbuf.obj
 0001:0007046c       __isatty                   0047146c f   LIBCMT:isatty.obj
 0001:000704d0       __putwch_nolock            004714d0 f   LIBCMT:putwch.obj
 0001:00070595       __cputws                   00471595 f   LIBCMT:putwch.obj
 0001:00070634       __putwch                   00471634 f   LIBCMT:putwch.obj
 0001:0007067a       __mbtowc_l                 0047167a f   LIBCMT:mbtowc.obj
 0001:00070791       _mbtowc                    00471791 f   LIBCMT:mbtowc.obj
 0001:00070eca       __open                     00471eca f   LIBCMT:open.obj
 0001:00070f80       __sopen_helper             00471f80 f   LIBCMT:open.obj
 0001:0007104c       __sopen                    0047204c f   LIBCMT:open.obj
 0001:0007107e       __sopen_s                  0047207e f   LIBCMT:open.obj
 0001:0007109e       __mbsnbicmp_l              0047209e f   LIBCMT:mbsnbicm.obj
 0001:000712c9       __mbsnbicmp                004722c9 f   LIBCMT:mbsnbicm.obj
 0001:000712e3       __mbsnbcmp_l               004722e3 f   LIBCMT:mbsnbcmp.obj
 0001:0007144d       __mbsnbcmp                 0047244d f   LIBCMT:mbsnbcmp.obj
 0001:00071468       __global_unwind2           00472468 f   LIBCMT:exsup.obj
 0001:000714cd       __local_unwind2            004724cd f   LIBCMT:exsup.obj
 0001:00071551       __abnormal_termination     00472551 f   LIBCMT:exsup.obj
 0001:00071574       __NLG_Notify1              00472574 f   LIBCMT:exsup.obj
 0001:0007157d       __NLG_Notify               0047257d f   LIBCMT:exsup.obj
 0001:00071594       __NLG_Dispatch             00472594     LIBCMT:exsup.obj
 0001:00071594       __NLG_Dispatch2            00472594     LIBCMT:exsup.obj
 0001:0007159c       __NLG_Call                 0047259c f   LIBCMT:exsup.obj
 0001:0007159e       __NLG_Return2              0047259e     LIBCMT:exsup.obj
 0001:0007159f       __wctomb_s_l               0047259f f   LIBCMT:wctomb.obj
 0001:0007170b       _wctomb_s                  0047270b f   LIBCMT:wctomb.obj
 0001:00071728       __wctomb_l                 00472728 f   LIBCMT:wctomb.obj
 0001:00071779       _wctomb                    00472779 f   LIBCMT:wctomb.obj
 0001:000717ab       __validate_param_reuseA    004727ab f   LIBCMT:outputp.obj
 0001:0007197c       _get_crtdouble_arg         0047297c f i LIBCMT:outputp.obj
 0001:00071991       __output_p_l               00472991 f   LIBCMT:outputp.obj
 0001:00072cf7       __output_s_l               00473cf7 f   LIBCMT:outputs.obj
 0001:000738d0       _strrchr                   004748d0 f   LIBCMT:strrchr.obj
 0001:000738fd       __tolower                  004748fd f   LIBCMT:tolower.obj
 0001:0007390a       __tolower_l                0047490a f   LIBCMT:tolower.obj
 0001:00073a1f       _tolower                   00474a1f f   LIBCMT:tolower.obj
 0001:00073a4b       __atodbl_l                 00474a4b f   LIBCMT:atodbl.obj
 0001:00073af3       __atodbl                   00474af3 f   LIBCMT:atodbl.obj
 0001:00073b0a       __atoldbl_l                00474b0a f   LIBCMT:atodbl.obj
 0001:00073bb3       __atoldbl                  00474bb3 f   LIBCMT:atodbl.obj
 0001:00073bca       __atoflt_l                 00474bca f   LIBCMT:atodbl.obj
 0001:00073c72       __atoflt                   00474c72 f   LIBCMT:atodbl.obj
 0001:00073c89       __set_output_format        00474c89 f   LIBCMT:outputformat.obj
 0001:00073cc5       __get_output_format        00474cc5 f   LIBCMT:outputformat.obj
 0001:00073ccb       __fptostr                  00474ccb f   LIBCMT:_fptostr.obj
 0001:00073d8a       ___dtold                   00474d8a f   LIBCMT:_cfout_.obj
 0001:00073e42       __fltout2                  00474e42 f   LIBCMT:_cfout_.obj
 0001:00073ee0       __alldvrm                  00474ee0 f   LIBCMT:lldvrm.obj
 0001:00073fc0       __aullshr                  00474fc0 f   LIBCMT:ullshr.obj
 0001:00073fdf       __fptrap                   00474fdf f   LIBCMT:crt0fp.obj
 0001:00073fe8       __controlfp_s              00474fe8 f   LIBCMT:_contrlfp_.obj
 0001:00074054       __recalloc                 00475054 f   LIBCMT:recalloc.obj
 0001:000740cf       ___crtMessageBoxA          004750cf f   LIBCMT:crtmbox.obj
 0001:00074238       _strcat_s                  00475238 f   LIBCMT:strcat_s.obj
 0001:000742ac       __msize                    004752ac f   LIBCMT:msize.obj
 0001:00074368       ___crtGetLocaleInfoW       00475368 f   LIBCMT:w_loc.obj
 0001:000744db       ___crtGetLocaleInfoA       004754db f   LIBCMT:a_loc.obj
 0001:0007456b       __ismbbkalnum_l            0047556b f   LIBCMT:ismbbyte.obj
 0001:00074584       __ismbbkalnum              00475584 f   LIBCMT:ismbbyte.obj
 0001:0007459c       __ismbbkprint_l            0047559c f   LIBCMT:ismbbyte.obj
 0001:000745b5       __ismbbkprint              004755b5 f   LIBCMT:ismbbyte.obj
 0001:000745cd       __ismbbkpunct_l            004755cd f   LIBCMT:ismbbyte.obj
 0001:000745e6       __ismbbkpunct              004755e6 f   LIBCMT:ismbbyte.obj
 0001:000745fe       __ismbbalnum_l             004755fe f   LIBCMT:ismbbyte.obj
 0001:0007461a       __ismbbalnum               0047561a f   LIBCMT:ismbbyte.obj
 0001:00074635       __ismbbalpha_l             00475635 f   LIBCMT:ismbbyte.obj
 0001:00074651       __ismbbalpha               00475651 f   LIBCMT:ismbbyte.obj
 0001:0007466c       __ismbbgraph_l             0047566c f   LIBCMT:ismbbyte.obj
 0001:00074688       __ismbbgraph               00475688 f   LIBCMT:ismbbyte.obj
 0001:000746a3       __ismbbprint_l             004756a3 f   LIBCMT:ismbbyte.obj
 0001:000746bf       __ismbbprint               004756bf f   LIBCMT:ismbbyte.obj
 0001:000746da       __ismbbpunct_l             004756da f   LIBCMT:ismbbyte.obj
 0001:000746f3       __ismbbpunct               004756f3 f   LIBCMT:ismbbyte.obj
 0001:0007470b       __ismbblead_l              0047570b f   LIBCMT:ismbbyte.obj
 0001:00074724       __ismbblead                00475724 f   LIBCMT:ismbbyte.obj
 0001:0007473c       __ismbbtrail_l             0047573c f   LIBCMT:ismbbyte.obj
 0001:00074755       __ismbbtrail               00475755 f   LIBCMT:ismbbyte.obj
 0001:0007476d       __ismbbkana_l              0047576d f   LIBCMT:ismbbyte.obj
 0001:000747c2       __ismbbkana                004757c2 f   LIBCMT:ismbbyte.obj
 0001:0007498f       ___crtGetStringTypeA       0047598f f   LIBCMT:a_str.obj
 0001:000749d1       ___pwctype_func            004759d1 f   LIBCMT:ctype.obj
 0001:000749d7       ___pctype_func             004759d7 f   LIBCMT:ctype.obj
 0001:00074e1b       ___free_lc_time            00475e1b f   LIBCMT:inittime.obj
 0001:00074fb0       ___init_time               00475fb0 f   LIBCMT:inittime.obj
 0001:0007505c       ___free_lconv_num          0047605c f   LIBCMT:initnum.obj
 0001:000750a1       ___init_numeric            004760a1 f   LIBCMT:initnum.obj
 0001:0007529e       ___free_lconv_mon          0047629e f   LIBCMT:initmon.obj
 0001:0007532c       ___init_monetary           0047632c f   LIBCMT:initmon.obj
 0001:000755f2       ___init_ctype              004765f2 f   LIBCMT:initctyp.obj
 0001:00075994       ____mb_cur_max_func        00476994 f   LIBCMT:initctyp.obj
 0001:000759bd       ____mb_cur_max_l_func      004769bd f   LIBCMT:initctyp.obj
 0001:000759d9       ____lc_codepage_func       004769d9 f   LIBCMT:initctyp.obj
 0001:000759ff       ____lc_collate_cp_func     004769ff f   LIBCMT:initctyp.obj
 0001:00075a25       ____lc_handle_func         00476a25 f   LIBCMT:initctyp.obj
 0001:00075a4b       ___init_collate            00476a4b f   LIBCMT:initcoll.obj
 0001:00075a4e       _localeconv                00476a4e f   LIBCMT:lconv.obj
 0001:00075a80       _strcspn                   00476a80 f   LIBCMT:strcspn.obj
 0001:000760c1       ___get_qualified_locale    004770c1 f   LIBCMT:getqloc.obj
 0001:000762b2       __ungetc_nolock            004772b2 f   LIBCMT:ungetc.obj
 0001:000763a3       _ungetc                    004773a3 f   LIBCMT:ungetc.obj
 0001:00076415       __getenv_helper_nolock     00477415 f   LIBCMT:getenv.obj
 0001:000765d5       _getenv                    004775d5 f   LIBCMT:getenv.obj
 0001:00076658       _getenv_s                  00477658 f   LIBCMT:getenv.obj
 0001:00076730       __dupenv_s                 00477730 f   LIBCMT:getenv.obj
 0001:00076816       __iswctype_l               00477816 f   LIBCMT:iswctype.obj
 0001:000768a0       _iswctype                  004778a0 f   LIBCMT:iswctype.obj
 0001:00076916       _is_wctype                 00477916 f   LIBCMT:iswctype.obj
 0001:00076921       ___ansicp                  00477921 f   LIBCMT:convrtcp.obj
 0001:0007696a       ___convertcp               0047796a f   LIBCMT:convrtcp.obj
 0001:00076b1e       __matherr                  00477b1e f   LIBCMT:_matherr_.obj
 0001:00076b21       ___addl                    00477b21 f i LIBCMT:_intrncvt_.obj
 0001:00076b45       __ZeroTail                 00477b45 f i LIBCMT:_intrncvt_.obj
 0001:00076b8e       __IncMan                   00477b8e f i LIBCMT:_intrncvt_.obj
 0001:00076bfb       __RoundMan                 00477bfb f i LIBCMT:_intrncvt_.obj
 0001:00076ceb       __CopyMan                  00477ceb f i LIBCMT:_intrncvt_.obj
 0001:00076d0a       __FillZeroMan              00477d0a f i LIBCMT:_intrncvt_.obj
 0001:00076d1b       __IsZeroMan                00477d1b f i LIBCMT:_intrncvt_.obj
 0001:00076d3a       __ShrMan                   00477d3a f i LIBCMT:_intrncvt_.obj
 0001:00076dd4       __ld12cvt                  00477dd4 f i LIBCMT:_intrncvt_.obj
 0001:000772ff       __ld12tod                  004782ff f   LIBCMT:_intrncvt_.obj
 0001:00077843       __ld12tof                  00478843 f   LIBCMT:_intrncvt_.obj
 0001:00077d87       __ld12told                 00478d87 f   LIBCMT:_intrncvt_.obj
 0001:00077e49       ___shl_12                  00478e49 f i LIBCMT:_strgtold_.obj
 0001:00077e7c       ___shr_12                  00478e7c f i LIBCMT:_strgtold_.obj
 0001:00077eae       ___ld12mul                 00478eae f i LIBCMT:_strgtold_.obj
 0001:00078129       ___multtenpow12            00479129 f i LIBCMT:_strgtold_.obj
 0001:0007842e       ___strgtold12_l            0047942e f   LIBCMT:_strgtold_.obj
 0001:00078b26       ___STRINGTOLD_L            00479b26 f   LIBCMT:_strgtold_.obj
 0001:00078b81       __fputwc_nolock            00479b81 f   LIBCMT:fputwc.obj
 0001:00078d08       _fputwc                    00479d08 f   LIBCMT:fputwc.obj
 0001:00078d81       _putwc                     00479d81 f   LIBCMT:fputwc.obj
 0001:00078f86       _wcstol                    00479f86 f   LIBCMT:wcstol.obj
 0001:00078fb1       __wcstol_l                 00479fb1 f   LIBCMT:wcstol.obj
 0001:00078fce       _wcstoul                   00479fce f   LIBCMT:wcstol.obj
 0001:00078ffa       __wcstoul_l                00479ffa f   LIBCMT:wcstol.obj
 0001:00079017       ___initconin               0047a017 f   LIBCMT:initcon.obj
 0001:00079036       ___initconout              0047a036 f   LIBCMT:initcon.obj
 0001:00079055       ___termcon                 0047a055 f   LIBCMT:initcon.obj
 0001:00079082       __chsize_nolock            0047a082 f   LIBCMT:chsize.obj
 0001:00079238       __chsize_s                 0047a238 f   LIBCMT:chsize.obj
 0001:00079325       __chsize                   0047a325 f   LIBCMT:chsize.obj
 0001:00079325       _chsize                    0047a325 f   LIBCMT:chsize.obj
 0001:00079341       __setmode_nolock           0047a341 f   LIBCMT:setmode.obj
 0001:000793fd       __set_fmode                0047a3fd f   LIBCMT:setmode.obj
 0001:00079449       __get_fmode                0047a449 f   LIBCMT:setmode.obj
 0001:00079482       __setmode                  0047a482 f   LIBCMT:setmode.obj
 0001:00079579       __strnicmp_l               0047a579 f   LIBCMT:strnicmp.obj
 0001:0007966b       __strnicmp                 0047a66b f   LIBCMT:strnicmp.obj
 0001:0007966b       _strnicmp                  0047a66b f   LIBCMT:strnicmp.obj
 0001:000796c9       ___add_12                  0047a6c9 f i LIBCMT:_x10fout_.obj
 0001:0007973a       _$I10_OUTPUT               0047a73a f   LIBCMT:_x10fout_.obj
 0001:0007a061       __set_controlfp            0047b061 f   LIBCMT:_ieee87_.obj
 0001:0007a3d5       __statusfp                 0047b3d5 f   LIBCMT:_ieee87_.obj
 0001:0007a467       __fpreset                  0047b467 f   LIBCMT:_ieee87_.obj
 0001:0007a6a0       __statusfp2                0047b6a0 f   LIBCMT:_ieee87_.obj
 0001:0007a6fa       __clearfp                  0047b6fa f   LIBCMT:_ieee87_.obj
 0001:0007a7d3       ___control87_2             0047b7d3 f   LIBCMT:_ieee87_.obj
 0001:0007aae7       __control87                0047bae7 f i LIBCMT:_ieee87_.obj
 0001:0007adf6       __controlfp                0047bdf6 f   LIBCMT:_ieee87_.obj
 0001:0007b1e5       __itoa_s                   0047c1e5 f   LIBCMT:xtoas.obj
 0001:0007b20f       __ltoa_s                   0047c20f f   LIBCMT:xtoas.obj
 0001:0007b236       __ultoa_s                  0047c236 f   LIBCMT:xtoas.obj
 0001:0007b348       __i64toa_s                 0047c348 f   LIBCMT:xtoas.obj
 0001:0007b37d       __ui64toa_s                0047c37d f   LIBCMT:xtoas.obj
 0001:0007b39c       __mbsnbicoll_l             0047c39c f   LIBCMT:mbsnbico.obj
 0001:0007b48a       __mbsnbicoll               0047c48a f   LIBCMT:mbsnbico.obj
 0001:0007b4a4       ___wtomb_environ           0047c4a4 f   LIBCMT:wtombenv.obj
 0001:0007b53b       _strnlen                   0047c53b f   LIBCMT:strlen_s.obj
 0001:0007b57b       ___crtGetStringTypeW       0047c57b f   LIBCMT:w_str.obj
 0001:0007b5b9       ___mtold12                 0047c5b9 f   LIBCMT:_mantold_.obj
 0001:0007b787       __flswbuf                  0047c787 f   LIBCMT:_flswbuf.obj
 0001:0007b8fb       __wchartodigit             0047c8fb f   LIBCMT:wchtodig.obj
 0001:0007bae0       ___ascii_strnicmp          0047cae0 f   LIBCMT:_strnicm.obj
 0001:0007becf       ___crtCompareStringA       0047cecf f   LIBCMT:a_cmp.obj
 0001:0007bf11       __strnicoll_l              0047cf11 f   LIBCMT:strnicol.obj
 0001:0007c00b       __strnicoll                0047d00b f   LIBCMT:strnicol.obj
 0001:0007c0e0       ___crtsetenv               0047d0e0 f   LIBCMT:setenv.obj
 0001:0007c32b       __strdup                   0047d32b f   LIBCMT:strdup.obj
 0001:0007c380       __mbschr_l                 0047d380 f   LIBCMT:mbschr.obj
 0001:0007c43c       __mbschr                   0047d43c f   LIBCMT:mbschr.obj
 0001:0007c454       _timeGetTime@0             0047d454 f   winmm:WINMM.dll
 0001:0007c45a       _inet_ntoa@4               0047d45a f   ws2_32:WS2_32.dll
 0001:0007c460       _gethostbyname@4           0047d460 f   ws2_32:WS2_32.dll
 0001:0007c466       _inet_addr@4               0047d466 f   ws2_32:WS2_32.dll
 0001:0007c46c       _ntohs@4                   0047d46c f   ws2_32:WS2_32.dll
 0001:0007c472       _getpeername@12            0047d472 f   ws2_32:WS2_32.dll
 0001:0007c478       _WSAStartup@8              0047d478 f   ws2_32:WS2_32.dll
 0001:0007c47e       _closesocket@4             0047d47e f   ws2_32:WS2_32.dll
 0001:0007c484       _connect@12                0047d484 f   ws2_32:WS2_32.dll
 0001:0007c48a       _htons@4                   0047d48a f   ws2_32:WS2_32.dll
 0001:0007c490       _WSAGetLastError@0         0047d490 f   ws2_32:WS2_32.dll
 0001:0007c496       _socket@12                 0047d496 f   ws2_32:WS2_32.dll
 0001:0007c49c       _listen@8                  0047d49c f   ws2_32:WS2_32.dll
 0001:0007c4a2       _bind@12                   0047d4a2 f   ws2_32:WS2_32.dll
 0001:0007c4a8       _send@16                   0047d4a8 f   ws2_32:WS2_32.dll
 0001:0007c4ae       _select@20                 0047d4ae f   ws2_32:WS2_32.dll
 0001:0007c4b4       _recv@16                   0047d4b4 f   ws2_32:WS2_32.dll
 0001:0007c4ba       _getsockopt@20             0047d4ba f   ws2_32:WS2_32.dll
 0001:0007c4c0       ___WSAFDIsSet@8            0047d4c0 f   ws2_32:WS2_32.dll
 0001:0007c4c6       _accept@12                 0047d4c6 f   ws2_32:WS2_32.dll
 0001:0007c4cc       _ioctlsocket@12            0047d4cc f   ws2_32:WS2_32.dll
 0001:0007c4d2       _setsockopt@20             0047d4d2 f   ws2_32:WS2_32.dll
 0001:0007c4d8       _MultiByteToWideChar@24    0047d4d8 f   kernel32:KERNEL32.dll
 0001:0007c4de       _GetLocalTime@4            0047d4de f   kernel32:KERNEL32.dll
 0001:0007c4e4       _QueryPerformanceCounter@4 0047d4e4 f   kernel32:KERNEL32.dll
 0001:0007c4ea       _QueryPerformanceFrequency@4 0047d4ea f   kernel32:KERNEL32.dll
 0001:0007c4f0       _FindClose@4               0047d4f0 f   kernel32:KERNEL32.dll
 0001:0007c4f6       _FindNextFileA@8           0047d4f6 f   kernel32:KERNEL32.dll
 0001:0007c4fc       _FindFirstFileA@8          0047d4fc f   kernel32:KERNEL32.dll
 0001:0007c502       _FileTimeToDosDateTime@12  0047d502 f   kernel32:KERNEL32.dll
 0001:0007c508       _FileTimeToLocalFileTime@8 0047d508 f   kernel32:KERNEL32.dll
 0001:0007c50e       _InitializeCriticalSection@4 0047d50e f   kernel32:KERNEL32.dll
 0001:0007c514       _GetLastError@0            0047d514 f   kernel32:KERNEL32.dll
 0001:0007c51a       _CreateMutexA@12           0047d51a f   kernel32:KERNEL32.dll
 0001:0007c520       _LocalFree@4               0047d520 f   kernel32:KERNEL32.dll
 0001:0007c526       _LocalAlloc@8              0047d526 f   kernel32:KERNEL32.dll
 0001:0007c52c       _GetCurrentThreadId@0      0047d52c f   kernel32:KERNEL32.dll
 0001:0007c532       _EnterCriticalSection@4    0047d532 f   kernel32:KERNEL32.dll
 0001:0007c538       _ReleaseMutex@4            0047d538 f   kernel32:KERNEL32.dll
 0001:0007c53e       _LeaveCriticalSection@4    0047d53e f   kernel32:KERNEL32.dll
 0001:0007c544       _CloseHandle@4             0047d544 f   kernel32:KERNEL32.dll
 0001:0007c54a       _DeleteCriticalSection@4   0047d54a f   kernel32:KERNEL32.dll
 0001:0007c550       _CreateEventA@16           0047d550 f   kernel32:KERNEL32.dll
 0001:0007c556       _WaitForSingleObject@8     0047d556 f   kernel32:KERNEL32.dll
 0001:0007c55c       _WaitForMultipleObjects@16 0047d55c f   kernel32:KERNEL32.dll
 0001:0007c562       _SetEvent@4                0047d562 f   kernel32:KERNEL32.dll
 0001:0007c568       _PulseEvent@4              0047d568 f   kernel32:KERNEL32.dll
 0001:0007c56e       _ResetEvent@4              0047d56e f   kernel32:KERNEL32.dll
 0001:0007c574       _RaiseException@16         0047d574 f   kernel32:KERNEL32.dll
 0001:0007c57a       _GetVersionExA@4           0047d57a f   kernel32:KERNEL32.dll
 0001:0007c580       _FormatMessageA@28         0047d580 f   kernel32:KERNEL32.dll
 0001:0007c586       _Sleep@4                   0047d586 f   kernel32:KERNEL32.dll
 0001:0007c58c       _GetLocaleInfoA@16         0047d58c f   kernel32:KERNEL32.dll
 0001:0007c592       _WriteConsoleW@20          0047d592 f   kernel32:KERNEL32.dll
 0001:0007c598       _GetFileType@4             0047d598 f   kernel32:KERNEL32.dll
 0001:0007c59e       _GetStdHandle@4            0047d59e f   kernel32:KERNEL32.dll
 0001:0007c5a4       _GetModuleFileNameW@12     0047d5a4 f   kernel32:KERNEL32.dll
 0001:0007c5aa       _FileTimeToSystemTime@8    0047d5aa f   kernel32:KERNEL32.dll
 0001:0007c5b0       _GetFileInformationByHandle@8 0047d5b0 f   kernel32:KERNEL32.dll
 0001:0007c5b6       _PeekNamedPipe@24          0047d5b6 f   kernel32:KERNEL32.dll
 0001:0007c5bc       _SetConsoleCtrlHandler@8   0047d5bc f   kernel32:KERNEL32.dll
 0001:0007c5c2       _GetModuleHandleW@4        0047d5c2 f   kernel32:KERNEL32.dll
 0001:0007c5c8       _GetProcAddress@8          0047d5c8 f   kernel32:KERNEL32.dll
 0001:0007c5ce       _ExitProcess@4             0047d5ce f   kernel32:KERNEL32.dll
 0001:0007c5d4       _GetSystemTimeAsFileTime@4 0047d5d4 f   kernel32:KERNEL32.dll
 0001:0007c5da       _DeleteFileA@4             0047d5da f   kernel32:KERNEL32.dll
 0001:0007c5e0       _MoveFileA@8               0047d5e0 f   kernel32:KERNEL32.dll
 0001:0007c5e6       _HeapAlloc@12              0047d5e6 f   kernel32:KERNEL32.dll
 0001:0007c5ec       _HeapFree@12               0047d5ec f   kernel32:KERNEL32.dll
 0001:0007c5f2       _GetCommandLineA@0         0047d5f2 f   kernel32:KERNEL32.dll
 0001:0007c5f8       _HeapReAlloc@16            0047d5f8 f   kernel32:KERNEL32.dll
 0001:0007c5fe       _ExitThread@4              0047d5fe f   kernel32:KERNEL32.dll
 0001:0007c604       _CreateThread@24           0047d604 f   kernel32:KERNEL32.dll
 0001:0007c60a       _GetTimeFormatA@24         0047d60a f   kernel32:KERNEL32.dll
 0001:0007c610       _GetDateFormatA@24         0047d610 f   kernel32:KERNEL32.dll
 0001:0007c616       _GetTimeZoneInformation@4  0047d616 f   kernel32:KERNEL32.dll
 0001:0007c61c       _TerminateProcess@8        0047d61c f   kernel32:KERNEL32.dll
 0001:0007c622       _GetCurrentProcess@0       0047d622 f   kernel32:KERNEL32.dll
 0001:0007c628       _UnhandledExceptionFilter@4 0047d628 f   kernel32:KERNEL32.dll
 0001:0007c62e       _SetUnhandledExceptionFilter@4 0047d62e f   kernel32:KERNEL32.dll
 0001:0007c634       _IsDebuggerPresent@0       0047d634 f   kernel32:KERNEL32.dll
 0001:0007c63a       _LoadLibraryW@4            0047d63a f   kernel32:KERNEL32.dll
 0001:0007c640       _WriteFile@20              0047d640 f   kernel32:KERNEL32.dll
 0001:0007c646       _WideCharToMultiByte@32    0047d646 f   kernel32:KERNEL32.dll
 0001:0007c64c       _GetConsoleCP@0            0047d64c f   kernel32:KERNEL32.dll
 0001:0007c652       _GetConsoleMode@8          0047d652 f   kernel32:KERNEL32.dll
 0001:0007c658       _RtlUnwind@16              0047d658 f   kernel32:KERNEL32.dll
 0001:0007c65e       _GetModuleHandleA@4        0047d65e f   kernel32:KERNEL32.dll
 0001:0007c664       _ReadFile@20               0047d664 f   kernel32:KERNEL32.dll
 0001:0007c66a       _SetStdHandle@8            0047d66a f   kernel32:KERNEL32.dll
 0001:0007c670       _SetHandleCount@4          0047d670 f   kernel32:KERNEL32.dll
 0001:0007c676       _GetStartupInfoA@4         0047d676 f   kernel32:KERNEL32.dll
 0001:0007c67c       _FatalAppExitA@8           0047d67c f   kernel32:KERNEL32.dll
 0001:0007c682       _TlsGetValue@4             0047d682 f   kernel32:KERNEL32.dll
 0001:0007c688       _TlsAlloc@0                0047d688 f   kernel32:KERNEL32.dll
 0001:0007c68e       _TlsSetValue@8             0047d68e f   kernel32:KERNEL32.dll
 0001:0007c694       _TlsFree@4                 0047d694 f   kernel32:KERNEL32.dll
 0001:0007c69a       _InterlockedIncrement@4    0047d69a f   kernel32:KERNEL32.dll
 0001:0007c6a0       _SetLastError@4            0047d6a0 f   kernel32:KERNEL32.dll
 0001:0007c6a6       _InterlockedDecrement@4    0047d6a6 f   kernel32:KERNEL32.dll
 0001:0007c6ac       _GetCurrentThread@0        0047d6ac f   kernel32:KERNEL32.dll
 0001:0007c6b2       _GetModuleFileNameA@12     0047d6b2 f   kernel32:KERNEL32.dll
 0001:0007c6b8       _FreeLibrary@4             0047d6b8 f   kernel32:KERNEL32.dll
 0001:0007c6be       _InterlockedExchange@8     0047d6be f   kernel32:KERNEL32.dll
 0001:0007c6c4       _LoadLibraryA@4            0047d6c4 f   kernel32:KERNEL32.dll
 0001:0007c6ca       _InitializeCriticalSectionAndSpinCount@8 0047d6ca f   kernel32:KERNEL32.dll
 0001:0007c6d0       _SetFilePointer@16         0047d6d0 f   kernel32:KERNEL32.dll
 0001:0007c6d6       _VirtualFree@12            0047d6d6 f   kernel32:KERNEL32.dll
 0001:0007c6dc       _VirtualAlloc@16           0047d6dc f   kernel32:KERNEL32.dll
 0001:0007c6e2       _HeapCreate@12             0047d6e2 f   kernel32:KERNEL32.dll
 0001:0007c6e8       _HeapDestroy@4             0047d6e8 f   kernel32:KERNEL32.dll
 0001:0007c6ee       _FreeEnvironmentStringsA@4 0047d6ee f   kernel32:KERNEL32.dll
 0001:0007c6f4       _GetEnvironmentStrings@0   0047d6f4 f   kernel32:KERNEL32.dll
 0001:0007c6fa       _FreeEnvironmentStringsW@4 0047d6fa f   kernel32:KERNEL32.dll
 0001:0007c700       _GetEnvironmentStringsW@0  0047d700 f   kernel32:KERNEL32.dll
 0001:0007c706       _GetTickCount@0            0047d706 f   kernel32:KERNEL32.dll
 0001:0007c70c       _GetCurrentProcessId@0     0047d70c f   kernel32:KERNEL32.dll
 0001:0007c712       _GetCPInfo@8               0047d712 f   kernel32:KERNEL32.dll
 0001:0007c718       _GetACP@0                  0047d718 f   kernel32:KERNEL32.dll
 0001:0007c71e       _GetOEMCP@0                0047d71e f   kernel32:KERNEL32.dll
 0001:0007c724       _IsValidCodePage@4         0047d724 f   kernel32:KERNEL32.dll
 0001:0007c72a       _FlushFileBuffers@4        0047d72a f   kernel32:KERNEL32.dll
 0001:0007c730       _LCMapStringA@24           0047d730 f   kernel32:KERNEL32.dll
 0001:0007c736       _LCMapStringW@24           0047d736 f   kernel32:KERNEL32.dll
 0001:0007c73c       _WriteConsoleA@20          0047d73c f   kernel32:KERNEL32.dll
 0001:0007c742       _GetConsoleOutputCP@0      0047d742 f   kernel32:KERNEL32.dll
 0001:0007c748       _CreateFileA@28            0047d748 f   kernel32:KERNEL32.dll
 0001:0007c74e       _HeapSize@12               0047d74e f   kernel32:KERNEL32.dll
 0001:0007c754       _GetLocaleInfoW@16         0047d754 f   kernel32:KERNEL32.dll
 0001:0007c75a       _GetStringTypeA@20         0047d75a f   kernel32:KERNEL32.dll
 0001:0007c760       _GetStringTypeW@16         0047d760 f   kernel32:KERNEL32.dll
 0001:0007c766       _GetUserDefaultLCID@0      0047d766 f   kernel32:KERNEL32.dll
 0001:0007c76c       _EnumSystemLocalesA@8      0047d76c f   kernel32:KERNEL32.dll
 0001:0007c772       _IsValidLocale@8           0047d772 f   kernel32:KERNEL32.dll
 0001:0007c778       _SetEndOfFile@4            0047d778 f   kernel32:KERNEL32.dll
 0001:0007c77e       _GetProcessHeap@0          0047d77e f   kernel32:KERNEL32.dll
 0001:0007c784       _CompareStringA@24         0047d784 f   kernel32:KERNEL32.dll
 0001:0007c78a       _CompareStringW@24         0047d78a f   kernel32:KERNEL32.dll
 0001:0007c790       _SetEnvironmentVariableA@8 0047d790 f   kernel32:KERNEL32.dll
 0001:0007c796       _SetSecurityDescriptorDacl@16 0047d796 f   advapi32:ADVAPI32.dll
 0001:0007c79c       _InitializeSecurityDescriptor@8 0047d79c f   advapi32:ADVAPI32.dll
 0001:0007c7b0       _sSecUsrStart              0047d7b0 f   ssec0_ld:ssecusr0.obj
 0001:0007c7d0       _secManAccessCfg           0047d7d0 f   ssec0_ld:ssecusr0.obj
 0001:0007c7f0       _secManReleaseCfg          0047d7f0 f   ssec0_ld:ssecusr0.obj
 0001:0007c800       _sSecUpdate                0047d800 f   ssec0_ld:ssecusr0.obj
 0001:0007c810       _sSecGetSecParam           0047d810 f   ssec0_ld:ssecusr0.obj
 0001:0007c860       _sSecFreeSecParam          0047d860 f   ssec0_ld:ssecusr0.obj
 0001:0007c8b0       _sSecFreePartSecParam      0047d8b0 f   ssec0_ld:ssecusr0.obj
 0001:0007c900       _secManCfgChange           0047d900 f   ssec0_ld:ssecusr0.obj
 0001:0007c910       _sSecUsrEnd                0047d910 f   ssec0_ld:ssecusr0.obj
 0001:0007c920       _sSecAuthChk               0047d920 f   ssec0_ld:ssecusr0.obj
 0001:0007c970       _sSecMaceAuthInfoCreate    0047d970 f   ssec0_ld:ssecusr0.obj
 0001:0007c9c0       _sSecMaceAuthInfoFree      0047d9c0 f   ssec0_ld:ssecusr0.obj
 0001:0007ca00       _sSecMaceAsn1Enc           0047da00 f   ssec0_ld:ssecusr0.obj
 0001:0007ca50       _sSecMaceAuthInfoDec       0047da50 f   ssec0_ld:ssecusr0.obj
 0001:0007caa0       _sSecFreeCertInfo          0047daa0 f   ssec0_ld:ssecusr0.obj
 0001:0007cae0       _sSecLocArNameToArSec      0047dae0 f   ssec0_ld:ssecusr0.obj
 0001:0007cb30       _sSecRemArNameToArSec      0047db30 f   ssec0_ld:ssecusr0.obj
 0001:0007cb80       _sSecAssocConfChkEx        0047db80 f   ssec0_ld:ssecusr0.obj
 0001:0007cbd0       _sSecAssocIndChk           0047dbd0 f   ssec0_ld:ssecusr0.obj
 0001:0007cc20       _sSecCertNameToLocCertCtrl 0047dc20 f   ssec0_ld:ssecusr0.obj
 0001:0007cc70       _sSecCertNameToRemCertCtrl 0047dc70 f   ssec0_ld:ssecusr0.obj
 0001:0007ccc0       _sSecCertIdToRemCertCtrl   0047dcc0 f   ssec0_ld:ssecusr0.obj
 0001:0007cd10       _sSecCertCfgIdToRemCertCtrl 0047dd10 f   ssec0_ld:ssecusr0.obj
 0001:0007cd60       _sSecChkIssuer             0047dd60 f   ssec0_ld:ssecusr0.obj
 0001:0007cdb0       _sSecChkValidityTimes      0047ddb0 f   ssec0_ld:ssecusr0.obj
 0001:0007ce00       _sSecChkTimeSeal           0047de00 f   ssec0_ld:ssecusr0.obj
 0001:0007ce50       _sSecGetLocalCert          0047de50 f   ssec0_ld:ssecusr0.obj
 0001:0007cea0       _sSecCertDec               0047dea0 f   ssec0_ld:ssecusr0.obj
 0001:0007cef0       _sSecSignedTimeDec         0047def0 f   ssec0_ld:ssecusr0.obj
 0001:0007cf40       _sSecSignedTimeEnc         0047df40 f   ssec0_ld:ssecusr0.obj
 0001:0007cf90       _sSecStart                 0047df90 f   ssec0_ld:ssecusr0.obj
 0001:0007cfb0       _sSecEnd                   0047dfb0 f   ssec0_ld:ssecusr0.obj
 0001:0007cfc0       _sSecGetCertId             0047dfc0 f   ssec0_ld:ssecusr0.obj
 0001:0007cfd0       _sSecGetCertCtrl           0047dfd0 f   ssec0_ld:ssecusr0.obj
 0001:0007cfe0       _sSecGetCipherSuite        0047dfe0 f   ssec0_ld:ssecusr0.obj
 0001:0007cff0       _setGenSockSSL             0047dff0 f   ssec0_ld:ssecusr0.obj
 0001:0007d000       _secManChkNewCfgAvail      0047e000 f   ssec0_ld:ssecusr0.obj
 0001:0007d010       _secManLoadCfg             0047e010 f   ssec0_ld:ssecusr0.obj
 0001:0007d040       _secManUpdateCfg           0047e040 f   ssec0_ld:ssecusr0.obj
 0001:0007d050       _secManFreeCfg             0047e050 f   ssec0_ld:ssecusr0.obj
 0001:0007d060       _sslUpdate                 0047e060 f   ssec0_ld:ssecusr0.obj
 0001:0007d070       _asn1r_wr_i8               0047e070 f   asn1_ld:are_int.obj
 0001:0007d0a0       _asn1r_wr_i16              0047e0a0 f   asn1_ld:are_int.obj
 0001:0007d0d0       _asn1r_wr_i32              0047e0d0 f   asn1_ld:are_int.obj
 0001:0007d100       _asn1r_wr_u8               0047e100 f   asn1_ld:are_int.obj
 0001:0007d120       _asn1r_wr_u16              0047e120 f   asn1_ld:are_int.obj
 0001:0007d140       _asn1r_wr_u32              0047e140 f   asn1_ld:are_int.obj
 0001:0007d160       _asn1r_wr_int32            0047e160 f   asn1_ld:are_int.obj
 0001:0007d2c0       _asn1r_wr_i64              0047e2c0 f   asn1_ld:are_int.obj
 0001:0007d300       _asn1r_wr_u64              0047e300 f   asn1_ld:are_int.obj
 0001:0007d320       _asn1r_wr_int64            0047e320 f   asn1_ld:are_int.obj
 0001:0007d510       _asn1r_wr_bitstr           0047e510 f   asn1_ld:are_bstr.obj
 0001:0007d610       _asn1r_wr_objid            0047e610 f   asn1_ld:are_objd.obj
 0001:0007d710       _asn1r_wr_octstr           0047e710 f   asn1_ld:are_ostr.obj
 0001:0007d7a0       _asn1r_get_objid           0047e7a0 f   asn1_ld:ard_objd.obj
 0001:0007da20       _asn1r_get_i8              0047ea20 f   asn1_ld:ard_int.obj
 0001:0007daa0       _asn1r_get_i16             0047eaa0 f   asn1_ld:ard_int.obj
 0001:0007db30       _asn1r_get_i32             0047eb30 f   asn1_ld:ard_int.obj
 0001:0007db60       _asn1r_get_u8              0047eb60 f   asn1_ld:ard_int.obj
 0001:0007dbe0       _asn1r_get_u16             0047ebe0 f   asn1_ld:ard_int.obj
 0001:0007dc60       _asn1r_get_u32             0047ec60 f   asn1_ld:ard_int.obj
 0001:0007dc90       _asn1r_get_int32           0047ec90 f   asn1_ld:ard_int.obj
 0001:0007de70       _asn1r_get_u64             0047ee70 f   asn1_ld:ard_int.obj
 0001:0007dea0       _asn1r_get_i64             0047eea0 f   asn1_ld:ard_int.obj
 0001:0007ded0       _asn1r_get_int64           0047eed0 f   asn1_ld:ard_int.obj
 0001:0007e0b0       _asn1r_get_delmnt          0047f0b0 f   asn1_ld:ard_delm.obj
 0001:0007e420       _asn1r_parse_cstr_contents 0047f420 f   asn1_ld:ard_delm.obj
 0001:0007e4c0       _asn1r_parse_next          0047f4c0 f   asn1_ld:ard_delm.obj
 0001:0007e690       _asn1r_get_bitstr          0047f690 f   asn1_ld:ard_bstr.obj
 0001:0007e770       _asn1r_get_bitstr_cstr     0047f770 f   asn1_ld:ard_bstr.obj
 0001:0007e780       _asn1r_wr_vstr             0047f780 f   asn1_ld:are_vstr.obj
 0001:0007e7b0       _asn1r_wr_utf8             0047f7b0 f   asn1_ld:are_vstr.obj
 0001:0007e880       _asn1r_local_to_utf8       0047f880 f   asn1_ld:are_vstr.obj
 0001:0007e8d0       _asn1r_wr_bool             0047f8d0 f   asn1_ld:are_bool.obj
 0001:0007e910       _asn1r_get_identifier      0047f910 f   asn1_ld:ard_idnt.obj
 0001:0007ea80       _asn1r_get_bool            0047fa80 f   asn1_ld:ard_bool.obj
 0001:0007eaf0       _asn1r_get_octstr_fixlen   0047faf0 f   asn1_ld:ard_ostr.obj
 0001:0007eb60       _asn1r_get_octstr_varlen   0047fb60 f   asn1_ld:ard_ostr.obj
 0001:0007ebe0       _asn1r_get_octstr          0047fbe0 f   asn1_ld:ard_ostr.obj
 0001:0007ec40       _asn1r_get_octstr_cstr     0047fc40 f   asn1_ld:ard_ostr.obj
 0001:0007ec50       _asn1r_wr_delmnt           0047fc50 f   asn1_ld:are_delm.obj
 0001:0007ec80       _asn1r_get_time            0047fc80 f   asn1_ld:ard_time.obj
 0001:0007f5e0       _asn1r_wr_time             004805e0 f   asn1_ld:are_time.obj
 0001:0007f710       _asn1r_get_btod            00480710 f   asn1_ld:ard_btod.obj
 0001:0007f830       _asn1r_wr_btod             00480830 f   asn1_ld:are_btod.obj
 0001:0007f930       _mpl_cancel_err            00480930 f   mmsl_ld:mms_err4.obj
 0001:0007f950       _mpl_conclude_err          00480950 f   mmsl_ld:mms_err3.obj
 0001:0007f970       _ms_appref_to_asn1         00480970 f   mmsl_ld:mms_aref.obj
 0001:0007fbe0       _ms_asn1_to_appref         00480be0 f   mmsl_ld:mms_aref.obj
 0001:000800a0       _ms_runtime_to_asn1        004810a0 f   mmsl_ld:ms_tdef2.obj
 0001:00080610       _mpl_ident_resp            00481610 f   mmsl_ld:rs_ident.obj
 0001:00080630       __ms_mk_ident_resp         00481630 f   mmsl_ld:rs_ident.obj
 0001:00080750       _ms_asn1_to_local_aa       00481750 f   mmsl_ld:msdataas.obj
 0001:00080790       _ms_local_to_asn1_aa       00481790 f   mmsl_ld:msdataas.obj
 0001:000807d0       _ms_asn1_to_local          004817d0 f   mmsl_ld:mmsdata.obj
 0001:00082010       _ms_local_to_asn1          00483010 f   mmsl_ld:mmsdata.obj
 0001:00082af0       _ms_local_to_asn1_easy     00483af0 f   mmsl_ld:mmsdata.obj
 0001:00082b60       _ms_local_to_asn1_2        00483b60 f   mmsl_ld:mmsdata.obj
 0001:00082c60       _ms_asn1_to_aa             00483c60 f   mmsl_ld:mms_alta.obj
 0001:000837b0       _ms_aa_to_asn1             004847b0 f   mmsl_ld:mms_alta.obj
 0001:00083e20       _ms_log_alt_access         00484e20 f   mmsl_ld:mms_alta.obj
 0001:000841f0       _ms_aa_to_asn1_2           004851f0 f   mmsl_ld:mms_alta.obj
 0001:00084260       _mpl_info                  00485260 f   mmsl_ld:rq_info.obj
 0001:00084280       __ms_mk_info_req           00485280 f   mmsl_ld:rq_info.obj
 0001:00084330       _ms_rt_size_calc           00485330 f   mmsl_ld:mms_tdef.obj
 0001:000844d0       __ms_m_get_rt_info         004854d0 f   mmsl_ld:mms_tdef.obj
 0001:00084ae0       _ms_get_blocked_length     00485ae0 f   mmsl_ld:mms_tdef.obj
 0001:00084c70       _ms_log_runtime            00485c70 f   mmsl_ld:mms_tdef.obj
 0001:00085250       _ms_runtime_create         00486250 f   mmsl_ld:mms_tdef.obj
 0001:00086e30       _ms_runtime_destroy        00487e30 f   mmsl_ld:mms_tdef.obj
 0001:00086eb0       _ms_is_rt_prim             00487eb0 f   mmsl_ld:mms_tdef.obj
 0001:00086f00       _ms_rt_el_tag_text         00487f00 f   mmsl_ld:mms_tdef.obj
 0001:00087030       _ms_rt_bld_start           00488030 f   mmsl_ld:mms_tdef.obj
 0001:00087100       _ms_rt_bld_cancel          00488100 f   mmsl_ld:mms_tdef.obj
 0001:00087170       _ms_rt_bld_finish          00488170 f   mmsl_ld:mms_tdef.obj
 0001:00087330       _ms_rt_bld_remove_last     00488330 f   mmsl_ld:mms_tdef.obj
 0001:00087400       _ms_rt_bld_chk_state       00488400 f   mmsl_ld:mms_tdef.obj
 0001:00087490       _ms_rt_bld_get_count       00488490 f   mmsl_ld:mms_tdef.obj
 0001:000874c0       _ms_rt_bld_get_max_count   004884c0 f   mmsl_ld:mms_tdef.obj
 0001:00087500       _ms_rt_bld_add_str_start   00488500 f   mmsl_ld:mms_tdef.obj
 0001:00087650       _ms_rt_bld_add_str_end     00488650 f   mmsl_ld:mms_tdef.obj
 0001:000877d0       _ms_rt_bld_add_arr_start   004887d0 f   mmsl_ld:mms_tdef.obj
 0001:00087880       _ms_rt_bld_add_arr_end     00488880 f   mmsl_ld:mms_tdef.obj
 0001:00087a10       _ms_rt_bld_add_bool        00488a10 f   mmsl_ld:mms_tdef.obj
 0001:00087aa0       _ms_rt_bld_add_int         00488aa0 f   mmsl_ld:mms_tdef.obj
 0001:00087b30       _ms_rt_bld_add_uint        00488b30 f   mmsl_ld:mms_tdef.obj
 0001:00087bc0       _ms_rt_bld_add_float       00488bc0 f   mmsl_ld:mms_tdef.obj
 0001:00087c50       _ms_rt_bld_add_bstring     00488c50 f   mmsl_ld:mms_tdef.obj
 0001:00087ce0       _ms_rt_bld_add_bvstring    00488ce0 f   mmsl_ld:mms_tdef.obj
 0001:00087d70       _ms_rt_bld_add_vstring     00488d70 f   mmsl_ld:mms_tdef.obj
 0001:00087e00       _ms_rt_bld_add_utctime     00488e00 f   mmsl_ld:mms_tdef.obj
 0001:00087e90       _ms_rt_bld_add_btime6      00488e90 f   mmsl_ld:mms_tdef.obj
 0001:00087f20       _ms_rt_bld_add_ostring     00488f20 f   mmsl_ld:mms_tdef.obj
 0001:00087fb0       _ms_rt_bld_add_ovstring    00488fb0 f   mmsl_ld:mms_tdef.obj
 0001:00088040       _ms_rt_bld_add_utf8vstring 00489040 f   mmsl_ld:mms_tdef.obj
 0001:000880d0       _ms_rt_bld_add_special     004890d0 f   mmsl_ld:mms_tdef.obj
 0001:00088170       _ms_mk_asn1_type           00489170 f   mmsl_ld:ms_tdef.obj
 0001:00089510       _ms_asn1_to_tdl            0048a510 f   mmsl_ld:ms_tdef.obj
 0001:00089630       _ms_runtime_to_tdl         0048a630 f   mmsl_ld:ms_tdef.obj
 0001:00089d50       _ms_tdl_to_runtime         0048ad50 f   mmsl_ld:ms_tdef.obj
 0001:00089da0       _u_ml_get_rt_type          0048ada0 f   mmsl_ld:ms_tdef4.obj
 0001:00089e21       _itoa                      0048ae21 f   LIBCMT:xtoa.obj
 0001:00089e21       __itoa                     0048ae21 f   LIBCMT:xtoa.obj
 0001:00089e4b       _ltoa                      0048ae4b f   LIBCMT:xtoa.obj
 0001:00089e4b       __ltoa                     0048ae4b f   LIBCMT:xtoa.obj
 0001:00089e72       __ultoa                    0048ae72 f   LIBCMT:xtoa.obj
 0001:00089efb       __i64toa                   0048aefb f   LIBCMT:xtoa.obj
 0001:00089f2e       __ui64toa                  0048af2e f   LIBCMT:xtoa.obj
 0001:00089f4b       __RTC_InitBase             0048af4b f   LIBCMT:_init_.obj
 0001:00089f71       __RTC_Shutdown             0048af71 f   LIBCMT:_init_.obj
 0001:00089f83       __RTC_CheckEsp             0048af83 f   LIBCMT:_stack_.obj
 0001:00089fa6       @_RTC_CheckStackVars@8     0048afa6 f   LIBCMT:_stack_.obj
 0001:0008a002       @_RTC_AllocaHelper@12      0048b002 f   LIBCMT:_stack_.obj
 0001:0008a034       @_RTC_CheckStackVars2@12   0048b034 f   LIBCMT:_stack_.obj
 0001:0008a0f0       __allshr                   0048b0f0 f   LIBCMT:llshr.obj
 0001:0008a120       __allshl                   0048b120 f   LIBCMT:llshl.obj
 0001:0008a13f       __RTC_NumErrors            0048b13f f   LIBCMT:_userapi_.obj
 0001:0008a143       __RTC_GetErrDesc           0048b143 f   LIBCMT:_userapi_.obj
 0001:0008a15d       __RTC_SetErrorType         0048b15d f   LIBCMT:_userapi_.obj
 0001:0008a17f       __RTC_SetErrorFunc         0048b17f f   LIBCMT:_userapi_.obj
 0001:0008a19b       __RTC_SetErrorFuncW        0048b19b f   LIBCMT:_userapi_.obj
 0001:0008a1b7       ?_RTC_GetErrorFunc@@YAP6AHHPBDH00ZZPBX@Z 0048b1b7 f   LIBCMT:_userapi_.obj
 0001:0008a1bd       ?_RTC_GetErrorFuncW@@YAP6AHHPB_WH00ZZPBX@Z 0048b1bd f   LIBCMT:_userapi_.obj
 0001:0008a1c3       __chkesp                   0048b1c3 f   LIBCMT:chkesp.obj
 0001:0008a1db       __CRT_RTC_INIT             0048b1db f   LIBCMT:chkesp.obj
 0001:0008a1de       __CRT_RTC_INITW            0048b1de f   LIBCMT:chkesp.obj
 0001:0008a293       _DebuggerKnownHandle       0048b293 f   LIBCMT:_error_.obj
 0001:0008a4ab       ?_RTC_Failure@@YAXPAXH@Z   0048b4ab f   LIBCMT:_error_.obj
 0001:0008a4e6       ?_RTC_StackFailure@@YAXPAXPBD@Z 0048b4e6 f   LIBCMT:_error_.obj
 0001:0008a640       ?_RTC_AllocaFailure@@YAXPAXPAU_RTC_ALLOCA_NODE@@H@Z 0048b640 f   LIBCMT:_error_.obj
 0001:0008a75f       __RTC_UninitUse            0048b75f f   LIBCMT:_error_.obj
 0001:0008a9e7       ?_RTC_GetSrcLine@@YAHPAEPA_WKPAH1K@Z 0048b9e7 f   LIBCMT:_pdblkup_.obj
 0001:0008ac64       _DebugBreak@0              0048bc64 f   kernel32:KERNEL32.dll
 0001:0008ac6a       _lstrlenA@4                0048bc6a f   kernel32:KERNEL32.dll
 0001:0008ac70       _VirtualQuery@12           0048bc70 f   kernel32:KERNEL32.dll
 0001:0008ac80       _asn1r_get_float           0048bc80 f   asn1_ld:ard_flt.obj
 0001:0008ae20       _asn1r_get_double          0048be20 f   asn1_ld:ard_flt.obj
 0001:0008b020       _asn1r_get_utc_time        0048c020 f   asn1_ld:ard_utc.obj
 0001:0008b220       _asn1r_wr_utc_time         0048c220 f   asn1_ld:are_utc.obj
 0001:0008b440       _asn1r_wr_float            0048c440 f   asn1_ld:are_flt.obj
 0001:0008b510       _asn1r_wr_double           0048c510 f   asn1_ld:are_flt.obj
 0002:00000000       ___xc_a                    004ad000     LIBCMT:crt0init.obj
 0002:00000104       ___xc_z                    004ad104     LIBCMT:crt0init.obj
 0002:00000208       ___xi_a                    004ad208     LIBCMT:crt0init.obj
 0002:00000524       ___xi_z                    004ad524     LIBCMT:crt0init.obj
 0002:00000628       ___xp_a                    004ad628     LIBCMT:crt0init.obj
 0002:00000934       ___xp_z                    004ad934     LIBCMT:crt0init.obj
 0002:00000a38       ___xt_a                    004ada38     LIBCMT:crt0init.obj
 0002:00000b3c       ___xt_z                    004adb3c     LIBCMT:crt0init.obj
 0002:00000c60       __real@0000000000000000    004adc60     slogipc.obj
 0002:00000c70       _cr_asn1                   004adc70     asn1_ld:asn1r.obj
 0002:00000cd0       __real@4170000000000000    004adcd0     asn1_ld:asn1r.obj
 0002:00000cd8       __real@408f400000000000    004adcd8     asn1_ld:asn1r.obj
 0002:00000ce0       __real@40a7700000000000    004adce0     ositcps_ld:tp4port.obj
 0002:00000ce8       _cr_mms                    004adce8     mmsl_ld:mmsdec.obj
 0002:00000d48       __real@47efffffe0000000    004add48     utility_ld:str_util.obj
 0002:00000d50       __real@00000000            004add50     utility_ld:str_util.obj
 0002:00000d58       __real@40dd4c0000000000    004add58     utility_ld:gensock2.obj
 0002:00000d60       __real@3fe0000000000000    004add60     utility_ld:time_str.obj
 0002:00000d68       __real@41cdcd6500000000    004add68     utility_ld:time_str.obj
 0002:00000d70       ??_C@_15IABLJNFO@?$AA?6?$AA?6?$AA?$AA@ 004add70     LIBCMT:wassert.obj
 0002:00000d78       ??_C@_13LBAGMAIH@?$AA?6?$AA?$AA@ 004add78     LIBCMT:wassert.obj
 0002:00000d7c       ??_C@_17LGKOMLJ@?$AA?4?$AA?4?$AA?4?$AA?$AA@ 004add7c     LIBCMT:wassert.obj
 0002:00000d88       ??_C@_1EK@MBDPDCGA@?$AAM?$AAi?$AAc?$AAr?$AAo?$AAs?$AAo?$AAf?$AAt?$AA?5?$AAV?$AAi?$AAs?$AAu?$AAa?$AAl?$AA?5?$AAC?$AA?$CL?$AA?$CL?$AA?5?$AAR?$AAu?$AAn?$AAt?$AAi?$AAm?$AAe?$AA?5?$AAL?$AAi?$AAb@ 004add88     LIBCMT:wassert.obj
 0002:00000dd8       ??_C@_1HK@POCJMFGK@?$AA?$CI?$AAP?$AAr?$AAe?$AAs?$AAs?$AA?5?$AAR?$AAe?$AAt?$AAr?$AAy?$AA?5?$AAt?$AAo?$AA?5?$AAd?$AAe?$AAb?$AAu?$AAg?$AA?5?$AAt?$AAh?$AAe?$AA?5?$AAa?$AAp?$AAp?$AAl?$AAi?$AAc@ 004addd8     LIBCMT:wassert.obj
 0002:00000e58       ??_C@_1OA@EGMLFBHJ@?$AAF?$AAo?$AAr?$AA?5?$AAi?$AAn?$AAf?$AAo?$AAr?$AAm?$AAa?$AAt?$AAi?$AAo?$AAn?$AA?5?$AAo?$AAn?$AA?5?$AAh?$AAo?$AAw?$AA?5?$AAy?$AAo?$AAu?$AAr?$AA?5?$AAp?$AAr?$AAo?$AAg@ 004ade58     LIBCMT:wassert.obj
 0002:00000f38       ??_C@_1BK@PEDCIPMA@?$AAE?$AAx?$AAp?$AAr?$AAe?$AAs?$AAs?$AAi?$AAo?$AAn?$AA?3?$AA?5?$AA?$AA@ 004adf38     LIBCMT:wassert.obj
 0002:00000f54       ??_C@_1O@KCAFKHJE@?$AAL?$AAi?$AAn?$AAe?$AA?3?$AA?5?$AA?$AA@ 004adf54     LIBCMT:wassert.obj
 0002:00000f64       ??_C@_1O@HEMHKNDC@?$AAF?$AAi?$AAl?$AAe?$AA?3?$AA?5?$AA?$AA@ 004adf64     LIBCMT:wassert.obj
 0002:00000f74       ??_C@_1CO@EAEJAADC@?$AA?$DM?$AAp?$AAr?$AAo?$AAg?$AAr?$AAa?$AAm?$AA?5?$AAn?$AAa?$AAm?$AAe?$AA?5?$AAu?$AAn?$AAk?$AAn?$AAo?$AAw?$AAn?$AA?$DO?$AA?$AA@ 004adf74     LIBCMT:wassert.obj
 0002:00000fa4       ??_C@_1BE@PHKBBGE@?$AAP?$AAr?$AAo?$AAg?$AAr?$AAa?$AAm?$AA?3?$AA?5?$AA?$AA@ 004adfa4     LIBCMT:wassert.obj
 0002:00000fb8       ??_C@_1CE@OJBNHDMO@?$AAA?$AAs?$AAs?$AAe?$AAr?$AAt?$AAi?$AAo?$AAn?$AA?5?$AAf?$AAa?$AAi?$AAl?$AAe?$AAd?$AA?$CB?$AA?$AA@ 004adfb8     LIBCMT:wassert.obj
 0002:00000fdc       __FPinit                   004adfdc     LIBCMT:_fpinit_.obj
 0002:00000fe0       __FPmtinit                 004adfe0     LIBCMT:_fpinit_.obj
 0002:00000fe4       __FPmtterm                 004adfe4     LIBCMT:_fpinit_.obj
 0002:00000fe8       ??_C@_0P@MIGLKIOC@CorExitProcess?$AA@ 004adfe8     LIBCMT:crt0dat.obj
 0002:00000ff8       ??_C@_1BI@BGOHAHKC@?$AAm?$AAs?$AAc?$AAo?$AAr?$AAe?$AAe?$AA?4?$AAd?$AAl?$AAl?$AA?$AA@ 004adff8     LIBCMT:crt0dat.obj
 0002:00001010       ??_C@_0EA@FCLIIPNN@Visual?5C?$CL?$CL?5CRT?3?5Not?5enough?5memor@ 004ae010     LIBCMT:strerror.obj
 0002:00001050       ??_C@_08JCCMCCIL@HH?3mm?3ss?$AA@ 004ae050     LIBCMT:strftime.obj
 0002:0000105c       ??_C@_0BE@CKGJFCPC@dddd?0?5MMMM?5dd?0?5yyyy?$AA@ 004ae05c     LIBCMT:strftime.obj
 0002:00001070       ??_C@_08BPBNCDIB@MM?1dd?1yy?$AA@ 004ae070     LIBCMT:strftime.obj
 0002:0000107c       ??_C@_02CJNFDJBF@PM?$AA@   004ae07c     LIBCMT:strftime.obj
 0002:00001080       ??_C@_02DEDBPAFC@AM?$AA@   004ae080     LIBCMT:strftime.obj
 0002:00001084       ??_C@_08EDHMEBNP@December?$AA@ 004ae084     LIBCMT:strftime.obj
 0002:00001090       ??_C@_08HCHEGEOA@November?$AA@ 004ae090     LIBCMT:strftime.obj
 0002:0000109c       ??_C@_07JJNFCEND@October?$AA@ 004ae09c     LIBCMT:strftime.obj
 0002:000010a4       ??_C@_09BHHEALKD@September?$AA@ 004ae0a4     LIBCMT:strftime.obj
 0002:000010b0       ??_C@_06LBBHFDDG@August?$AA@ 004ae0b0     LIBCMT:strftime.obj
 0002:000010b8       ??_C@_04MIEPOIFP@July?$AA@ 004ae0b8     LIBCMT:strftime.obj
 0002:000010c0       ??_C@_04CNLMGBGM@June?$AA@ 004ae0c0     LIBCMT:strftime.obj
 0002:000010c8       ??_C@_05DMJDNLEJ@April?$AA@ 004ae0c8     LIBCMT:strftime.obj
 0002:000010d0       ??_C@_05HPCKOFNC@March?$AA@ 004ae0d0     LIBCMT:strftime.obj
 0002:000010d8       ??_C@_08GNJGEPFN@February?$AA@ 004ae0d8     LIBCMT:strftime.obj
 0002:000010e4       ??_C@_07CGJPFGJA@January?$AA@ 004ae0e4     LIBCMT:strftime.obj
 0002:000010ec       ??_C@_03MKABNOCG@Dec?$AA@  004ae0ec     LIBCMT:strftime.obj
 0002:000010f0       ??_C@_03JPJOFNIA@Nov?$AA@  004ae0f0     LIBCMT:strftime.obj
 0002:000010f4       ??_C@_03BMAOKBAD@Oct?$AA@  004ae0f4     LIBCMT:strftime.obj
 0002:000010f8       ??_C@_03GGCAPAJC@Sep?$AA@  004ae0f8     LIBCMT:strftime.obj
 0002:000010fc       ??_C@_03IFJFEIGA@Aug?$AA@  004ae0fc     LIBCMT:strftime.obj
 0002:00001100       ??_C@_03LBGABGKK@Jul?$AA@  004ae100     LIBCMT:strftime.obj
 0002:00001104       ??_C@_03IDFGHECI@Jun?$AA@  004ae104     LIBCMT:strftime.obj
 0002:00001108       ??_C@_03CNMDKL@May?$AA@    004ae108     LIBCMT:strftime.obj
 0002:0000110c       ??_C@_03LEOLGMJP@Apr?$AA@  004ae10c     LIBCMT:strftime.obj
 0002:00001110       ??_C@_03ODNJBKGA@Mar?$AA@  004ae110     LIBCMT:strftime.obj
 0002:00001114       ??_C@_03HJBDCHOM@Feb?$AA@  004ae114     LIBCMT:strftime.obj
 0002:00001118       ??_C@_03JIHJHPIE@Jan?$AA@  004ae118     LIBCMT:strftime.obj
 0002:0000111c       ??_C@_08INBOOONO@Saturday?$AA@ 004ae11c     LIBCMT:strftime.obj
 0002:00001128       ??_C@_06JECMNKMI@Friday?$AA@ 004ae128     LIBCMT:strftime.obj
 0002:00001130       ??_C@_08HACCIKIA@Thursday?$AA@ 004ae130     LIBCMT:strftime.obj
 0002:0000113c       ??_C@_09DLIGFAKA@Wednesday?$AA@ 004ae13c     LIBCMT:strftime.obj
 0002:00001148       ??_C@_07BAAGCFCM@Tuesday?$AA@ 004ae148     LIBCMT:strftime.obj
 0002:00001150       ??_C@_06JLEDEDGH@Monday?$AA@ 004ae150     LIBCMT:strftime.obj
 0002:00001158       ??_C@_06OOPIFAJ@Sunday?$AA@ 004ae158     LIBCMT:strftime.obj
 0002:00001160       ??_C@_03FEFJNEK@Sat?$AA@   004ae160     LIBCMT:strftime.obj
 0002:00001164       ??_C@_03IDIOELNC@Fri?$AA@  004ae164     LIBCMT:strftime.obj
 0002:00001168       ??_C@_03IOFIKPDN@Thu?$AA@  004ae168     LIBCMT:strftime.obj
 0002:0000116c       ??_C@_03MHOMLAJA@Wed?$AA@  004ae16c     LIBCMT:strftime.obj
 0002:00001170       ??_C@_03NAGEINEP@Tue?$AA@  004ae170     LIBCMT:strftime.obj
 0002:00001174       ??_C@_03PDAGKDH@Mon?$AA@   004ae174     LIBCMT:strftime.obj
 0002:00001178       ??_C@_03KOEHGMDN@Sun?$AA@  004ae178     LIBCMT:strftime.obj
 0002:0000117c       ?ProcessDetach@NativeDll@<CrtImplementationDetails>@@0IB 004ae17c     LIBCMT:strftime.obj
 0002:00001180       ?ProcessAttach@NativeDll@<CrtImplementationDetails>@@0IB 004ae180     LIBCMT:strftime.obj
 0002:00001184       ?ThreadAttach@NativeDll@<CrtImplementationDetails>@@0IB 004ae184     LIBCMT:strftime.obj
 0002:00001188       ?ThreadDetach@NativeDll@<CrtImplementationDetails>@@0IB 004ae188     LIBCMT:strftime.obj
 0002:0000118c       ?ProcessVerifier@NativeDll@<CrtImplementationDetails>@@0IB 004ae18c     LIBCMT:strftime.obj
 0002:00001190       ??_C@_03EBAPMIKO@a?1p?$AA@ 004ae190     LIBCMT:strftime.obj
 0002:00001194       ??_C@_05JAMEPDIN@am?1pm?$AA@ 004ae194     LIBCMT:strftime.obj
 0002:000011a0       __real@3ff0000000000000    004ae1a0     LIBCMT:_fabs_.obj
 0002:000011a8       ??_C@_0BI@DFKBFLJE@GetProcessWindowStation?$AA@ 004ae1a8     LIBCMT:crtmboxw.obj
 0002:000011c0       ??_C@_0BK@DEKFELLI@GetUserObjectInformationW?$AA@ 004ae1c0     LIBCMT:crtmboxw.obj
 0002:000011dc       ??_C@_0BD@HHGDFDBJ@GetLastActivePopup?$AA@ 004ae1dc     LIBCMT:crtmboxw.obj
 0002:000011f0       ??_C@_0BA@HNOPNCHB@GetActiveWindow?$AA@ 004ae1f0     LIBCMT:crtmboxw.obj
 0002:00001200       ??_C@_0M@DLDCCGNP@MessageBoxW?$AA@ 004ae200     LIBCMT:crtmboxw.obj
 0002:0000120c       ??_C@_1BG@GOEBHBDC@?$AAU?$AAS?$AAE?$AAR?$AA3?$AA2?$AA?4?$AAD?$AAL?$AAL?$AA?$AA@ 004ae20c     LIBCMT:crtmboxw.obj
 0002:0000124c       ??_C@_1O@CEDCILHN@?$AA?$CI?$AAn?$AAu?$AAl?$AAl?$AA?$CJ?$AA?$AA@ 004ae24c     LIBCMT:output.obj
 0002:0000125c       ??_C@_06OJHGLDPL@?$CInull?$CJ?$AA@ 004ae25c     LIBCMT:output.obj
 0002:00001268       ___lookuptable             004ae268     LIBCMT:output.obj
 0002:000012c4       ??_C@_05KLBDPFGC@e?$CL000?$AA@ 004ae2c4     LIBCMT:cvt.obj
 0002:000012d0       __real@4150017ec0000000    004ae2d0     LIBCMT:_testfdiv_.obj
 0002:000012d8       __real@4147ffff80000000    004ae2d8     LIBCMT:_testfdiv_.obj
 0002:000012e0       ??_C@_0BK@NHEOCAHP@IsProcessorFeaturePresent?$AA@ 004ae2e0     LIBCMT:_testfdiv_.obj
 0002:000012fc       ??_C@_08CPNIBGIE@KERNEL32?$AA@ 004ae2fc     LIBCMT:_testfdiv_.obj
 0002:00001308       ??_C@_0O@NLDKAIKN@EncodePointer?$AA@ 004ae308     LIBCMT:tidtable.obj
 0002:00001318       ??_C@_1BK@DBDEIDLH@?$AAK?$AAE?$AAR?$AAN?$AAE?$AAL?$AA3?$AA2?$AA?4?$AAD?$AAL?$AAL?$AA?$AA@ 004ae318     LIBCMT:tidtable.obj
 0002:00001334       ??_C@_0O@KBPMFGHI@DecodePointer?$AA@ 004ae334     LIBCMT:tidtable.obj
 0002:00001344       ??_C@_07PEJMOBNF@FlsFree?$AA@ 004ae344     LIBCMT:tidtable.obj
 0002:0000134c       ??_C@_0M@JCPCPOEF@FlsSetValue?$AA@ 004ae34c     LIBCMT:tidtable.obj
 0002:00001358       ??_C@_0M@GDNOONDI@FlsGetValue?$AA@ 004ae358     LIBCMT:tidtable.obj
 0002:00001364       ??_C@_08KNHFBNJ@FlsAlloc?$AA@ 004ae364     LIBCMT:tidtable.obj
 0002:00001370       __XcptActTab               004ae370     LIBCMT:winxfltr.obj
 0002:000013e8       ??_C@_0P@GGKDKEEG@runtime?5error?5?$AA@ 004ae3e8     LIBCMT:crt0msg.obj
 0002:000013f8       ??_C@_02PCIJFNDE@?$AN?6?$AA@ 004ae3f8     LIBCMT:crt0msg.obj
 0002:000013fc       ??_C@_0O@MJNIPGOH@TLOSS?5error?$AN?6?$AA@ 004ae3fc     LIBCMT:crt0msg.obj
 0002:0000140c       ??_C@_0N@BONNPDHF@SING?5error?$AN?6?$AA@ 004ae40c     LIBCMT:crt0msg.obj
 0002:0000141c       ??_C@_0P@MBDAJNE@DOMAIN?5error?$AN?6?$AA@ 004ae41c     LIBCMT:crt0msg.obj
 0002:00001430       ??_C@_0JL@DFDOOABL@R6034?$AN?6An?5application?5has?5made?5a@ 004ae430     LIBCMT:crt0msg.obj
 0002:000014d0       ??_C@_0PH@EPAFIJ@R6033?$AN?6?9?5Attempt?5to?5use?5MSIL?5cod@ 004ae4d0     LIBCMT:crt0msg.obj
 0002:000015c8       ??_C@_0DD@BKEEABMM@R6032?$AN?6?9?5not?5enough?5space?5for?5lo@ 004ae5c8     LIBCMT:crt0msg.obj
 0002:00001600       ??_C@_0GD@OFKILIED@R6031?$AN?6?9?5Attempt?5to?5initialize?5t@ 004ae600     LIBCMT:crt0msg.obj
 0002:00001664       ??_C@_0BP@LPMHJOKI@R6030?$AN?6?9?5CRT?5not?5initialized?$AN?6?$AA@ 004ae664     LIBCMT:crt0msg.obj
 0002:00001684       ??_C@_0CF@KJDAIALP@R6028?$AN?6?9?5unable?5to?5initialize?5he@ 004ae684     LIBCMT:crt0msg.obj
 0002:000016ac       ??_C@_0DF@GAKBPDFP@R6027?$AN?6?9?5not?5enough?5space?5for?5lo@ 004ae6ac     LIBCMT:crt0msg.obj
 0002:000016e4       ??_C@_0DF@IBLNNAIG@R6026?$AN?6?9?5not?5enough?5space?5for?5st@ 004ae6e4     LIBCMT:crt0msg.obj
 0002:0000171c       ??_C@_0CG@IOHKGFNJ@R6025?$AN?6?9?5pure?5virtual?5function?5c@ 004ae71c     LIBCMT:crt0msg.obj
 0002:00001744       ??_C@_0DF@JIJJFJDC@R6024?$AN?6?9?5not?5enough?5space?5for?5_o@ 004ae744     LIBCMT:crt0msg.obj
 0002:0000177c       ??_C@_0CJ@EGEJHFME@R6019?$AN?6?9?5unable?5to?5open?5console?5@ 004ae77c     LIBCMT:crt0msg.obj
 0002:000017a8       ??_C@_0CB@GNHNIELH@R6018?$AN?6?9?5unexpected?5heap?5error?$AN?6@ 004ae7a8     LIBCMT:crt0msg.obj
 0002:000017cc       ??_C@_0CN@FOLDKNG@R6017?$AN?6?9?5unexpected?5multithread?5@ 004ae7cc     LIBCMT:crt0msg.obj
 0002:000017fc       ??_C@_0CM@FAHFJNHO@R6016?$AN?6?9?5not?5enough?5space?5for?5th@ 004ae7fc     LIBCMT:crt0msg.obj
 0002:00001828       ??_C@_0JG@LBKMGKLD@?$AN?6This?5application?5has?5requested@ 004ae828     LIBCMT:crt0msg.obj
 0002:000018c0       ??_C@_0CM@FLCNIPKK@R6009?$AN?6?9?5not?5enough?5space?5for?5en@ 004ae8c0     LIBCMT:crt0msg.obj
 0002:000018ec       ??_C@_0CK@KMMJOAPP@R6008?$AN?6?9?5not?5enough?5space?5for?5ar@ 004ae8ec     LIBCMT:crt0msg.obj
 0002:00001918       ??_C@_0CN@LEKKICBM@R6002?$AN?6?9?5floating?5point?5support?5@ 004ae918     LIBCMT:crt0msg.obj
 0002:00001948       ??_C@_0CF@GOGNBNAK@Microsoft?5Visual?5C?$CL?$CL?5Runtime?5Lib@ 004ae948     LIBCMT:crt0msg.obj
 0002:00001970       ??_C@_02PHMGELLB@?6?6?$AA@ 004ae970     LIBCMT:crt0msg.obj
 0002:00001974       ??_C@_03KHICJKCI@?4?4?4?$AA@ 004ae974     LIBCMT:crt0msg.obj
 0002:00001978       ??_C@_0BH@DNAGHKFM@?$DMprogram?5name?5unknown?$DO?$AA@ 004ae978     LIBCMT:crt0msg.obj
 0002:00001990       ??_C@_0BK@OFGJDLJJ@Runtime?5Error?$CB?6?6Program?3?5?$AA@ 004ae990     LIBCMT:crt0msg.obj
 0002:000019ac       ??_C@_0BC@JEAENNKH@SystemFunction036?$AA@ 004ae9ac     LIBCMT:rand_s.obj
 0002:000019c0       ??_C@_0N@JJPEKNFO@ADVAPI32?4DLL?$AA@ 004ae9c0     LIBCMT:rand_s.obj
 0002:000019d0       ??_C@_07LCBHPJJN@LC_TIME?$AA@ 004ae9d0     LIBCMT:setlocal.obj
 0002:000019d8       ??_C@_0L@DLHIECNL@LC_NUMERIC?$AA@ 004ae9d8     LIBCMT:setlocal.obj
 0002:000019e4       ??_C@_0M@MIENIKLA@LC_MONETARY?$AA@ 004ae9e4     LIBCMT:setlocal.obj
 0002:000019f0       ??_C@_08EADHIDAD@LC_CTYPE?$AA@ 004ae9f0     LIBCMT:setlocal.obj
 0002:000019fc       ??_C@_0L@KFJHEKIK@LC_COLLATE?$AA@ 004ae9fc     LIBCMT:setlocal.obj
 0002:00001a08       ??_C@_06NEFDFEKB@LC_ALL?$AA@ 004aea08     LIBCMT:setlocal.obj
 0002:00001a10       ___lc_category             004aea10     LIBCMT:setlocal.obj
 0002:00001ad8       ??_C@_03EGDHDPFD@_?4?0?$AA@ 004aead8     LIBCMT:setlocal.obj
 0002:00001adc       ??_C@_01LFCBOECM@?4?$AA@   004aeadc     LIBCMT:setlocal.obj
 0002:00001ae0       ??_C@_01IDAFKMJL@_?$AA@    004aeae0     LIBCMT:setlocal.obj
 0002:00001ae4       ??_C@_01ICJEACDI@?$DL?$AA@ 004aeae4     LIBCMT:setlocal.obj
 0002:00001ae8       ??_C@_01NEMOKFLO@?$DN?$AA@ 004aeae8     LIBCMT:setlocal.obj
 0002:00001aea       ??_C@_00CNPNBAHC@?$AA@     004aeaea     LIBCMT:setlocal.obj
 0002:00001aec       ??_C@_01GFHCPBMG@C?$AA@    004aeaec     LIBCMT:setlocal.obj
 0002:00001af0       ??_C@_02BALPLPBG@?$DN?$DL?$AA@ 004aeaf0     LIBCMT:setlocal.obj
 0002:00001af4       ??_C@_0BG@KLEAJEFJ@Illegal?5byte?5sequence?$AA@ 004aeaf4     LIBCMT:syserr.obj
 0002:00001b0c       ??_C@_0BE@ICMCHPHH@Directory?5not?5empty?$AA@ 004aeb0c     LIBCMT:syserr.obj
 0002:00001b20       ??_C@_0BJ@IHEHINLI@Function?5not?5implemented?$AA@ 004aeb20     LIBCMT:syserr.obj
 0002:00001b3c       ??_C@_0BD@CLHBCGPB@No?5locks?5available?$AA@ 004aeb3c     LIBCMT:syserr.obj
 0002:00001b50       ??_C@_0BC@BEDIHIDK@Filename?5too?5long?$AA@ 004aeb50     LIBCMT:syserr.obj
 0002:00001b64       ??_C@_0BK@JAEBMJJM@Resource?5deadlock?5avoided?$AA@ 004aeb64     LIBCMT:syserr.obj
 0002:00001b80       ??_C@_0BB@FCBJFCAJ@Result?5too?5large?$AA@ 004aeb80     LIBCMT:syserr.obj
 0002:00001b94       ??_C@_0N@MMJPGLJK@Domain?5error?$AA@ 004aeb94     LIBCMT:syserr.obj
 0002:00001ba4       ??_C@_0M@LHEPIIOM@Broken?5pipe?$AA@ 004aeba4     LIBCMT:syserr.obj
 0002:00001bb0       ??_C@_0P@PKCJJLLM@Too?5many?5links?$AA@ 004aebb0     LIBCMT:syserr.obj
 0002:00001bc0       ??_C@_0BG@DDBFNKBH@Read?9only?5file?5system?$AA@ 004aebc0     LIBCMT:syserr.obj
 0002:00001bd8       ??_C@_0N@FEHLOILP@Invalid?5seek?$AA@ 004aebd8     LIBCMT:syserr.obj
 0002:00001be8       ??_C@_0BI@FEALHKLD@No?5space?5left?5on?5device?$AA@ 004aebe8     LIBCMT:syserr.obj
 0002:00001c00       ??_C@_0P@LFMMIPAE@File?5too?5large?$AA@ 004aec00     LIBCMT:syserr.obj
 0002:00001c10       ??_C@_0CE@ONOKNLPF@Inappropriate?5I?1O?5control?5operat@ 004aec10     LIBCMT:syserr.obj
 0002:00001c34       ??_C@_0BE@INBJMKGG@Too?5many?5open?5files?$AA@ 004aec34     LIBCMT:syserr.obj
 0002:00001c48       ??_C@_0BO@IIFBODJE@Too?5many?5open?5files?5in?5system?$AA@ 004aec48     LIBCMT:syserr.obj
 0002:00001c68       ??_C@_0BB@HMGGCEBG@Invalid?5argument?$AA@ 004aec68     LIBCMT:syserr.obj
 0002:00001c7c       ??_C@_0P@NDHGCGKE@Is?5a?5directory?$AA@ 004aec7c     LIBCMT:syserr.obj
 0002:00001c8c       ??_C@_0BA@CJBACOOL@Not?5a?5directory?$AA@ 004aec8c     LIBCMT:syserr.obj
 0002:00001c9c       ??_C@_0P@NLEIANHE@No?5such?5device?$AA@ 004aec9c     LIBCMT:syserr.obj
 0002:00001cac       ??_C@_0O@OAMDNOCP@Improper?5link?$AA@ 004aecac     LIBCMT:syserr.obj
 0002:00001cbc       ??_C@_0M@NAAJNNGH@File?5exists?$AA@ 004aecbc     LIBCMT:syserr.obj
 0002:00001cc8       ??_C@_0BA@BIBLIOEK@Resource?5device?$AA@ 004aecc8     LIBCMT:syserr.obj
 0002:00001cd8       ??_C@_0O@NIPGCINC@Unknown?5error?$AA@ 004aecd8     LIBCMT:syserr.obj
 0002:00001ce8       ??_C@_0M@LOEHLCJD@Bad?5address?$AA@ 004aece8     LIBCMT:syserr.obj
 0002:00001cf4       ??_C@_0BC@HFNFNKAI@Permission?5denied?$AA@ 004aecf4     LIBCMT:syserr.obj
 0002:00001d08       ??_C@_0BB@IMDKMPFB@Not?5enough?5space?$AA@ 004aed08     LIBCMT:syserr.obj
 0002:00001d1c       ??_C@_0CB@EPFKGNAK@Resource?5temporarily?5unavailable@ 004aed1c     LIBCMT:syserr.obj
 0002:00001d40       ??_C@_0BD@LOHELEP@No?5child?5processes?$AA@ 004aed40     LIBCMT:syserr.obj
 0002:00001d54       ??_C@_0BE@NFGDDCEF@Bad?5file?5descriptor?$AA@ 004aed54     LIBCMT:syserr.obj
 0002:00001d68       ??_C@_0BC@HKPNECK@Exec?5format?5error?$AA@ 004aed68     LIBCMT:syserr.obj
 0002:00001d7c       ??_C@_0BC@MFFGCDFL@Arg?5list?5too?5long?$AA@ 004aed7c     LIBCMT:syserr.obj
 0002:00001d90       ??_C@_0BK@DPKMCKJ@No?5such?5device?5or?5address?$AA@ 004aed90     LIBCMT:syserr.obj
 0002:00001dac       ??_C@_0BD@KKNFOBBD@Input?1output?5error?$AA@ 004aedac     LIBCMT:syserr.obj
 0002:00001dc0       ??_C@_0BK@FJBOAFDK@Interrupted?5function?5call?$AA@ 004aedc0     LIBCMT:syserr.obj
 0002:00001ddc       ??_C@_0BA@FKIAIBGA@No?5such?5process?$AA@ 004aeddc     LIBCMT:syserr.obj
 0002:00001dec       ??_C@_0BK@FMDHKPNF@No?5such?5file?5or?5directory?$AA@ 004aedec     LIBCMT:syserr.obj
 0002:00001e08       ??_C@_0BI@BJFCGOHL@Operation?5not?5permitted?$AA@ 004aee08     LIBCMT:syserr.obj
 0002:00001e20       ??_C@_08INEPGKHH@No?5error?$AA@ 004aee20     LIBCMT:syserr.obj
 0002:00001e2c       ___dnames                  004aee2c     LIBCMT:timeset.obj
 0002:00001e44       ___mnames                  004aee44     LIBCMT:timeset.obj
 0002:00001e6c       ??_C@_02CLFPBFFP@TZ?$AA@   004aee6c     LIBCMT:tzset.obj
 0002:00001e70       ??_C@_13NOLLCAOD@?$AA?$AA?$AA?$AA@ 004aee70     LIBCMT:a_map.obj
 0002:00001e74       ??_C@_0L@KDOEJCKC@_nextafter?$AA@ 004aee74     LIBCMT:_fpexcept_.obj
 0002:00001e80       ??_C@_05JGDBENOH@_logb?$AA@ 004aee80     LIBCMT:_fpexcept_.obj
 0002:00001e88       ??_C@_03ONILCKOB@_yn?$AA@  004aee88     LIBCMT:_fpexcept_.obj
 0002:00001e8c       ??_C@_03NAKIGLHK@_y1?$AA@  004aee8c     LIBCMT:_fpexcept_.obj
 0002:00001e90       ??_C@_03MJLDFKDL@_y0?$AA@  004aee90     LIBCMT:_fpexcept_.obj
 0002:00001e94       ??_C@_05GKKHEGJL@frexp?$AA@ 004aee94     LIBCMT:_fpexcept_.obj
 0002:00001e9c       ??_C@_04KEPJIHGP@fmod?$AA@ 004aee9c     LIBCMT:_fpexcept_.obj
 0002:00001ea4       ??_C@_06MEIMCGCF@_hypot?$AA@ 004aeea4     LIBCMT:_fpexcept_.obj
 0002:00001eac       ??_C@_05KBKMEMPO@_cabs?$AA@ 004aeeac     LIBCMT:_fpexcept_.obj
 0002:00001eb4       ??_C@_05CEJMAHNP@ldexp?$AA@ 004aeeb4     LIBCMT:_fpexcept_.obj
 0002:00001ebc       ??_C@_04EHEDPDJG@modf?$AA@ 004aeebc     LIBCMT:_fpexcept_.obj
 0002:00001ec4       ??_C@_04ODHECPBC@fabs?$AA@ 004aeec4     LIBCMT:_fpexcept_.obj
 0002:00001ecc       ??_C@_05PBJFFIGL@floor?$AA@ 004aeecc     LIBCMT:_fpexcept_.obj
 0002:00001ed4       ??_C@_04GFPJNGEK@ceil?$AA@ 004aeed4     LIBCMT:_fpexcept_.obj
 0002:00001edc       ??_C@_03IIINPABG@tan?$AA@  004aeedc     LIBCMT:_fpexcept_.obj
 0002:00001ee0       ??_C@_03LALBNOCG@cos?$AA@  004aeee0     LIBCMT:_fpexcept_.obj
 0002:00001ee4       ??_C@_03BLEJJJBH@sin?$AA@  004aeee4     LIBCMT:_fpexcept_.obj
 0002:00001ee8       ??_C@_04EIAKFFMI@sqrt?$AA@ 004aeee8     LIBCMT:_fpexcept_.obj
 0002:00001ef0       ??_C@_05KNGEOGJB@atan2?$AA@ 004aeef0     LIBCMT:_fpexcept_.obj
 0002:00001ef8       ??_C@_04MLLJIGOK@atan?$AA@ 004aeef8     LIBCMT:_fpexcept_.obj
 0002:00001f00       ??_C@_04PDIFKINK@acos?$AA@ 004aef00     LIBCMT:_fpexcept_.obj
 0002:00001f08       ??_C@_04FIHNOPOL@asin?$AA@ 004aef08     LIBCMT:_fpexcept_.obj
 0002:00001f10       ??_C@_04FJHINJAO@tanh?$AA@ 004aef10     LIBCMT:_fpexcept_.obj
 0002:00001f18       ??_C@_04HPJJNFIM@cosh?$AA@ 004aef18     LIBCMT:_fpexcept_.obj
 0002:00001f20       ??_C@_04COOMCNPB@sinh?$AA@ 004aef20     LIBCMT:_fpexcept_.obj
 0002:00001f28       ??_C@_05HGHHAHAP@log10?$AA@ 004aef28     LIBCMT:_fpexcept_.obj
 0002:00001f30       ??_C@_03MGHMBJCF@log?$AA@  004aef30     LIBCMT:_fpexcept_.obj
 0002:00001f34       ??_C@_03JGHBODFD@pow?$AA@  004aef34     LIBCMT:_fpexcept_.obj
 0002:00001f38       ??_C@_03KHJOGHMM@exp?$AA@  004aef38     LIBCMT:_fpexcept_.obj
 0002:00001f40       ___lookuptable_s           004aef40     LIBCMT:outputs.obj
 0002:00001f9c       ??_C@_0BK@CIDNPOGP@GetUserObjectInformationA?$AA@ 004aef9c     LIBCMT:crtmbox.obj
 0002:00001fb8       ??_C@_0M@CHKKJDAI@MessageBoxA?$AA@ 004aefb8     LIBCMT:crtmbox.obj
 0002:00001fc4       ??_C@_0L@NDEGIDAG@USER32?4DLL?$AA@ 004aefc4     LIBCMT:crtmbox.obj
 0002:00001fd0       ___newctype                004aefd0     LIBCMT:ctype.obj
 0002:000022d0       __wctype                   004af2d0     LIBCMT:ctype.obj
 0002:000024d8       ___newclmap                004af4d8     LIBCMT:ctype.obj
 0002:00002658       ___newcumap                004af658     LIBCMT:ctype.obj
 0002:000027d8       ??_C@_0O@FMJNFNKE@united?9states?$AA@ 004af7d8     LIBCMT:getqloc.obj
 0002:000027e8       ??_C@_0P@NDHFFKCA@united?9kingdom?$AA@ 004af7e8     LIBCMT:getqloc.obj
 0002:000027f8       ??_C@_0BC@HHDADLGF@trinidad?5?$CG?5tobago?$AA@ 004af7f8     LIBCMT:getqloc.obj
 0002:0000280c       ??_C@_0M@IOAEBDAC@south?9korea?$AA@ 004af80c     LIBCMT:getqloc.obj
 0002:00002818       ??_C@_0N@FIELFKIJ@south?9africa?$AA@ 004af818     LIBCMT:getqloc.obj
 0002:00002828       ??_C@_0M@OPNDHCMC@south?5korea?$AA@ 004af828     LIBCMT:getqloc.obj
 0002:00002834       ??_C@_0N@MDEOEPFI@south?5africa?$AA@ 004af834     LIBCMT:getqloc.obj
 0002:00002844       ??_C@_06FKAPCJLB@slovak?$AA@ 004af844     LIBCMT:getqloc.obj
 0002:0000284c       ??_C@_0M@EFJANOAL@puerto?9rico?$AA@ 004af84c     LIBCMT:getqloc.obj
 0002:00002858       ??_C@_08PGOJKDAI@pr?9china?$AA@ 004af858     LIBCMT:getqloc.obj
 0002:00002864       ??_C@_08JHDOMCMI@pr?5china?$AA@ 004af864     LIBCMT:getqloc.obj
 0002:00002870       ??_C@_02JHCHFBLL@nz?$AA@   004af870     LIBCMT:getqloc.obj
 0002:00002874       ??_C@_0M@LINHDHKP@new?9zealand?$AA@ 004af874     LIBCMT:getqloc.obj
 0002:00002880       ??_C@_09IIIPPBDB@hong?9kong?$AA@ 004af880     LIBCMT:getqloc.obj
 0002:0000288c       ??_C@_07HJLCKBG@holland?$AA@ 004af88c     LIBCMT:getqloc.obj
 0002:00002894       ??_C@_0O@LEHGMHAG@great?5britain?$AA@ 004af894     LIBCMT:getqloc.obj
 0002:000028a4       ??_C@_07FACOMELA@england?$AA@ 004af8a4     LIBCMT:getqloc.obj
 0002:000028ac       ??_C@_05JIHCEICB@czech?$AA@ 004af8ac     LIBCMT:getqloc.obj
 0002:000028b4       ??_C@_05BBJOBLGB@china?$AA@ 004af8b4     LIBCMT:getqloc.obj
 0002:000028bc       ??_C@_07GPKPHICP@britain?$AA@ 004af8bc     LIBCMT:getqloc.obj
 0002:000028c4       ??_C@_07MHIPBHMG@america?$AA@ 004af8c4     LIBCMT:getqloc.obj
 0002:000028cc       ??_C@_03KIALPMKC@usa?$AA@  004af8cc     LIBCMT:getqloc.obj
 0002:000028d0       ??_C@_02FGJGKGGD@us?$AA@   004af8d0     LIBCMT:getqloc.obj
 0002:000028d4       ??_C@_02NEINDODK@uk?$AA@   004af8d4     LIBCMT:getqloc.obj
 0002:000028d8       ??_C@_05JMPCFJFJ@swiss?$AA@ 004af8d8     LIBCMT:getqloc.obj
 0002:000028e0       ??_C@_0BA@HLOCPIOD@swedish?9finland?$AA@ 004af8e0     LIBCMT:getqloc.obj
 0002:000028f0       ??_C@_0BC@PKCNIABK@spanish?9venezuela?$AA@ 004af8f0     LIBCMT:getqloc.obj
 0002:00002904       ??_C@_0BA@GBHHMIJI@spanish?9uruguay?$AA@ 004af904     LIBCMT:getqloc.obj
 0002:00002914       ??_C@_0BE@BHDOHPMC@spanish?9puerto?5rico?$AA@ 004af914     LIBCMT:getqloc.obj
 0002:00002928       ??_C@_0N@KMOIDGGN@spanish?9peru?$AA@ 004af928     LIBCMT:getqloc.obj
 0002:00002938       ??_C@_0BB@HMHLPGPH@spanish?9paraguay?$AA@ 004af938     LIBCMT:getqloc.obj
 0002:0000294c       ??_C@_0P@MCPKNGFD@spanish?9panama?$AA@ 004af94c     LIBCMT:getqloc.obj
 0002:0000295c       ??_C@_0BC@IHOHGAIL@spanish?9nicaragua?$AA@ 004af95c     LIBCMT:getqloc.obj
 0002:00002970       ??_C@_0P@KLMJDNFJ@spanish?9modern?$AA@ 004af970     LIBCMT:getqloc.obj
 0002:00002980       ??_C@_0BA@BPAPGBCM@spanish?9mexican?$AA@ 004af980     LIBCMT:getqloc.obj
 0002:00002990       ??_C@_0BB@PDECHHHE@spanish?9honduras?$AA@ 004af990     LIBCMT:getqloc.obj
 0002:000029a4       ??_C@_0BC@KLHKFGDB@spanish?9guatemala?$AA@ 004af9a4     LIBCMT:getqloc.obj
 0002:000029b8       ??_C@_0BE@MFOOKJAI@spanish?9el?5salvador?$AA@ 004af9b8     LIBCMT:getqloc.obj
 0002:000029cc       ??_C@_0BA@FCOKFPFC@spanish?9ecuador?$AA@ 004af9cc     LIBCMT:getqloc.obj
 0002:000029dc       ??_C@_0BL@PLMGIMOO@spanish?9dominican?5republic?$AA@ 004af9dc     LIBCMT:getqloc.obj
 0002:000029f8       ??_C@_0BD@HLGDNMHB@spanish?9costa?5rica?$AA@ 004af9f8     LIBCMT:getqloc.obj
 0002:00002a0c       ??_C@_0BB@PKCBKCPE@spanish?9colombia?$AA@ 004afa0c     LIBCMT:getqloc.obj
 0002:00002a20       ??_C@_0O@MCBIJGNE@spanish?9chile?$AA@ 004afa20     LIBCMT:getqloc.obj
 0002:00002a30       ??_C@_0BA@BEFEIGJJ@spanish?9bolivia?$AA@ 004afa30     LIBCMT:getqloc.obj
 0002:00002a40       ??_C@_0BC@EMECMPD@spanish?9argentina?$AA@ 004afa40     LIBCMT:getqloc.obj
 0002:00002a54       ??_C@_0BF@EALFLENP@portuguese?9brazilian?$AA@ 004afa54     LIBCMT:getqloc.obj
 0002:00002a6c       ??_C@_0BC@HBLEBLNN@norwegian?9nynorsk?$AA@ 004afa6c     LIBCMT:getqloc.obj
 0002:00002a80       ??_C@_0BB@HMACDDCK@norwegian?9bokmal?$AA@ 004afa80     LIBCMT:getqloc.obj
 0002:00002a94       ??_C@_09BAFFPPHE@norwegian?$AA@ 004afa94     LIBCMT:getqloc.obj
 0002:00002aa0       ??_C@_0O@EAJFJDFG@italian?9swiss?$AA@ 004afaa0     LIBCMT:getqloc.obj
 0002:00002ab0       ??_C@_0O@CNOMPGD@irish?9english?$AA@ 004afab0     LIBCMT:getqloc.obj
 0002:00002ac0       ??_C@_0N@EDHBGCKG@german?9swiss?$AA@ 004afac0     LIBCMT:getqloc.obj
 0002:00002ad0       ??_C@_0BC@JACMHNBP@german?9luxembourg?$AA@ 004afad0     LIBCMT:getqloc.obj
 0002:00002ae4       ??_C@_0BE@HBGMGFEG@german?9lichtenstein?$AA@ 004afae4     LIBCMT:getqloc.obj
 0002:00002af8       ??_C@_0BA@HKKBIBKL@german?9austrian?$AA@ 004afaf8     LIBCMT:getqloc.obj
 0002:00002b08       ??_C@_0N@GCAEPEBK@french?9swiss?$AA@ 004afb08     LIBCMT:getqloc.obj
 0002:00002b18       ??_C@_0BC@DJFJJCK@french?9luxembourg?$AA@ 004afb18     LIBCMT:getqloc.obj
 0002:00002b2c       ??_C@_0BA@NNCEDFIC@french?9canadian?$AA@ 004afb2c     LIBCMT:getqloc.obj
 0002:00002b3c       ??_C@_0P@CMPOCLM@french?9belgian?$AA@ 004afb3c     LIBCMT:getqloc.obj
 0002:00002b4c       ??_C@_0M@GHHDJOK@english?9usa?$AA@ 004afb4c     LIBCMT:getqloc.obj
 0002:00002b58       ??_C@_0L@PLDJKEIL@english?9us?$AA@ 004afb58     LIBCMT:getqloc.obj
 0002:00002b64       ??_C@_0L@HJCCDMNC@english?9uk?$AA@ 004afb64     LIBCMT:getqloc.obj
 0002:00002b70       ??_C@_0BK@CKLIAGJB@english?9trinidad?5y?5tobago?$AA@ 004afb70     LIBCMT:getqloc.obj
 0002:00002b8c       ??_C@_0BF@JMJMGNNF@english?9south?5africa?$AA@ 004afb8c     LIBCMT:getqloc.obj
 0002:00002ba4       ??_C@_0L@DKIIFDFD@english?9nz?$AA@ 004afba4     LIBCMT:getqloc.obj
 0002:00002bb0       ??_C@_0BA@ONHGJCLH@english?9jamaica?$AA@ 004afbb0     LIBCMT:getqloc.obj
 0002:00002bc0       ??_C@_0M@HJBGHOPO@english?9ire?$AA@ 004afbc0     LIBCMT:getqloc.obj
 0002:00002bcc       ??_C@_0BC@LFEKMIFB@english?9caribbean?$AA@ 004afbcc     LIBCMT:getqloc.obj
 0002:00002be0       ??_C@_0M@OLDPFKHI@english?9can?$AA@ 004afbe0     LIBCMT:getqloc.obj
 0002:00002bec       ??_C@_0P@OMDEHBMP@english?9belize?$AA@ 004afbec     LIBCMT:getqloc.obj
 0002:00002bfc       ??_C@_0M@KFHFPFED@english?9aus?$AA@ 004afbfc     LIBCMT:getqloc.obj
 0002:00002c08       ??_C@_0BB@MNMBKDFE@english?9american?$AA@ 004afc08     LIBCMT:getqloc.obj
 0002:00002c1c       ??_C@_0O@KIDLNNBA@dutch?9belgian?$AA@ 004afc1c     LIBCMT:getqloc.obj
 0002:00002c2c       ??_C@_0BE@JBKABBMH@chinese?9traditional?$AA@ 004afc2c     LIBCMT:getqloc.obj
 0002:00002c40       ??_C@_0BC@MJJMPKCG@chinese?9singapore?$AA@ 004afc40     LIBCMT:getqloc.obj
 0002:00002c54       ??_C@_0BD@FDKADDCP@chinese?9simplified?$AA@ 004afc54     LIBCMT:getqloc.obj
 0002:00002c68       ??_C@_0BB@DBEFDDME@chinese?9hongkong?$AA@ 004afc68     LIBCMT:getqloc.obj
 0002:00002c7c       ??_C@_07DHNMFMCI@chinese?$AA@ 004afc7c     LIBCMT:getqloc.obj
 0002:00002c84       ??_C@_03FNDDCHI@chi?$AA@   004afc84     LIBCMT:getqloc.obj
 0002:00002c88       ??_C@_03BMMIADDJ@chh?$AA@  004afc88     LIBCMT:getqloc.obj
 0002:00002c8c       ??_C@_08OAIPJDGI@canadian?$AA@ 004afc8c     LIBCMT:getqloc.obj
 0002:00002c98       ??_C@_07HBPMNPNJ@belgian?$AA@ 004afc98     LIBCMT:getqloc.obj
 0002:00002ca0       ??_C@_0L@OEKOPBEL@australian?$AA@ 004afca0     LIBCMT:getqloc.obj
 0002:00002cac       ??_C@_0BB@MEIMBEDG@american?9english?$AA@ 004afcac     LIBCMT:getqloc.obj
 0002:00002cc0       ??_C@_0BB@DFMDPDGB@american?5english?$AA@ 004afcc0     LIBCMT:getqloc.obj
 0002:00002cd4       ??_C@_08IJLOKOLL@american?$AA@ 004afcd4     LIBCMT:getqloc.obj
 0002:00002ce0       ___rg_language             004afce0     LIBCMT:getqloc.obj
 0002:00002ee8       ___rg_country              004afee8     LIBCMT:getqloc.obj
 0002:00002fa0       ___rglangidNotDefault      004affa0     LIBCMT:getqloc.obj
 0002:00002fb4       ??_C@_01GBGANLPD@0?$AA@    004affb4     LIBCMT:getqloc.obj
 0002:00002fb8       ??_C@_03NFKLAGEF@OCP?$AA@  004affb8     LIBCMT:getqloc.obj
 0002:00002fbc       ??_C@_03DFHEHBHG@ACP?$AA@  004affbc     LIBCMT:getqloc.obj
 0002:00002fc0       ??_C@_0BC@NFIEMBLL@Norwegian?9Nynorsk?$AA@ 004affc0     LIBCMT:getqloc.obj
 0002:00002fd4       ??_C@_06GDENEHCP@CONIN$?$AA@ 004affd4     LIBCMT:initcon.obj
 0002:00002fdc       ??_C@_07GPDNMNG@CONOUT$?$AA@ 004affdc     LIBCMT:initcon.obj
 0002:00002fe4       ??_C@_06IMKFLFPG@1?$CDQNAN?$AA@ 004affe4     LIBCMT:_x10fout_.obj
 0002:00002fec       ??_C@_05DNEBIAHO@1?$CDINF?$AA@ 004affec     LIBCMT:_x10fout_.obj
 0002:00002ff4       ??_C@_05PHHOCPM@1?$CDIND?$AA@ 004afff4     LIBCMT:_x10fout_.obj
 0002:00002ffc       ??_C@_06PGGFOGJG@1?$CDSNAN?$AA@ 004afffc     LIBCMT:_x10fout_.obj
 0002:00003004       ??_C@_0BP@OGBCLIBO@Stack?5around?5_alloca?5corrupted?$AA@ 004b0004     LIBCMT:_userapi_.obj
 0002:00003024       ??_C@_0CK@CNLNOEPB@Local?5variable?5used?5before?5initi@ 004b0024     LIBCMT:_userapi_.obj
 0002:00003050       ??_C@_0BI@CIGMDCBH@Stack?5memory?5corruption?$AA@ 004b0050     LIBCMT:_userapi_.obj
 0002:00003068       ??_C@_0CK@FEGOIOPB@Cast?5to?5smaller?5type?5causing?5los@ 004b0068     LIBCMT:_userapi_.obj
 0002:00003094       ??_C@_0BJ@HEGAHDFO@Stack?5pointer?5corruption?$AA@ 004b0094     LIBCMT:_userapi_.obj
 0002:000030c4       ??_C@_0BO@GNIAFIKK@Unknown?5Runtime?5Check?5Error?6?$AN?$AA@ 004b00c4     LIBCMT:_error_.obj
 0002:000030e4       ??_C@_0CM@NGINOKPC@Stack?5memory?5around?5_alloca?5was?5@ 004b00e4     LIBCMT:_error_.obj
 0002:00003110       ??_C@_0DG@HKJMLLLP@A?5local?5variable?5was?5used?5before@ 004b0110     LIBCMT:_error_.obj
 0002:00003148       ??_C@_0BN@FFOINMNJ@Stack?5memory?5was?5corrupted?6?$AN?$AA@ 004b0148     LIBCMT:_error_.obj
 0002:00003168       ??_C@_0BBN@GPMLNJCF@A?5cast?5to?5a?5smaller?5data?5type?5ha@ 004b0168     LIBCMT:_error_.obj
 0002:00003288       ??_C@_0NN@NGPKDKPD@The?5value?5of?5ESP?5was?5not?5properl@ 004b0288     LIBCMT:_error_.obj
 0002:00003404       ??_C@_0CA@IODNCDPG@Run?9Time?5Check?5Failure?5?$CD?$CFd?5?9?5?$CFs?$AA@ 004b0404     LIBCMT:_error_.obj
 0002:00003424       ??_C@_0BE@GNBOBNCK@Unknown?5Module?5Name?$AA@ 004b0424     LIBCMT:_error_.obj
 0002:00003438       ??_C@_0BB@PFFGGCJP@Unknown?5Filename?$AA@ 004b0438     LIBCMT:_error_.obj
 0002:00003450       ??_C@_1EA@NFKNIFJP@?$AAR?$AAu?$AAn?$AA?9?$AAT?$AAi?$AAm?$AAe?$AA?5?$AAC?$AAh?$AAe?$AAc?$AAk?$AA?5?$AAF?$AAa?$AAi?$AAl?$AAu?$AAr?$AAe?$AA?5?$AA?$CD?$AA?$CF?$AAd?$AA?5?$AA?9?$AA?5?$AA?$CF?$AAs?$AA?$AA@ 004b0450     LIBCMT:_error_.obj
 0002:00003490       ??_C@_1GM@OLMCBDMB@?$AAR?$AAu?$AAn?$AAt?$AAi?$AAm?$AAe?$AA?5?$AAC?$AAh?$AAe?$AAc?$AAk?$AA?5?$AAE?$AAr?$AAr?$AAo?$AAr?$AA?4?$AA?6?$AA?$AN?$AA?5?$AAU?$AAn?$AAa?$AAb?$AAl?$AAe?$AA?5?$AAt?$AAo@ 004b0490     LIBCMT:_error_.obj
 0002:000034fc       ??_C@_0CG@IAFNJNEE@Stack?5corrupted?5near?5unknown?5var@ 004b04fc     LIBCMT:_error_.obj
 0002:00003524       ??_C@_05MKKEDADM@?$CF?42X?5?$AA@ 004b0524     LIBCMT:_error_.obj
 0002:00003530       ??_C@_0EJ@LJKNEOLN@Stack?5area?5around?5_alloca?5memory@ 004b0530     LIBCMT:_error_.obj
 0002:0000357c       ??_C@_08KJEDNCKC@?$CFs?$CFs?$CFs?$CFs?$AA@ 004b057c     LIBCMT:_error_.obj
 0002:00003588       ??_C@_02LLMPMKNF@?$DO?5?$AA@ 004b0588     LIBCMT:_error_.obj
 0002:0000358c       ??_C@_01EEMJAFIK@?6?$AA@   004b058c     LIBCMT:_error_.obj
 0002:00003590       ??_C@_0BC@KIBAILCI@?$CFs?$CFs?$CFp?$CFs?$CFld?$CFs?$CFd?$CFs?$AA@ 004b0590     LIBCMT:_error_.obj
 0002:000035a8       ??_C@_0EI@CLEPFNGI@Stack?5area?5around?5_alloca?5memory@ 004b05a8     LIBCMT:_error_.obj
 0002:000035f0       ??_C@_0N@MHFFIMFG@?6Address?3?50x?$AA@ 004b05f0     LIBCMT:_error_.obj
 0002:00003600       ??_C@_07DFDJCKFN@?6Size?3?5?$AA@ 004b0600     LIBCMT:_error_.obj
 0002:00003608       ??_C@_0CK@DKGBICFE@?6Allocation?5number?5within?5this?5f@ 004b0608     LIBCMT:_error_.obj
 0002:00003634       ??_C@_08OMAHNMHJ@?6Data?3?5?$DM?$AA@ 004b0634     LIBCMT:_error_.obj
 0002:00003640       ??_C@_09FOPFMPEJ@wsprintfA?$AA@ 004b0640     LIBCMT:_error_.obj
 0002:0000364c       ??_C@_0L@GMPLCCII@user32?4dll?$AA@ 004b064c     LIBCMT:_error_.obj
 0002:00003658       ??_C@_0DE@OHJBPMBP@A?5variable?5is?5being?5used?5without@ 004b0658     LIBCMT:_error_.obj
 0002:0000368c       ??_C@_0M@EKFFODEC@MSPDB80?4DLL?$AA@ 004b068c     LIBCMT:_pdblkup_.obj
 0002:00003698       ??_C@_0BF@BMIHBHCA@EnvironmentDirectory?$AA@ 004b0698     LIBCMT:_pdblkup_.obj
 0002:000036b0       ??_C@_0CN@JNNIHDGH@SOFTWARE?2Microsoft?2VisualStudio?2@ 004b06b0     LIBCMT:_pdblkup_.obj
 0002:000036e0       ??_C@_0M@HLOHPNFA@RegCloseKey?$AA@ 004b06e0     LIBCMT:_pdblkup_.obj
 0002:000036ec       ??_C@_0BB@HHEIPGME@RegQueryValueExA?$AA@ 004b06ec     LIBCMT:_pdblkup_.obj
 0002:00003700       ??_C@_0O@DCOGKJGG@RegOpenKeyExA?$AA@ 004b0700     LIBCMT:_pdblkup_.obj
 0002:00003710       ??_C@_01KDCPPGHE@r?$AA@    004b0710     LIBCMT:_pdblkup_.obj
 0002:00003714       ??_C@_0BB@KCIACLNC@PDBOpenValidate5?$AA@ 004b0714     LIBCMT:_pdblkup_.obj
 0002:00003728       __load_config_used         004b0728     LIBCMT:loadcfg.obj
 0002:00004290       ___safe_se_handler_table   004b1290     <linker-defined>
 0002:000043a0       ___rtc_iaa                 004b13a0     LIBCMT:_initsect_.obj
 0002:000045a8       ___rtc_izz                 004b15a8     LIBCMT:_initsect_.obj
 0002:000046ac       ___rtc_taa                 004b16ac     LIBCMT:_initsect_.obj
 0002:000048b4       ___rtc_tzz                 004b18b4     LIBCMT:_initsect_.obj
 0003:000000e0       __logcfg_log_err_logstr    004b30e0     logcfgx.obj
 0003:000000f0       __logcfg_log_nerr_logstr   004b30f0     logcfgx.obj
 0003:00000100       __logcfg_log_flow_logstr   004b3100     logcfgx.obj
 0003:00000140       _logcfgMaskMaps            004b3140     logcfgx.obj
 0003:00000190       _logcfgMaskMapCtrl         004b3190     logcfgx.obj
 0003:000003a8       _logCfgLogMaskMaps         004b33a8     logcfgx.obj
 0003:000006a8       _logCfgLogCtrlMapCtrl      004b36a8     logcfgx.obj
 0003:00001160       _mmsl_version              004b4160     mmslvar.obj
 0003:00001164       _mmsl_invoke_id            004b4164     mmslvar.obj
 0003:00001168       __mmsdec_ctxt              004b4168     mmslvar.obj
 0003:0000116c       _m_max_dec_aa              004b416c     mmslvar.obj
 0003:00001170       _m_max_rt_aa_ctrl          004b4170     mmslvar.obj
 0003:00001174       _m_max_mods                004b4174     mmslvar.obj
 0003:00001178       _mms_debug_sel             004b4178     mmslvar.obj
 0003:0000117c       _user_debug_sel            004b417c     mmslvar.obj
 0003:0000118c       __mms_log_dec_logstr       004b418c     mmslvar.obj
 0003:0000119c       __mms_log_enc_logstr       004b419c     mmslvar.obj
 0003:000011b0       __mms_log_acse_logstr      004b41b0     mmslvar.obj
 0003:000011c0       __mms_log_llc_logstr       004b41c0     mmslvar.obj
 0003:000011d4       __mms_log_ique_logstr      004b41d4     mmslvar.obj
 0003:000011e8       __mms_log_rque_logstr      004b41e8     mmslvar.obj
 0003:000011f8       __mms_log_ind_logstr       004b41f8     mmslvar.obj
 0003:0000120c       __mms_log_conf_logstr      004b420c     mmslvar.obj
 0003:0000121c       __mms_log_vm_logstr        004b421c     mmslvar.obj
 0003:0000122c       __mms_log_err_logstr       004b422c     mmslvar.obj
 0003:00001240       __mms_log_nerr_logstr      004b4240     mmslvar.obj
 0003:00001250       __mms_log_pdu_logstr       004b4250     mmslvar.obj
 0003:00001264       __mms_log_config_logstr    004b4264     mmslvar.obj
 0003:00001278       __mms_log_always_logstr    004b4278     mmslvar.obj
 0003:0000128c       __user_err_logstr          004b428c     mmslvar.obj
 0003:000012a0       __user_client_logstr       004b42a0     mmslvar.obj
 0003:000012b4       __user_server_logstr       004b42b4     mmslvar.obj
 0003:000013f8       _mmsLogMaskMaps            004b43f8     mmslvar.obj
 0003:0000153c       _mmsLogMaskMapCtrl         004b453c     mmslvar.obj
 0003:00001598       _usrLogMaskMaps            004b4598     mmslvar.obj
 0003:000015f0       _usrLogMaskMapCtrl         004b45f0     mmslvar.obj
 0003:000016f8       _mmsop_en                  004b46f8     mmsop_en.obj
 0003:00001d48       _mms_op_string             004b4d48     mmsop_en.obj
 0003:00001ef0       _m_num_mms_op_string       004b4ef0     mmsop_en.obj
 0003:00001ef4       _m_param                   004b4ef4     mmsop_en.obj
 0003:00001ef8       _mms_req_decode_fun        004b4ef8     mmsop_en.obj
 0003:00002050       _mms_rsp_decode_fun        004b5050     mmsop_en.obj
 0003:000021a8       _m_service_resp            004b51a8     mmsop_en.obj
 0003:00002f7c       _infoRptPeriod             004b5f7c     server.obj
 0003:00002f80       _identify_response_info    004b5f80     server.obj
 0003:0000353c       _varProcFuns               004b653c     server.obj
 0003:000035b0       _dummy_name                004b65b0     server.obj
 0003:00003908       _slogIpcMaxCmdPend         004b6908     slogipc.obj
 0003:00003944       _m_struct_start_algn_mode  004b6944     srvrobj.obj
 0003:00003948       _m_lite_data_algn_tbl      004b6948     srvrobj.obj
 0003:0000398c       _m_struct_end_algn_mode    004b698c     srvrobj.obj
 0003:00003990       _mvlCompName_s             004b6990     srvrobj.obj
 0003:00003994       _mvlCompName_l             004b6994     srvrobj.obj
 0003:00003d38       _mvl_rt_tables             004b6d38     srvrobj.obj
 0003:00003e45       _m_mem_debug               004b6e45     mem_ld:mem_chks.obj
 0003:00003e58       __mem_log_err_logstr       004b6e58     mem_ld:mem_chks.obj
 0003:00003e6c       __mem_log_calloc_logstr    004b6e6c     mem_ld:mem_chks.obj
 0003:00003e80       __mem_log_malloc_logstr    004b6e80     mem_ld:mem_chks.obj
 0003:00003e94       __mem_log_realloc_logstr   004b6e94     mem_ld:mem_chks.obj
 0003:00003ea8       __mem_log_free_logstr      004b6ea8     mem_ld:mem_chks.obj
 0003:00003ebc       __mem_log_nerr_logstr      004b6ebc     mem_ld:mem_chks.obj
 0003:00003ed0       __mem_log_dump_logstr      004b6ed0     mem_ld:mem_chks.obj
 0003:00003f48       _memLogMaskMaps            004b6f48     mem_ld:mem_chks.obj
 0003:00003fcc       _memLogMaskMapCtrl         004b6fcc     mem_ld:mem_chks.obj
 0003:00004068       _memDebugMaps              004b7068     mem_ld:mem_chks.obj
 0003:00004138       _memDebugMapCtrl           004b7138     mem_ld:mem_chks.obj
 0003:00004d68       _asn1_debug_sel            004b7d68     asn1_ld:asn1r.obj
 0003:00004d7c       __asn1_log_dec_logstr      004b7d7c     asn1_ld:asn1r.obj
 0003:00004d90       __asn1_log_enc_logstr      004b7d90     asn1_ld:asn1r.obj
 0003:00004da4       __asn1_log_err_logstr      004b7da4     asn1_ld:asn1r.obj
 0003:00004db8       __asn1_log_nerr_logstr     004b7db8     asn1_ld:asn1r.obj
 0003:00004e20       _asn1LogMaskMaps           004b7e20     asn1_ld:asn1r.obj
 0003:00004e90       _asn1LogMaskMapCtrl        004b7e90     asn1_ld:asn1r.obj
 0003:0000615c       _cfgStartElements          004b915c     ositcps_ld:osicfgx.obj
 0003:000061a8       _cfgElements               004b91a8     ositcps_ld:osicfgx.obj
 0003:00006250       _mmsElements               004b9250     ositcps_ld:osicfgx.obj
 0003:000062a4       _networkElements           004b92a4     ositcps_ld:osicfgx.obj
 0003:00006310       _clnpElements              004b9310     ositcps_ld:osicfgx.obj
 0003:0000637c       _transportElements         004b937c     ositcps_ld:osicfgx.obj
 0003:00006450       _Tp4Elements               004b9450     ositcps_ld:osicfgx.obj
 0003:00006590       _TcpElements               004b9590     ositcps_ld:osicfgx.obj
 0003:000065e0       _sessionElements           004b95e0     ositcps_ld:osicfgx.obj
 0003:0000661c       _networkAddressingElements 004b961c     ositcps_ld:osicfgx.obj
 0003:00006654       _LocalAddressesElements    004b9654     ositcps_ld:osicfgx.obj
 0003:000066b8       _LocalArNameElements       004b96b8     ositcps_ld:osicfgx.obj
 0003:00006754       _RemoteAddressesElements   004b9754     ositcps_ld:osicfgx.obj
 0003:000067b8       _RemoteArNameElements      004b97b8     ositcps_ld:osicfgx.obj
 0003:00007028       _acse_debug_sel            004ba028     ositcps_ld:lean_var.obj
 0003:0000703c       __acse_err_logstr          004ba03c     ositcps_ld:lean_var.obj
 0003:00007050       __acse_enc_logstr          004ba050     ositcps_ld:lean_var.obj
 0003:00007064       __acse_dec_logstr          004ba064     ositcps_ld:lean_var.obj
 0003:00007078       __acse_dib_logstr          004ba078     ositcps_ld:lean_var.obj
 0003:0000708c       __copp_err_logstr          004ba08c     ositcps_ld:lean_var.obj
 0003:000070a0       __copp_dec_logstr          004ba0a0     ositcps_ld:lean_var.obj
 0003:000070b8       __copp_dec_hex_logstr      004ba0b8     ositcps_ld:lean_var.obj
 0003:000070cc       __copp_enc_logstr          004ba0cc     ositcps_ld:lean_var.obj
 0003:000070e4       __copp_enc_hex_logstr      004ba0e4     ositcps_ld:lean_var.obj
 0003:000070f8       __cosp_err_logstr          004ba0f8     ositcps_ld:lean_var.obj
 0003:0000710c       __cosp_dec_logstr          004ba10c     ositcps_ld:lean_var.obj
 0003:00007124       __cosp_dec_hex_logstr      004ba124     ositcps_ld:lean_var.obj
 0003:00007138       __cosp_enc_logstr          004ba138     ositcps_ld:lean_var.obj
 0003:00007150       __cosp_enc_hex_logstr      004ba150     ositcps_ld:lean_var.obj
 0003:000072f8       _acseLogMaskMaps           004ba2f8     ositcps_ld:lean_var.obj
 0003:00007458       _acseLogMaskMapCtrl        004ba458     ositcps_ld:lean_var.obj
 0003:0000746c       _tp4_debug_sel             004ba46c     ositcps_ld:lean_var.obj
 0003:0000747c       __tp4_err_logstr           004ba47c     ositcps_ld:lean_var.obj
 0003:00007490       __tp4_flowup_logstr        004ba490     ositcps_ld:lean_var.obj
 0003:000074a8       __tp4_flowdown_logstr      004ba4a8     ositcps_ld:lean_var.obj
 0003:00007550       _tp4LogMaskMaps            004ba550     ositcps_ld:lean_var.obj
 0003:000075f4       _tp4LogMaskMapCtrl         004ba5f4     ositcps_ld:lean_var.obj
 0003:00007608       _clnp_debug_sel            004ba608     ositcps_ld:lean_var.obj
 0003:0000761c       __clnp_err_logstr          004ba61c     ositcps_ld:lean_var.obj
 0003:00007630       __clnp_nerr_logstr         004ba630     ositcps_ld:lean_var.obj
 0003:00007644       __clnp_req_logstr          004ba644     ositcps_ld:lean_var.obj
 0003:00007658       __clnp_ind_logstr          004ba658     ositcps_ld:lean_var.obj
 0003:00007670       __clnp_enc_dec_logstr      004ba670     ositcps_ld:lean_var.obj
 0003:0000768c       __clnp_llc_enc_dec_logstr  004ba68c     ositcps_ld:lean_var.obj
 0003:000076a0       __clsns_req_logstr         004ba6a0     ositcps_ld:lean_var.obj
 0003:000076b4       __clsns_ind_logstr         004ba6b4     ositcps_ld:lean_var.obj
 0003:000077b0       _clnpLogMaskMaps           004ba7b0     ositcps_ld:lean_var.obj
 0003:00007880       _clnpLogMaskMapCtrl        004ba880     ositcps_ld:lean_var.obj
 0003:00007894       _hPktSock                  004ba894     ositcps_ld:lean_var.obj
 0003:000078b8       _only_tp0_bind_id          004ba8b8     ositcps_ld:tp0main.obj
 0003:000093cc       _mms_obj_id                004bc3cc     ositcps_ld:acse2var.obj
 0003:000093f0       _acse_obj_id               004bc3f0     ositcps_ld:acse2var.obj
 0003:00009414       _asn1_obj_id               004bc414     ositcps_ld:acse2var.obj
 0003:00009438       _a_auth_password_obj_id    004bc438     ositcps_ld:acse2var.obj
 0003:000094b8       _eventTypeStr              004bc4b8     ositcps_ld:tp0_socks.obj
 0003:0000d4b0       __slogXMLLogTypeStr        004c04b0     slog_ld:slog.obj
 0003:0000d4bc       _sLogCtrl                  004c04bc     slog_ld:slog.obj
 0003:0000d4c0       _sLogCtrlDefault           004c04c0     slog_ld:slog.obj
 0003:0000d580       _sl_max_msg_size           004c0580     slog_ld:slog.obj
 0003:0000d590       __slogAlwaysLogTypeStr     004c0590     slog_ld:slog.obj
 0003:0000dab0       _slogAllocBuf              004c0ab0     slog_ld:slogmem.obj
 0003:0000dab4       _slogFreeBuf               004c0ab4     slog_ld:slogmem.obj
 0003:0000e840       _mvl_debug_sel             004c1840     mvl_ld:MVL_SERV.obj
 0003:0000e850       __mvllog_err_logstr        004c1850     mvl_ld:MVL_SERV.obj
 0003:0000e860       __mvllog_nerr_logstr       004c1860     mvl_ld:MVL_SERV.obj
 0003:0000e870       __mvllog_acse_logstr       004c1870     mvl_ld:MVL_SERV.obj
 0003:0000e884       __mvllog_acsedata_logstr   004c1884     mvl_ld:MVL_SERV.obj
 0003:0000e898       __mvlulog_flow_logstr      004c1898     mvl_ld:MVL_SERV.obj
 0003:0000e8ac       __mvlulog_debug_logstr     004c18ac     mvl_ld:MVL_SERV.obj
 0003:0000e938       _mvlLogMaskMaps            004c1938     mvl_ld:MVL_SERV.obj
 0003:0000e9d4       _mvlLogMaskMapCtrl         004c19d4     mvl_ld:MVL_SERV.obj
 0003:0000ecb4       _pdutype_to_reject_class   004c1cb4     mvl_ld:MVL_SERV.obj
 0003:0000ee58       _mvlLowWaterAvail          004c1e58     mvl_ld:MVL_SERV.obj
 0003:0000ee5c       _mvlLowWaterReqAvail       004c1e5c     mvl_ld:MVL_SERV.obj
 0003:0000ee60       _mvlLowWaterUReqAvail      004c1e60     mvl_ld:MVL_SERV.obj
 0003:00011170       _genlistDebugMaps          004c4170     utility_ld:genlists.obj
 0003:00011198       _genlistDebugMapCtrl       004c4198     utility_ld:genlists.obj
 0003:00011f70       _sxTimeFormatStr           004c4f70     utility_ld:sx_enc.obj
 0003:0001258c       __sx_log_dec_logstr        004c558c     utility_ld:sx_dec.obj
 0003:0001259c       __sx_log_enc_logstr        004c559c     utility_ld:sx_dec.obj
 0003:000125ac       __sx_log_flow_logstr       004c55ac     utility_ld:sx_dec.obj
 0003:000125c0       __sx_log_debug_logstr      004c55c0     utility_ld:sx_dec.obj
 0003:000125d0       __sx_log_err_logstr        004c55d0     utility_ld:sx_dec.obj
 0003:000125e0       __sx_log_nerr_logstr       004c55e0     utility_ld:sx_dec.obj
 0003:000125e4       _sx_debug_sel              004c55e4     utility_ld:sx_dec.obj
 0003:000125e8       _sx_debug_sel_cfg          004c55e8     utility_ld:sx_dec.obj
 0003:00012668       _sxLogMaskMaps             004c5668     utility_ld:sx_dec.obj
 0003:00012704       _sxLogMaskMapCtrl          004c5704     utility_ld:sx_dec.obj
 0003:00012820       _sx_err_str                004c5820     utility_ld:sx_dec.obj
 0003:00012850       _sx_err_str_cnt            004c5850     utility_ld:sx_dec.obj
 0003:00013440       _gs_debug_sel              004c6440     utility_ld:glbsem.obj
 0003:00013450       __glbem_flow_logstr        004c6450     utility_ld:glbsem.obj
 0003:00013460       __glbem_err_logstr         004c6460     utility_ld:glbsem.obj
 0003:00013470       __glbem_nerr_logstr        004c6470     utility_ld:glbsem.obj
 0003:000134b0       _gsLogMaskMaps             004c64b0     utility_ld:glbsem.obj
 0003:0001350c       _gsLogMaskMapCtrl          004c650c     utility_ld:glbsem.obj
 0003:00013820       _sockLogMaskMaps           004c6820     utility_ld:gensock2.obj
 0003:000138a8       _sockLogMaskMapCtrl        004c68a8     utility_ld:gensock2.obj
 0003:000138cc       _SOCK_LOG_FLOW_TEXT        004c68cc     utility_ld:gensock2.obj
 0003:000138e0       _SOCK_LOG_NERR_TEXT        004c68e0     utility_ld:gensock2.obj
 0003:000138f4       _SOCK_LOG_ERR_TEXT         004c68f4     utility_ld:gensock2.obj
 0003:00013904       _SOCK_LOG_RX_TEXT          004c6904     utility_ld:gensock2.obj
 0003:00013914       _SOCK_LOG_TX_TEXT          004c6914     utility_ld:gensock2.obj
 0003:00013b58       _sockDisconnReasonStr      004c6b58     utility_ld:gensock2.obj
 0003:00013b9c       _sockDisconnReasonStrCnt   004c6b9c     utility_ld:gensock2.obj
 0003:00014bb8       _tstrTimeFormat            004c7bb8     utility_ld:time_str.obj
 0003:00014bd0       _BtimeTimeFormat           004c7bd0     utility_ld:time_str.obj
 0003:00015800       ___security_cookie         004c8800     LIBCMT:gs_cookie.obj
 0003:00015804       ___security_cookie_complement 004c8804     LIBCMT:gs_cookie.obj
 0003:00015810       __fltused                  004c8810     LIBCMT:_fpinit_.obj
 0003:00015814       __ldused                   004c8814     LIBCMT:_fpinit_.obj
 0003:00015820       __aexit_rtn                004c8820     LIBCMT:crt0dat.obj
 0003:00015828       __iob                      004c8828     LIBCMT:_file.obj
 0003:00015aa8       ___app_type                004c8aa8     LIBCMT:crt0.obj
 0003:00015c20       ___lc_time_c               004c8c20     LIBCMT:strftime.obj
 0003:00015cd8       ___lc_time_curr            004c8cd8     LIBCMT:strftime.obj
 0003:00015ce4       ___abort_behavior          004c8ce4     LIBCMT:abort.obj
 0003:00015ce8       ___nullstring              004c8ce8     LIBCMT:output.obj
 0003:00015cec       ___wnullstring             004c8cec     LIBCMT:output.obj
 0003:00015cf0       __cfltcvt_tab              004c8cf0     LIBCMT:cmiscdat.obj
 0003:00015d18       __lookuptrailbytes         004c8d18     LIBCMT:read.obj
 0003:00015e18       ___badioinfo               004c8e18     LIBCMT:ioinit.obj
 0003:00015f78       ___flsindex                004c8f78     LIBCMT:tidtable.obj
 0003:00015f7c       ___getvalueindex           004c8f7c     LIBCMT:tidtable.obj
 0003:00015f80       __First_FPE_Indx           004c8f80     LIBCMT:winxfltr.obj
 0003:00015f84       __Num_FPE                  004c8f84     LIBCMT:winxfltr.obj
 0003:00015f88       __XcptActTabSize           004c8f88     LIBCMT:winxfltr.obj
 0003:00015f8c       __XcptActTabCount          004c8f8c     LIBCMT:winxfltr.obj
 0003:00016050       __amblksiz                 004c9050     LIBCMT:heapinit.obj
 0003:00016058       ___initialmbcinfo          004c9058     LIBCMT:mbctype.obj
 0003:00016278       __mbctype                  004c9278     LIBCMT:mbctype.obj
 0003:00016380       __mbcasemap                004c9380     LIBCMT:mbctype.obj
 0003:00016480       ___ptmbcinfo               004c9480     LIBCMT:mbctype.obj
 0003:0001657c       ___globallocalestatus      004c957c     LIBCMT:glstatus.obj
 0003:00016580       ___clocalestr              004c9580     LIBCMT:nlsdata2.obj
 0003:00016588       ___initiallocinfo          004c9588     LIBCMT:nlsdata2.obj
 0003:00016660       ___ptlocinfo               004c9660     LIBCMT:nlsdata2.obj
 0003:00016664       ___lc_clike                004c9664     LIBCMT:nlsdata2.obj
 0003:00016668       ___initiallocalestructinfo 004c9668     LIBCMT:nlsdata2.obj
 0003:00016670       __sys_errlist              004c9670     LIBCMT:syserr.obj
 0003:00016720       __sys_nerr                 004c9720     LIBCMT:syserr.obj
 0003:00016728       __timezone                 004c9728     LIBCMT:timeset.obj
 0003:0001672c       __daylight                 004c972c     LIBCMT:timeset.obj
 0003:00016730       __dstbias                  004c9730     LIBCMT:timeset.obj
 0003:000167b8       __tzname                   004c97b8     LIBCMT:timeset.obj
 0003:000167d8       __lpdays                   004c97d8     LIBCMT:days.obj
 0003:0001680c       __days                     004c980c     LIBCMT:days.obj
 0003:00016928       __d_inf                    004c9928     LIBCMT:_util_.obj
 0003:00016930       __d_ind                    004c9930     LIBCMT:_util_.obj
 0003:00016938       __d_max                    004c9938     LIBCMT:_util_.obj
 0003:00016940       __d_min                    004c9940     LIBCMT:_util_.obj
 0003:00016948       __d_mzero                  004c9948     LIBCMT:_util_.obj
 0003:00016970       __HUGE                     004c9970     LIBCMT:_huge_.obj
 0003:00016984       __NLG_Destination          004c9984     LIBCMT:exsup.obj
 0003:000169a0       __pctype                   004c99a0     LIBCMT:ctype.obj
 0003:000169a4       __pwctype                  004c99a4     LIBCMT:ctype.obj
 0003:000169a8       ___lconv_static_decimal    004c99a8     LIBCMT:lconv.obj
 0003:000169ac       ___lconv_c                 004c99ac     LIBCMT:lconv.obj
 0003:000169dc       ___lconv                   004c99dc     LIBCMT:lconv.obj
 0003:000169e0       ___mb_cur_max              004c99e0     LIBCMT:nlsdata1.obj
 0003:000169e4       ___decimal_point           004c99e4     LIBCMT:nlsdata1.obj
 0003:000169e8       ___decimal_point_length    004c99e8     LIBCMT:nlsdata1.obj
 0003:000169f0       __matherr_flag             004c99f0     LIBCMT:_matherr_.obj
 0003:00016a24       __coninpfh                 004c9a24     LIBCMT:initcon.obj
 0003:00016a28       __confh                    004c9a28     LIBCMT:initcon.obj
 0003:00016a30       __pow10pos                 004c9a30     LIBCMT:_constpow_.obj
 0003:00016b90       __pow10neg                 004c9b90     LIBCMT:_constpow_.obj
 0003:00016d20       __sec_err_logstr           004c9d20     ssec0_ld:ssecusr0.obj
 0003:00016d34       __sec_nerr_logstr          004c9d34     ssec0_ld:ssecusr0.obj
 0003:00016d48       __sec_flow_logstr          004c9d48     ssec0_ld:ssecusr0.obj
 0003:00016d5c       __sec_data_logstr          004c9d5c     ssec0_ld:ssecusr0.obj
 0003:00016d70       __sec_debug_logstr         004c9d70     ssec0_ld:ssecusr0.obj
 0003:00016d74       _sec_debug_sel             004c9d74     ssec0_ld:ssecusr0.obj
 0003:00016d78       _ssle_debug_sel            004c9d78     ssec0_ld:ssecusr0.obj
 0003:00016d90       _secLogMaskMapCtrl         004c9d90     ssec0_ld:ssecusr0.obj
 0003:00016db8       _ssleLogMaskMapCtrl        004c9db8     ssec0_ld:ssecusr0.obj
 0003:00016ddc       _secManCfgXmlFile          004c9ddc     ssec0_ld:ssecusr0.obj
 0003:000189d4       _m_data_algn_tbl           004cb9d4     mmsl_ld:mms_tdef.obj
 0003:000192d0       _m_rt_type_limit           004cc2d0     mmsl_ld:ms_tdef.obj
 0003:00019448       _tdlTypes                  004cc448     mmsl_ld:ms_tdef.obj
 0003:00019508       _numTdlTypes               004cc508     mmsl_ld:ms_tdef.obj
 0003:00019780       ?_RTC_ErrorLevels@@3PAHA   004cc780     LIBCMT:_error_.obj
 0003:0001e0b0       _status_resp_info          004d10b0     server.obj
 0003:0001e0cc       _sendInfoRpts              004d10cc     server.obj
 0003:0001e0cd       _asyncResponse             004d10cd     server.obj
 0003:0001e0d0       _asyncRespTime             004d10d0     server.obj
 0003:0001e0f8       _mvlCompName_              004d10f8     srvrobj.obj
 0003:0001e132       _use_rfc1006_listener_task 004d1132     ositcps_ld:tp0_socks.obj
 0003:0001e420       _sErrLogCtrl               004d1420     slog_ld:slog.obj
 0003:0001e424       _sNonStandardLogMode       004d1424     slog_ld:slog.obj
 0003:0001e5d4       _gs_already_inited         004d15d4     utility_ld:glbsem.obj
 0003:0001e698       ___fastflag                004d1698     LIBCMT:_fpinit_.obj
 0003:0001e69c       __adjust_fdiv              004d169c     LIBCMT:_fpinit_.obj
 0003:0001e6b4       __umaskval                 004d16b4     LIBCMT:crt0dat.obj
 0003:0001e6b8       ___argc                    004d16b8     LIBCMT:crt0dat.obj
 0003:0001e6bc       ___argv                    004d16bc     LIBCMT:crt0dat.obj
 0003:0001e6c0       ___wargv                   004d16c0     LIBCMT:crt0dat.obj
 0003:0001e6c4       __environ                  004d16c4     LIBCMT:crt0dat.obj
 0003:0001e6c8       ___initenv                 004d16c8     LIBCMT:crt0dat.obj
 0003:0001e6cc       __wenviron                 004d16cc     LIBCMT:crt0dat.obj
 0003:0001e6d0       ___winitenv                004d16d0     LIBCMT:crt0dat.obj
 0003:0001e6d4       __pgmptr                   004d16d4     LIBCMT:crt0dat.obj
 0003:0001e6d8       __wpgmptr                  004d16d8     LIBCMT:crt0dat.obj
 0003:0001e6dc       __exitflag                 004d16dc     LIBCMT:crt0dat.obj
 0003:0001e6e0       __C_Termination_Done       004d16e0     LIBCMT:crt0dat.obj
 0003:0001e6e4       __C_Exit_Done              004d16e4     LIBCMT:crt0dat.obj
 0003:0001e6ec       __cflush                   004d16ec     LIBCMT:_file.obj
 0003:0001e6f0       __aenvptr                  004d16f0     LIBCMT:crt0.obj
 0003:0001e6f4       __wenvptr                  004d16f4     LIBCMT:crt0.obj
 0003:0001e6f8       ___error_mode              004d16f8     LIBCMT:crt0.obj
 0003:0001e708       ___pInvalidArgHandler      004d1708     LIBCMT:invarg.obj
 0003:0001eb98       _gpFlsAlloc                004d1b98     LIBCMT:tidtable.obj
 0003:0001eb9c       _gpFlsGetValue             004d1b9c     LIBCMT:tidtable.obj
 0003:0001eba0       _gpFlsSetValue             004d1ba0     LIBCMT:tidtable.obj
 0003:0001eba4       _gpFlsFree                 004d1ba4     LIBCMT:tidtable.obj
 0003:0001eba8       __maxwait                  004d1ba8     LIBCMT:crtheap.obj
 0003:0001eec4       ?__pInconsistency@@3P6AXXZA 004d1ec4     LIBCMT:hooks.obj
 0003:0001eed4       ___pPurecall               004d1ed4     LIBCMT:inithelp.obj
 0003:0001eedc       ?_pnhHeap@@3P6AHI@ZA       004d1edc     LIBCMT:handler.obj
 0003:0001eee0       __stdbuf                   004d1ee0     LIBCMT:_sftbuf.obj
 0003:0001eee8       ___sbh_pHeaderDefer        004d1ee8     LIBCMT:sbheap.obj
 0003:0001eeec       __crtheap                  004d1eec     LIBCMT:heapinit.obj
 0003:0001eef0       __newmode                  004d1ef0     LIBCMT:_newmode.obj
 0003:0001f008       ___mbulinfo                004d2008     LIBCMT:mbctype.obj
 0003:0001f014       ___mbcodepage              004d2014     LIBCMT:mbctype.obj
 0003:0001f018       ___ismbcodepage            004d2018     LIBCMT:mbctype.obj
 0003:0001f01c       ___mblcid                  004d201c     LIBCMT:mbctype.obj
 0003:0001f020       ___locale_changed          004d2020     LIBCMT:setlocal.obj
 0003:0001f024       ___lc_handle               004d2024     LIBCMT:nlsdata2.obj
 0003:0001f03c       ___lc_codepage             004d203c     LIBCMT:nlsdata2.obj
 0003:0001f040       ___lc_collate_cp           004d2040     LIBCMT:nlsdata2.obj
 0003:0001f11c       __commode                  004d211c     LIBCMT:ncommode.obj
 0003:0001f120       __outputformat             004d2120     LIBCMT:outputformat.obj
 0003:0001f140       ___lconv_static_null       004d2140     LIBCMT:lconv.obj
 0003:0001f144       __fmode                    004d2144     LIBCMT:txtmode.obj
 0003:0001f318       _m_packed_data_algn_tbl    004d2318     mmsl_ld:mms_tdef.obj
 0003:0001f368       ?wsprintffp@@3P6AHPADPBDZZA 004d2368     LIBCMT:_error_.obj
 0003:0001f380       _mvl_vmd                   004d2380     <common>
 0003:0001f3d0       _rt_table_index            004d23d0     <common>
 0003:0001f3d4       _mvl_type_ctrl             004d23d4     <common>
 0003:0001f3d8       _numMvlRtNames             004d23d8     <common>
 0003:0001f3dc       _mvl_num_types             004d23dc     <common>
 0003:0001f3e0       _slogIpcCmdList            004d23e0     <common>
 0003:0001f3ec       _pendIndCtrl               004d23ec     <common>
 0003:0001f438       _serverStartTime           004d2438     <common>
 0003:0001f440       _struct1s_va               004d2440     <common>
 0003:0001f444       _infoRptCount              004d2444     <common>
 0003:0001f450       _UtcTimeNow                004d2450     <common>
 0003:0001f460       _procsMaxDynMemPtrs        004d2460     <common>
 0003:0001f47c       _struct1l_va               004d247c     <common>
 0003:0001f480       _Temperature               004d2480     <common>
 0003:0001f4a0       _rptCtrl                   004d24a0     <common>
 0003:0001f4c8       _domStruct1                004d24c8     <common>
 0003:0001f4e0       _procsMaxMemAllocated      004d24e0     <common>
 0003:0001f500       _procsCurrMemSize          004d2500     <common>
 0003:0001f51c       _tempCurrMemCount          004d251c     <common>
 0003:0001f520       _procsCurrMemCount         004d2520     <common>
 0003:0001f540       _domArr1                   004d2540     <common>
 0003:0001f554       _tempMaxMemAllocated       004d2554     <common>
 0003:0001f558       _tempCurrMemSize           004d2558     <common>
 0003:0001f55c       _indCount                  004d255c     <common>
 0003:0001f560       _pendIndRxTime             004d2560     <common>
 0003:0001f580       _UTF8Vstring13test         004d2580     <common>
 0003:0001f5a0       _arr1                      004d25a0     <common>
 0003:0001f5b8       _struct1                   004d25b8     <common>
 0003:0001f5c0       _tempMaxDynMemPtrs         004d25c0     <common>
 0003:0001f5c4       _domTemperature            004d25c4     <common>
 0003:0001f5c8       _localUTF8len              004d25c8     <common>
 0003:0001f5cc       _mvl_tmpfile_path          004d25cc     <common>
 0003:0001f5e0       _ma_clbind_ctrl            004d25e0     <common>
 0003:0001f688       _mvl_cfg_info              004d2688     <common>
 0003:0001f68c       _mvl_calling_conn_ctrl     004d268c     <common>
 0003:0001f690       _num_rem_dib_entries       004d2690     <common>
 0003:0001f694       __mvlu_rpt_disconnect_rcvd_fun 004d2694     <common>
 0003:0001f698       _mvl_acse_ok               004d2698     <common>
 0003:0001f69c       _mvl_called_conn_ctrl      004d269c     <common>
 0003:0001f6a0       __mvla_initiate_bc         004d26a0     <common>
 0003:0001f6c0       _mvl_mms_statistics        004d26c0     <common>
 0003:0001f740       _loc_dib_table             004d2740     <common>
 0003:0001f744       _num_loc_dib_entries       004d2744     <common>
 0003:0001f748       _rem_dib_table             004d2748     <common>
 0003:0001f74c       _mvlAssocIndList           004d274c     <common>
 0003:0001f750       _mvl_init_resp_info        004d2750     <common>
 0003:0001f754       _mvl_init_ind_hold         004d2754     <common>
 0003:0001f758       _u_mvl_disc_ind_fun        004d2758     <common>
 0003:0001f75c       __mvla_initiate_locDe      004d275c     <common>
 0003:0001f760       _m_cl_max_info_var_spec    004d2760     <common>
 0003:0001f774       _m_cl_max_info_acc_rslt    004d2774     <common>
 0003:0001f778       _m_sv_max_write_data       004d2778     <common>
 0003:0001f77c       _m_sv_max_read_var_spec    004d277c     <common>
 0003:0001f780       _mmsop_en_version1         004d2780     <common>
 0003:0001f784       _m_sv_max_num_vars         004d2784     <common>
 0003:0001f788       _m_sv_max_obj_name         004d2788     <common>
 0003:0001f78c       _m_sv_max_jread_vars       004d278c     <common>
 0003:0001f790       _m_sv_max_file_names       004d2790     <common>
 0003:0001f794       _m_sv_max_write_var_spec   004d2794     <common>
 0003:0001f7a0       _cs_send                   004d27a0     <common>
 0003:0001f7d0       _mmsl_enc_buf              004d27d0     <common>
 0003:0001f7d4       __mmsdec_msglen            004d27d4     <common>
 0003:0001f7d8       __mms_dec_info_pres        004d27d8     <common>
 0003:0001f7d9       _cs_send_reset_val         004d27d9     <common>
 0003:0001f7dc       _mmsl_dec_info_size        004d27dc     <common>
 0003:0001f7e0       _adtnl_err_info            004d27e0     <common>
 0003:0001f814       _m_hw_rt_aa_ctrl           004d2814     <common>
 0003:0001f818       __mmsdec_rslt              004d2818     <common>
 0003:0001f81c       __mms_dec_info             004d281c     <common>
 0003:0001f820       __mmsdec_msgptr            004d2820     <common>
 0003:0001f824       _m_alt_acc_packed          004d2824     <common>
 0003:0001f828       _m_hw_dec_aa               004d2828     <common>
 0003:0001f82c       _mms_op_err                004d282c     <common>
 0003:0001f830       _m_use_dis_float           004d2830     <common>
 0003:0001f834       _mmsl_msg_len              004d2834     <common>
 0003:0001f838       _mmsl_enc_buf_size         004d2838     <common>
 0003:0001f83c       _mmsl_msg_start            004d283c     <common>
 0003:0001f840       _modifier_list             004d2840     <common>
 0003:0001f84c       _logCfgLogCtrlGroupList    004d284c     <common>
 0003:0001f85c       _logCfgLogMaskGroupList    004d285c     <common>
 0003:0001f860       _logcfg_debug_sel          004d2860     <common>
 0003:0001f864       _c_memerr_fun              004d2864     <common>
 0003:0001f87c       _m_memerr_fun              004d287c     <common>
 0003:0001f880       _m_heap_check_enable       004d2880     <common>
 0003:0001f884       _chk_curr_mem_size         004d2884     <common>
 0003:0001f888       _chk_max_mem_allocated     004d2888     <common>
 0003:0001f88c       _m_find_node_enable        004d288c     <common>
 0003:0001f88d       _m_auto_hw_log             004d288d     <common>
 0003:0001f88e       _m_no_realloc_smaller      004d288e     <common>
 0003:0001f890       _mem_chk_err               004d2890     <common>
 0003:0001f894       _r_memerr_fun              004d2894     <common>
 0003:0001f898       _m_fill_byte               004d2898     <common>
 0003:0001f899       _m_track_prev_free         004d2899     <common>
 0003:0001f89c       _chk_debug_en              004d289c     <common>
 0003:0001f8a0       _chk_max_dyn_mem_ptrs      004d28a0     <common>
 0003:0001f8a4       _m_bad_ptr_val             004d28a4     <common>
 0003:0001f8a8       _m_pad_string              004d28a8     <common>
 0003:0001f8ac       _m_num_pad_bytes           004d28ac     <common>
 0003:0001f8b0       _m_check_list_enable       004d28b0     <common>
 0003:0001f8b1       _m_fill_en                 004d28b1     <common>
 0003:0001f8b4       _chk_curr_mem_count        004d28b4     <common>
 0003:0001f8c0       __dummySecCfg              004d28c0     <common>
 0003:0001faa4       _decode_acse_conn          004d2aa4     <common>
 0003:0001fab0       _pdv_data_ptr              004d2ab0     <common>
 0003:0001fac0       _pdv_data_len              004d2ac0     <common>
 0003:0001fac4       _p_user_data_is_outer      004d2ac4     <common>
 0003:0001fac5       _expected_pdv_pci          004d2ac5     <common>
 0003:0001fae0       _tp0Ctx                    004d2ae0     <common>
 0003:0001fb38       _pipe_to_main              004d2b38     <common>
 0003:0001fb3c       _hTcpEvent                 004d2b3c     <common>
 0003:0001fb40       _session_cfg               004d2b40     <common>
 0003:0001fb50       _cosp_only_ssel            004d2b50     <common>
 0003:0001fb58       _g_tpkt_enc_buf            004d2b58     <common>
 0003:0001fb70       _tp0_cfg                   004d2b70     <common>
 0003:0001fb80       _tp0_conn_arr              004d2b80     <common>
 0003:0001fb88       _only_tp0_loc_tsap         004d2b88     <common>
 0003:0001fb90       _only_tp0_user_bind_id     004d2b90     <common>
 0003:0001fb98       _only_loc_psel             004d2b98     <common>
 0003:0001fba6       _copp_bind_called          004d2ba6     <common>
 0003:0001fba8       _acse_msgsize              004d2ba8     <common>
 0003:0001fbb8       _cosp_buf                  004d2bb8     <common>
 0003:0001fbbc       _cosp_msgsize              004d2bbc     <common>
 0003:0001fbc0       _qMemElemSize              004d2bc0     <common>
 0003:0001fbcc       _slog_service_fun          004d2bcc     <common>
 0003:0001fbe4       __slog_remote_fun          004d2be4     <common>
 0003:0001fbe8       __slog_dyn_log_fun         004d2be8     <common>
 0003:0001fc00       _slogTimeText              004d2c00     <common>
 0003:0001fc20       _slog_dyn_log_fun          004d2c20     <common>
 0003:0001fc24       _slog_remote_fun           004d2c24     <common>
 0003:0001fc28       _slogRemoteFlags           004d2c28     <common>
 0003:0001fc2c       _u_rt_type_process         004d2c2c     <common>
 0003:0001fc38       _ml_log_unsol_req_info_fun 004d2c38     <common>
 0003:0001fc4c       _ml_log_req_info_fun       004d2c4c     <common>
 0003:0001fc50       _ml_log_unsol_ind_info_fun 004d2c50     <common>
 0003:0001fc54       _ml_log_resp_info_fun      004d2c54     <common>
 0003:0001fc58       _ml_log_error_resp_fun     004d2c58     <common>
 0003:0001fc5c       _ml_log_conf_info_fun      004d2c5c     <common>
 0003:0001fc60       _ml_log_ind_info_fun       004d2c60     <common>
 0003:0001fc64       _ml_log_reject_send_fun    004d2c64     <common>
 0003:0001fc68       _ml_log_error_conf_fun     004d2c68     <common>
 0003:0001fc6c       _ml_log_reject_recv_fun    004d2c6c     <common>
 0003:0001fc70       _m_free_os_fun             004d2c70     <common>
 0003:0001fc80       _m_calloc_os_fun           004d2c80     <common>
 0003:0001fc84       _m_realloc_os_fun          004d2c84     <common>
 0003:0001fc88       _stop_je                   004d2c88     <common>
 0003:0001fca6       _jread_more_follows        004d2ca6     <common>
 0003:0001fca8       _je_array_num_entries      004d2ca8     <common>
 0003:0001fcc0       _je_array                  004d2cc0     <common>
 0003:0001fd10       _je_array_index            004d2d10     <common>
 0003:0001fd14       _mvl_obj_nosort            004d2d14     <common>
 0003:0001fd20       _u_mvl_rd_ind_start        004d2d20     <common>
 0003:0001fd30       _u_mvl_rd_resp_sent        004d2d30     <common>
 0003:0001fd34       _u_mvl_wr_ind_start        004d2d34     <common>
 0003:0001fd44       _u_mvl_wr_resp_sent        004d2d44     <common>
 0003:0001fd48       _u_mvl_nvl_destroy         004d2d48     <common>
 0003:0001fd58       _u_mvl_jou_destroy         004d2d58     <common>
 0003:0001fd5c       _u_mvl_dom_destroy         004d2d5c     <common>
 0003:0001fd60       _u_mvl_var_destroy         004d2d60     <common>
 0003:0001fd80       _mvl_max_dyn               004d2d80     <common>
 0003:0001fdb3       __mvl_comm_serve_active    004d2db3     <common>
 0003:0001fdbd       _mvl_conn_filtered_logging 004d2dbd     <common>
 0003:0001fdbe       __mvl_persist_aa_objs      004d2dbe     <common>
 0003:0001fdc0       _u_mvl_check_timeout       004d2dc0     <common>
 0003:0001fdc4       _sockCtxList               004d2dc4     <common>
 0003:0001fdd4       _sock_debug_sel            004d2dd4     <common>
 0003:0001fdd8       _gs_hwEventTime            004d2dd8     <common>
 0003:00020024       _gs_track                  004d3024     <common>
 0003:00020040       _gs_currSemOwnerFile       004d3040     <common>
 0003:00020560       _gs_currSemOwnerLine       004d3560     <common>
 0003:000205c0       _gs_currSemFreeLine        004d35c0     <common>
 0003:00020610       _gs_hwMutexTime            004d3610     <common>
 0003:00020620       _gs_util_mutex             004d3620     <common>
 0003:00020644       _gs_currSemOwnerIndex      004d3644     <common>
 0003:00020660       _gs_currSemFreeFile        004d3660     <common>
 0003:00020b80       _gs_glb_mutex              004d3b80     <common>
 0003:00020ba4       _sxUseSax                  004d3ba4     <common>
 0003:00020bad       _sxIgnoreNS                004d3bad     <common>
 0003:00020bae       _sxLogOverrunAsFlow        004d3bae     <common>
 0003:00020bb7       _sxUseFormatting           004d3bb7     <common>
 0003:00020bb8       _list_debug_sel            004d3bb8     <common>
 0003:00020bc4       __debugger_hook_dummy      004d3bc4     <common>
 0003:00020bd0       ___setlc_active            004d3bd0     <common>
 0003:00020be0       ___unguarded_readlc_active 004d3be0     <common>
 0003:00020be4       ___active_heap             004d3be4     <common>
 0003:00020bf0       ___sbh_initialized         004d3bf0     <common>
 0003:00020c04       ___sbh_cntHeaderList       004d3c04     <common>
 0003:00020c08       ___sbh_pHeaderList         004d3c08     <common>
 0003:00020c0c       ___sbh_threshold           004d3c0c     <common>
 0003:00020c10       ___sbh_pHeaderScan         004d3c10     <common>
 0003:00020c14       ___sbh_sizeHeaderList      004d3c14     <common>
 0003:00020c18       ___sbh_indGroupDefer       004d3c18     <common>
 0003:00020c1c       __nhandle                  004d3c1c     <common>
 0003:00020c60       ___pioinfo                 004d3c60     <common>
 0003:00020d60       ___sse2_available          004d3d60     <common>
 0003:00020d6c       __pDestructExceptionObject 004d3d6c     <common>
 0003:00020d78       __acmdln                   004d3d78     <common>
 0003:00020d84       ___piob                    004d3d84     <common>
 0003:000210e0       __bufin                    004d40e0     <common>
 0003:000220e0       __nstream                  004d50e0     <common>
 0003:000220e4       ___env_initialized         004d50e4     <common>
 0003:000220f4       ___onexitend               004d50f4     <common>
 0003:000220f8       ___onexitbegin             004d50f8     <common>
 0003:000220fc       ___mbctype_initialized     004d50fc     <common>
 0003:00022100       ___dyn_tls_init_callback   004d5100     <common>
 0004:00000000       __IMPORT_DESCRIPTOR_WS2_32 004d6000     ws2_32:WS2_32.dll
 0004:00000014       __IMPORT_DESCRIPTOR_WINMM  004d6014     winmm:WINMM.dll
 0004:00000028       __IMPORT_DESCRIPTOR_KERNEL32 004d6028     kernel32:KERNEL32.dll
 0004:0000003c       __IMPORT_DESCRIPTOR_ADVAPI32 004d603c     advapi32:ADVAPI32.dll
 0004:00000050       __NULL_IMPORT_DESCRIPTOR   004d6050     ws2_32:WS2_32.dll
 0004:000003cc       __imp__InitializeSecurityDescriptor@8 004d63cc     advapi32:ADVAPI32.dll
 0004:000003d0       __imp__SetSecurityDescriptorDacl@16 004d63d0     advapi32:ADVAPI32.dll
 0004:000003d4       \177ADVAPI32_NULL_THUNK_DATA 004d63d4     advapi32:ADVAPI32.dll
 0004:00000400       __imp__DebugBreak@0        004d6400     kernel32:KERNEL32.dll
 0004:00000404       __imp__lstrlenA@4          004d6404     kernel32:KERNEL32.dll
 0004:00000408       __imp__ExitThread@4        004d6408     kernel32:KERNEL32.dll
 0004:0000040c       __imp__SetEnvironmentVariableA@8 004d640c     kernel32:KERNEL32.dll
 0004:00000410       __imp__CompareStringW@24   004d6410     kernel32:KERNEL32.dll
 0004:00000414       __imp__CompareStringA@24   004d6414     kernel32:KERNEL32.dll
 0004:00000418       __imp__GetProcessHeap@0    004d6418     kernel32:KERNEL32.dll
 0004:0000041c       __imp__SetEndOfFile@4      004d641c     kernel32:KERNEL32.dll
 0004:00000420       __imp__IsValidLocale@8     004d6420     kernel32:KERNEL32.dll
 0004:00000424       __imp__EnumSystemLocalesA@8 004d6424     kernel32:KERNEL32.dll
 0004:00000428       __imp__GetUserDefaultLCID@0 004d6428     kernel32:KERNEL32.dll
 0004:0000042c       __imp__GetStringTypeW@16   004d642c     kernel32:KERNEL32.dll
 0004:00000430       __imp__GetStringTypeA@20   004d6430     kernel32:KERNEL32.dll
 0004:00000434       __imp__GetLocaleInfoW@16   004d6434     kernel32:KERNEL32.dll
 0004:00000438       __imp__HeapSize@12         004d6438     kernel32:KERNEL32.dll
 0004:0000043c       __imp__CreateFileA@28      004d643c     kernel32:KERNEL32.dll
 0004:00000440       __imp__GetConsoleOutputCP@0 004d6440     kernel32:KERNEL32.dll
 0004:00000444       __imp__WriteConsoleA@20    004d6444     kernel32:KERNEL32.dll
 0004:00000448       __imp__LCMapStringW@24     004d6448     kernel32:KERNEL32.dll
 0004:0000044c       __imp__LCMapStringA@24     004d644c     kernel32:KERNEL32.dll
 0004:00000450       __imp__FlushFileBuffers@4  004d6450     kernel32:KERNEL32.dll
 0004:00000454       __imp__IsValidCodePage@4   004d6454     kernel32:KERNEL32.dll
 0004:00000458       __imp__MultiByteToWideChar@24 004d6458     kernel32:KERNEL32.dll
 0004:0000045c       __imp__GetLocalTime@4      004d645c     kernel32:KERNEL32.dll
 0004:00000460       __imp__QueryPerformanceCounter@4 004d6460     kernel32:KERNEL32.dll
 0004:00000464       __imp__QueryPerformanceFrequency@4 004d6464     kernel32:KERNEL32.dll
 0004:00000468       __imp__FindClose@4         004d6468     kernel32:KERNEL32.dll
 0004:0000046c       __imp__FindNextFileA@8     004d646c     kernel32:KERNEL32.dll
 0004:00000470       __imp__FindFirstFileA@8    004d6470     kernel32:KERNEL32.dll
 0004:00000474       __imp__FileTimeToDosDateTime@12 004d6474     kernel32:KERNEL32.dll
 0004:00000478       __imp__FileTimeToLocalFileTime@8 004d6478     kernel32:KERNEL32.dll
 0004:0000047c       __imp__InitializeCriticalSection@4 004d647c     kernel32:KERNEL32.dll
 0004:00000480       __imp__GetLastError@0      004d6480     kernel32:KERNEL32.dll
 0004:00000484       __imp__CreateMutexA@12     004d6484     kernel32:KERNEL32.dll
 0004:00000488       __imp__LocalFree@4         004d6488     kernel32:KERNEL32.dll
 0004:0000048c       __imp__LocalAlloc@8        004d648c     kernel32:KERNEL32.dll
 0004:00000490       __imp__GetCurrentThreadId@0 004d6490     kernel32:KERNEL32.dll
 0004:00000494       __imp__EnterCriticalSection@4 004d6494     kernel32:KERNEL32.dll
 0004:00000498       __imp__ReleaseMutex@4      004d6498     kernel32:KERNEL32.dll
 0004:0000049c       __imp__LeaveCriticalSection@4 004d649c     kernel32:KERNEL32.dll
 0004:000004a0       __imp__CloseHandle@4       004d64a0     kernel32:KERNEL32.dll
 0004:000004a4       __imp__DeleteCriticalSection@4 004d64a4     kernel32:KERNEL32.dll
 0004:000004a8       __imp__CreateEventA@16     004d64a8     kernel32:KERNEL32.dll
 0004:000004ac       __imp__WaitForSingleObject@8 004d64ac     kernel32:KERNEL32.dll
 0004:000004b0       __imp__WaitForMultipleObjects@16 004d64b0     kernel32:KERNEL32.dll
 0004:000004b4       __imp__SetEvent@4          004d64b4     kernel32:KERNEL32.dll
 0004:000004b8       __imp__PulseEvent@4        004d64b8     kernel32:KERNEL32.dll
 0004:000004bc       __imp__ResetEvent@4        004d64bc     kernel32:KERNEL32.dll
 0004:000004c0       __imp__RaiseException@16   004d64c0     kernel32:KERNEL32.dll
 0004:000004c4       __imp__GetVersionExA@4     004d64c4     kernel32:KERNEL32.dll
 0004:000004c8       __imp__FormatMessageA@28   004d64c8     kernel32:KERNEL32.dll
 0004:000004cc       __imp__Sleep@4             004d64cc     kernel32:KERNEL32.dll
 0004:000004d0       __imp__GetLocaleInfoA@16   004d64d0     kernel32:KERNEL32.dll
 0004:000004d4       __imp__WriteConsoleW@20    004d64d4     kernel32:KERNEL32.dll
 0004:000004d8       __imp__GetFileType@4       004d64d8     kernel32:KERNEL32.dll
 0004:000004dc       __imp__GetStdHandle@4      004d64dc     kernel32:KERNEL32.dll
 0004:000004e0       __imp__GetModuleFileNameW@12 004d64e0     kernel32:KERNEL32.dll
 0004:000004e4       __imp__FileTimeToSystemTime@8 004d64e4     kernel32:KERNEL32.dll
 0004:000004e8       __imp__GetFileInformationByHandle@8 004d64e8     kernel32:KERNEL32.dll
 0004:000004ec       __imp__PeekNamedPipe@24    004d64ec     kernel32:KERNEL32.dll
 0004:000004f0       __imp__SetConsoleCtrlHandler@8 004d64f0     kernel32:KERNEL32.dll
 0004:000004f4       __imp__GetModuleHandleW@4  004d64f4     kernel32:KERNEL32.dll
 0004:000004f8       __imp__GetProcAddress@8    004d64f8     kernel32:KERNEL32.dll
 0004:000004fc       __imp__ExitProcess@4       004d64fc     kernel32:KERNEL32.dll
 0004:00000500       __imp__GetSystemTimeAsFileTime@4 004d6500     kernel32:KERNEL32.dll
 0004:00000504       __imp__DeleteFileA@4       004d6504     kernel32:KERNEL32.dll
 0004:00000508       __imp__MoveFileA@8         004d6508     kernel32:KERNEL32.dll
 0004:0000050c       __imp__HeapAlloc@12        004d650c     kernel32:KERNEL32.dll
 0004:00000510       __imp__HeapFree@12         004d6510     kernel32:KERNEL32.dll
 0004:00000514       __imp__GetCommandLineA@0   004d6514     kernel32:KERNEL32.dll
 0004:00000518       __imp__HeapReAlloc@16      004d6518     kernel32:KERNEL32.dll
 0004:0000051c       __imp__VirtualQuery@12     004d651c     kernel32:KERNEL32.dll
 0004:00000520       __imp__CreateThread@24     004d6520     kernel32:KERNEL32.dll
 0004:00000524       __imp__GetTimeFormatA@24   004d6524     kernel32:KERNEL32.dll
 0004:00000528       __imp__GetDateFormatA@24   004d6528     kernel32:KERNEL32.dll
 0004:0000052c       __imp__GetTimeZoneInformation@4 004d652c     kernel32:KERNEL32.dll
 0004:00000530       __imp__TerminateProcess@8  004d6530     kernel32:KERNEL32.dll
 0004:00000534       __imp__GetCurrentProcess@0 004d6534     kernel32:KERNEL32.dll
 0004:00000538       __imp__UnhandledExceptionFilter@4 004d6538     kernel32:KERNEL32.dll
 0004:0000053c       __imp__SetUnhandledExceptionFilter@4 004d653c     kernel32:KERNEL32.dll
 0004:00000540       __imp__IsDebuggerPresent@0 004d6540     kernel32:KERNEL32.dll
 0004:00000544       __imp__LoadLibraryW@4      004d6544     kernel32:KERNEL32.dll
 0004:00000548       __imp__WriteFile@20        004d6548     kernel32:KERNEL32.dll
 0004:0000054c       __imp__WideCharToMultiByte@32 004d654c     kernel32:KERNEL32.dll
 0004:00000550       __imp__GetConsoleCP@0      004d6550     kernel32:KERNEL32.dll
 0004:00000554       __imp__GetConsoleMode@8    004d6554     kernel32:KERNEL32.dll
 0004:00000558       __imp__RtlUnwind@16        004d6558     kernel32:KERNEL32.dll
 0004:0000055c       __imp__GetModuleHandleA@4  004d655c     kernel32:KERNEL32.dll
 0004:00000560       __imp__ReadFile@20         004d6560     kernel32:KERNEL32.dll
 0004:00000564       __imp__SetStdHandle@8      004d6564     kernel32:KERNEL32.dll
 0004:00000568       __imp__SetHandleCount@4    004d6568     kernel32:KERNEL32.dll
 0004:0000056c       __imp__GetStartupInfoA@4   004d656c     kernel32:KERNEL32.dll
 0004:00000570       __imp__FatalAppExitA@8     004d6570     kernel32:KERNEL32.dll
 0004:00000574       __imp__TlsGetValue@4       004d6574     kernel32:KERNEL32.dll
 0004:00000578       __imp__TlsAlloc@0          004d6578     kernel32:KERNEL32.dll
 0004:0000057c       __imp__TlsSetValue@8       004d657c     kernel32:KERNEL32.dll
 0004:00000580       __imp__TlsFree@4           004d6580     kernel32:KERNEL32.dll
 0004:00000584       __imp__InterlockedIncrement@4 004d6584     kernel32:KERNEL32.dll
 0004:00000588       __imp__SetLastError@4      004d6588     kernel32:KERNEL32.dll
 0004:0000058c       __imp__InterlockedDecrement@4 004d658c     kernel32:KERNEL32.dll
 0004:00000590       __imp__GetCurrentThread@0  004d6590     kernel32:KERNEL32.dll
 0004:00000594       __imp__GetModuleFileNameA@12 004d6594     kernel32:KERNEL32.dll
 0004:00000598       __imp__FreeLibrary@4       004d6598     kernel32:KERNEL32.dll
 0004:0000059c       __imp__InterlockedExchange@8 004d659c     kernel32:KERNEL32.dll
 0004:000005a0       __imp__LoadLibraryA@4      004d65a0     kernel32:KERNEL32.dll
 0004:000005a4       __imp__InitializeCriticalSectionAndSpinCount@8 004d65a4     kernel32:KERNEL32.dll
 0004:000005a8       __imp__SetFilePointer@16   004d65a8     kernel32:KERNEL32.dll
 0004:000005ac       __imp__VirtualFree@12      004d65ac     kernel32:KERNEL32.dll
 0004:000005b0       __imp__VirtualAlloc@16     004d65b0     kernel32:KERNEL32.dll
 0004:000005b4       __imp__HeapCreate@12       004d65b4     kernel32:KERNEL32.dll
 0004:000005b8       __imp__HeapDestroy@4       004d65b8     kernel32:KERNEL32.dll
 0004:000005bc       __imp__FreeEnvironmentStringsA@4 004d65bc     kernel32:KERNEL32.dll
 0004:000005c0       __imp__GetEnvironmentStrings@0 004d65c0     kernel32:KERNEL32.dll
 0004:000005c4       __imp__FreeEnvironmentStringsW@4 004d65c4     kernel32:KERNEL32.dll
 0004:000005c8       __imp__GetEnvironmentStringsW@0 004d65c8     kernel32:KERNEL32.dll
 0004:000005cc       __imp__GetTickCount@0      004d65cc     kernel32:KERNEL32.dll
 0004:000005d0       __imp__GetCurrentProcessId@0 004d65d0     kernel32:KERNEL32.dll
 0004:000005d4       __imp__GetCPInfo@8         004d65d4     kernel32:KERNEL32.dll
 0004:000005d8       __imp__GetACP@0            004d65d8     kernel32:KERNEL32.dll
 0004:000005dc       __imp__GetOEMCP@0          004d65dc     kernel32:KERNEL32.dll
 0004:000005e0       \177KERNEL32_NULL_THUNK_DATA 004d65e0     kernel32:KERNEL32.dll
 0004:0000066c       __imp__timeGetTime@0       004d666c     winmm:WINMM.dll
 0004:00000670       \177WINMM_NULL_THUNK_DATA  004d6670     winmm:WINMM.dll
 0004:0000069c       __imp__accept@12           004d669c     ws2_32:WS2_32.dll
 0004:000006a0       __imp____WSAFDIsSet@8      004d66a0     ws2_32:WS2_32.dll
 0004:000006a4       __imp__getsockopt@20       004d66a4     ws2_32:WS2_32.dll
 0004:000006a8       __imp__recv@16             004d66a8     ws2_32:WS2_32.dll
 0004:000006ac       __imp__select@20           004d66ac     ws2_32:WS2_32.dll
 0004:000006b0       __imp__send@16             004d66b0     ws2_32:WS2_32.dll
 0004:000006b4       __imp__bind@12             004d66b4     ws2_32:WS2_32.dll
 0004:000006b8       __imp__listen@8            004d66b8     ws2_32:WS2_32.dll
 0004:000006bc       __imp__socket@12           004d66bc     ws2_32:WS2_32.dll
 0004:000006c0       __imp__ioctlsocket@12      004d66c0     ws2_32:WS2_32.dll
 0004:000006c4       __imp__htons@4             004d66c4     ws2_32:WS2_32.dll
 0004:000006c8       __imp__connect@12          004d66c8     ws2_32:WS2_32.dll
 0004:000006cc       __imp__closesocket@4       004d66cc     ws2_32:WS2_32.dll
 0004:000006d0       __imp__WSAStartup@8        004d66d0     ws2_32:WS2_32.dll
 0004:000006d4       __imp__getpeername@12      004d66d4     ws2_32:WS2_32.dll
 0004:000006d8       __imp__ntohs@4             004d66d8     ws2_32:WS2_32.dll
 0004:000006dc       __imp__inet_addr@4         004d66dc     ws2_32:WS2_32.dll
 0004:000006e0       __imp__gethostbyname@4     004d66e0     ws2_32:WS2_32.dll
 0004:000006e4       __imp__inet_ntoa@4         004d66e4     ws2_32:WS2_32.dll
 0004:000006e8       __imp__WSAGetLastError@0   004d66e8     ws2_32:WS2_32.dll
 0004:000006ec       __imp__setsockopt@20       004d66ec     ws2_32:WS2_32.dll
 0004:000006f0       __imp__ntohl@4             004d66f0     ws2_32:WS2_32.dll
 0004:000006f4       __imp__htonl@4             004d66f4     ws2_32:WS2_32.dll
 0004:000006f8       \177WS2_32_NULL_THUNK_DATA 004d66f8     ws2_32:WS2_32.dll

 entry point at        0001:00057175

